ARM GAS  /tmp/ccOloYeZ.s 			page 1


   1              		.cpu cortex-m4
   2              		.arch armv7e-m
   3              		.fpu fpv4-sp-d16
   4              		.eabi_attribute 27, 1
   5              		.eabi_attribute 28, 1
   6              		.eabi_attribute 20, 1
   7              		.eabi_attribute 21, 1
   8              		.eabi_attribute 23, 3
   9              		.eabi_attribute 24, 1
  10              		.eabi_attribute 25, 1
  11              		.eabi_attribute 26, 1
  12              		.eabi_attribute 30, 1
  13              		.eabi_attribute 34, 1
  14              		.eabi_attribute 18, 4
  15              		.file	"bno055.c"
  16              		.text
  17              	.Ltext0:
  18              		.cfi_sections	.debug_frame
  19              		.file 1 "Core/Src/bno055.c"
  20              		.section	.text.bno055_init,"ax",%progbits
  21              		.align	1
  22              		.global	bno055_init
  23              		.syntax unified
  24              		.thumb
  25              		.thumb_func
  27              	bno055_init:
  28              	.LVL0:
  29              	.LFB0:
   1:Core/Src/bno055.c **** /**
   2:Core/Src/bno055.c **** * Copyright (c) 2020 Bosch Sensortec GmbH. All rights reserved.
   3:Core/Src/bno055.c **** *
   4:Core/Src/bno055.c **** * BSD-3-Clause
   5:Core/Src/bno055.c **** *
   6:Core/Src/bno055.c **** * Redistribution and use in source and binary forms, with or without
   7:Core/Src/bno055.c **** * modification, are permitted provided that the following conditions are met:
   8:Core/Src/bno055.c **** *
   9:Core/Src/bno055.c **** * 1. Redistributions of source code must retain the above copyright
  10:Core/Src/bno055.c **** *    notice, this list of conditions and the following disclaimer.
  11:Core/Src/bno055.c **** *
  12:Core/Src/bno055.c **** * 2. Redistributions in binary form must reproduce the above copyright
  13:Core/Src/bno055.c **** *    notice, this list of conditions and the following disclaimer in the
  14:Core/Src/bno055.c **** *    documentation and/or other materials provided with the distribution.
  15:Core/Src/bno055.c **** *
  16:Core/Src/bno055.c **** * 3. Neither the name of the copyright holder nor the names of its
  17:Core/Src/bno055.c **** *    contributors may be used to endorse or promote products derived from
  18:Core/Src/bno055.c **** *    this software without specific prior written permission.
  19:Core/Src/bno055.c **** *
  20:Core/Src/bno055.c **** * THIS SOFTWARE IS PROVIDED BY THE COPYRIGHT HOLDERS AND CONTRIBUTORS
  21:Core/Src/bno055.c **** * "AS IS" AND ANY EXPRESS OR IMPLIED WARRANTIES, INCLUDING, BUT NOT
  22:Core/Src/bno055.c **** * LIMITED TO, THE IMPLIED WARRANTIES OF MERCHANTABILITY AND FITNESS
  23:Core/Src/bno055.c **** * FOR A PARTICULAR PURPOSE ARE DISCLAIMED. IN NO EVENT SHALL THE
  24:Core/Src/bno055.c **** * COPYRIGHT HOLDER OR CONTRIBUTORS BE LIABLE FOR ANY DIRECT, INDIRECT,
  25:Core/Src/bno055.c **** * INCIDENTAL, SPECIAL, EXEMPLARY, OR CONSEQUENTIAL DAMAGES
  26:Core/Src/bno055.c **** * (INCLUDING, BUT NOT LIMITED TO, PROCUREMENT OF SUBSTITUTE GOODS OR
  27:Core/Src/bno055.c **** * SERVICES; LOSS OF USE, DATA, OR PROFITS; OR BUSINESS INTERRUPTION)
  28:Core/Src/bno055.c **** * HOWEVER CAUSED AND ON ANY THEORY OF LIABILITY, WHETHER IN CONTRACT,
  29:Core/Src/bno055.c **** * STRICT LIABILITY, OR TORT (INCLUDING NEGLIGENCE OR OTHERWISE) ARISING
ARM GAS  /tmp/ccOloYeZ.s 			page 2


  30:Core/Src/bno055.c **** * IN ANY WAY OUT OF THE USE OF THIS SOFTWARE, EVEN IF ADVISED OF THE
  31:Core/Src/bno055.c **** * POSSIBILITY OF SUCH DAMAGE.
  32:Core/Src/bno055.c **** *
  33:Core/Src/bno055.c **** * @file bno055.c
  34:Core/Src/bno055.c **** * @date 10/01/2020
  35:Core/Src/bno055.c **** * @version  2.0.6
  36:Core/Src/bno055.c **** *
  37:Core/Src/bno055.c **** */
  38:Core/Src/bno055.c **** 
  39:Core/Src/bno055.c **** /*********************************************************/
  40:Core/Src/bno055.c **** /*              INCLUDES    */
  41:Core/Src/bno055.c **** /*******************************************************/
  42:Core/Src/bno055.c **** #include "bno055.h"
  43:Core/Src/bno055.c **** 
  44:Core/Src/bno055.c **** #ifdef __KERNEL__
  45:Core/Src/bno055.c **** #include <linux/types.h>
  46:Core/Src/bno055.c **** #include <linux/kernel.h>
  47:Core/Src/bno055.c **** #else
  48:Core/Src/bno055.c **** #include <stdint.h>
  49:Core/Src/bno055.c **** #include <stddef.h>
  50:Core/Src/bno055.c **** #endif
  51:Core/Src/bno055.c **** 
  52:Core/Src/bno055.c **** #ifndef NULL
  53:Core/Src/bno055.c **** #ifdef __cplusplus
  54:Core/Src/bno055.c **** #define NULL 0
  55:Core/Src/bno055.c **** #else
  56:Core/Src/bno055.c **** #define NULL ((void *) 0)
  57:Core/Src/bno055.c **** #endif
  58:Core/Src/bno055.c **** #endif
  59:Core/Src/bno055.c **** 
  60:Core/Src/bno055.c **** /*! file <BNO055 >
  61:Core/Src/bno055.c ****  * brief <Sensor driver for BNO055> */
  62:Core/Src/bno055.c **** 
  63:Core/Src/bno055.c **** /*  STRUCTURE DEFINITIONS   */
  64:Core/Src/bno055.c **** static struct bno055_t *p_bno055;
  65:Core/Src/bno055.c **** 
  66:Core/Src/bno055.c **** /*   LOCAL FUNCTIONS    */
  67:Core/Src/bno055.c **** 
  68:Core/Src/bno055.c **** /*!
  69:Core/Src/bno055.c ****  *  @brief
  70:Core/Src/bno055.c ****  *  This API is used for initialize
  71:Core/Src/bno055.c ****  *  bus read, bus write function pointers,device
  72:Core/Src/bno055.c ****  *  address,accel revision id, gyro revision id
  73:Core/Src/bno055.c ****  *  mag revision id, software revision id, boot loader
  74:Core/Src/bno055.c ****  *  revision id and page id
  75:Core/Src/bno055.c ****  *
  76:Core/Src/bno055.c ****  *  @param  bno055 - structure pointer
  77:Core/Src/bno055.c ****  *
  78:Core/Src/bno055.c ****  *
  79:Core/Src/bno055.c ****  *  @return results of bus communication function
  80:Core/Src/bno055.c ****  *  @retval 0 -> BNO055_SUCCESS
  81:Core/Src/bno055.c ****  *  @retval 1 -> BNO055_ERROR
  82:Core/Src/bno055.c ****  *
  83:Core/Src/bno055.c ****  *  @note While changing the parameter of the bno055_t
  84:Core/Src/bno055.c ****  *  consider the following point:
  85:Core/Src/bno055.c ****  *  Changing the reference value of the parameter
  86:Core/Src/bno055.c ****  *  will changes the local copy or local reference
ARM GAS  /tmp/ccOloYeZ.s 			page 3


  87:Core/Src/bno055.c ****  *  make sure your changes will not
  88:Core/Src/bno055.c ****  *  affect the reference value of the parameter
  89:Core/Src/bno055.c ****  *  (Better case don't change the reference value of the parameter)
  90:Core/Src/bno055.c ****  */
  91:Core/Src/bno055.c **** BNO055_RETURN_FUNCTION_TYPE bno055_init(struct bno055_t *bno055)
  92:Core/Src/bno055.c **** {
  30              		.loc 1 92 1 view -0
  31              		.cfi_startproc
  32              		@ args = 0, pretend = 0, frame = 8
  33              		@ frame_needed = 0, uses_anonymous_args = 0
  34              		.loc 1 92 1 is_stmt 0 view .LVU1
  35 0000 F0B5     		push	{r4, r5, r6, r7, lr}
  36              		.cfi_def_cfa_offset 20
  37              		.cfi_offset 4, -20
  38              		.cfi_offset 5, -16
  39              		.cfi_offset 6, -12
  40              		.cfi_offset 7, -8
  41              		.cfi_offset 14, -4
  42 0002 83B0     		sub	sp, sp, #12
  43              		.cfi_def_cfa_offset 32
  93:Core/Src/bno055.c ****     /* Variable used to return value of
  94:Core/Src/bno055.c ****      * communication routine*/
  95:Core/Src/bno055.c ****     BNO055_RETURN_FUNCTION_TYPE com_rslt = BNO055_ERROR;
  44              		.loc 1 95 5 is_stmt 1 view .LVU2
  45              	.LVL1:
  96:Core/Src/bno055.c ****     u8 data_u8 = BNO055_INIT_VALUE;
  46              		.loc 1 96 5 view .LVU3
  47              		.loc 1 96 8 is_stmt 0 view .LVU4
  48 0004 0025     		movs	r5, #0
  49 0006 8DF80750 		strb	r5, [sp, #7]
  97:Core/Src/bno055.c ****     u8 bno055_page_zero_u8 = BNO055_PAGE_ZERO;
  50              		.loc 1 97 5 is_stmt 1 view .LVU5
  51              		.loc 1 97 8 is_stmt 0 view .LVU6
  52 000a 8DF80650 		strb	r5, [sp, #6]
  98:Core/Src/bno055.c **** 
  99:Core/Src/bno055.c ****     /* Array holding the Software revision id
 100:Core/Src/bno055.c ****      */
 101:Core/Src/bno055.c ****     u8 a_SW_ID_u8[BNO055_REV_ID_SIZE] = { BNO055_INIT_VALUE, BNO055_INIT_VALUE };
  53              		.loc 1 101 5 is_stmt 1 view .LVU7
  54              		.loc 1 101 8 is_stmt 0 view .LVU8
  55 000e ADF80450 		strh	r5, [sp, #4]	@ movhi
 102:Core/Src/bno055.c **** 
 103:Core/Src/bno055.c ****     /* stuct parameters are assign to bno055*/
 104:Core/Src/bno055.c ****     p_bno055 = bno055;
  56              		.loc 1 104 5 is_stmt 1 view .LVU9
  57              		.loc 1 104 14 is_stmt 0 view .LVU10
  58 0012 394C     		ldr	r4, .L3
  59 0014 2060     		str	r0, [r4]
 105:Core/Src/bno055.c **** 
 106:Core/Src/bno055.c ****     /* Write the default page as zero*/
 107:Core/Src/bno055.c ****     com_rslt = p_bno055->BNO055_BUS_WRITE_FUNC(p_bno055->dev_addr,
  60              		.loc 1 107 5 is_stmt 1 view .LVU11
  61              		.loc 1 107 24 is_stmt 0 view .LVU12
  62 0016 C668     		ldr	r6, [r0, #12]
  63              		.loc 1 107 16 view .LVU13
  64 0018 0123     		movs	r3, #1
  65 001a 0DF10602 		add	r2, sp, #6
ARM GAS  /tmp/ccOloYeZ.s 			page 4


  66 001e 0721     		movs	r1, #7
  67 0020 407A     		ldrb	r0, [r0, #9]	@ zero_extendqisi2
  68              	.LVL2:
  69              		.loc 1 107 16 view .LVU14
  70 0022 B047     		blx	r6
  71              	.LVL3:
  72              		.loc 1 107 16 view .LVU15
  73 0024 0646     		mov	r6, r0
  74              	.LVL4:
 108:Core/Src/bno055.c ****                                                BNO055_PAGE_ID_REG,
 109:Core/Src/bno055.c ****                                                &bno055_page_zero_u8,
 110:Core/Src/bno055.c ****                                                BNO055_GEN_READ_WRITE_LENGTH);
 111:Core/Src/bno055.c **** 
 112:Core/Src/bno055.c ****     /* Read the chip id of the sensor from page
 113:Core/Src/bno055.c ****      * zero 0x00 register*/
 114:Core/Src/bno055.c ****     com_rslt += p_bno055->BNO055_BUS_READ_FUNC(p_bno055->dev_addr,
  75              		.loc 1 114 5 is_stmt 1 view .LVU16
  76              		.loc 1 114 25 is_stmt 0 view .LVU17
  77 0026 2068     		ldr	r0, [r4]
  78 0028 0769     		ldr	r7, [r0, #16]
  79              		.loc 1 114 17 view .LVU18
  80 002a 0123     		movs	r3, #1
  81 002c 0DF10702 		add	r2, sp, #7
  82 0030 2946     		mov	r1, r5
  83 0032 407A     		ldrb	r0, [r0, #9]	@ zero_extendqisi2
  84 0034 B847     		blx	r7
  85              	.LVL5:
  86              		.loc 1 114 14 view .LVU19
  87 0036 56FA80F0 		uxtab	r0, r6, r0
  88 003a C5B2     		uxtb	r5, r0
  89              	.LVL6:
 115:Core/Src/bno055.c ****                                                BNO055_CHIP_ID_REG,
 116:Core/Src/bno055.c ****                                                &data_u8,
 117:Core/Src/bno055.c ****                                                BNO055_GEN_READ_WRITE_LENGTH);
 118:Core/Src/bno055.c ****     p_bno055->chip_id = data_u8;
  90              		.loc 1 118 5 is_stmt 1 view .LVU20
  91              		.loc 1 118 13 is_stmt 0 view .LVU21
  92 003c 2068     		ldr	r0, [r4]
  93              		.loc 1 118 23 view .LVU22
  94 003e 9DF80730 		ldrb	r3, [sp, #7]	@ zero_extendqisi2
  95 0042 0370     		strb	r3, [r0]
 119:Core/Src/bno055.c **** 
 120:Core/Src/bno055.c ****     /* Read the accel revision id from page
 121:Core/Src/bno055.c ****      * zero 0x01 register*/
 122:Core/Src/bno055.c ****     com_rslt += p_bno055->BNO055_BUS_READ_FUNC(p_bno055->dev_addr,
  96              		.loc 1 122 5 is_stmt 1 view .LVU23
  97              		.loc 1 122 25 is_stmt 0 view .LVU24
  98 0044 0669     		ldr	r6, [r0, #16]
  99              		.loc 1 122 17 view .LVU25
 100 0046 0123     		movs	r3, #1
 101 0048 0DF10702 		add	r2, sp, #7
 102 004c 1946     		mov	r1, r3
 103 004e 407A     		ldrb	r0, [r0, #9]	@ zero_extendqisi2
 104 0050 B047     		blx	r6
 105              	.LVL7:
 106              		.loc 1 122 14 view .LVU26
 107 0052 55FA80F5 		uxtab	r5, r5, r0
ARM GAS  /tmp/ccOloYeZ.s 			page 5


 108              	.LVL8:
 109              		.loc 1 122 14 view .LVU27
 110 0056 EDB2     		uxtb	r5, r5
 111              	.LVL9:
 123:Core/Src/bno055.c ****                                                BNO055_ACCEL_REV_ID_REG,
 124:Core/Src/bno055.c ****                                                &data_u8,
 125:Core/Src/bno055.c ****                                                BNO055_GEN_READ_WRITE_LENGTH);
 126:Core/Src/bno055.c ****     p_bno055->accel_rev_id = data_u8;
 112              		.loc 1 126 5 is_stmt 1 view .LVU28
 113              		.loc 1 126 13 is_stmt 0 view .LVU29
 114 0058 2068     		ldr	r0, [r4]
 115              		.loc 1 126 28 view .LVU30
 116 005a 9DF80730 		ldrb	r3, [sp, #7]	@ zero_extendqisi2
 117 005e 4371     		strb	r3, [r0, #5]
 127:Core/Src/bno055.c **** 
 128:Core/Src/bno055.c ****     /* Read the mag revision id from page
 129:Core/Src/bno055.c ****      * zero 0x02 register*/
 130:Core/Src/bno055.c ****     com_rslt += p_bno055->BNO055_BUS_READ_FUNC(p_bno055->dev_addr,
 118              		.loc 1 130 5 is_stmt 1 view .LVU31
 119              		.loc 1 130 25 is_stmt 0 view .LVU32
 120 0060 0669     		ldr	r6, [r0, #16]
 121              		.loc 1 130 17 view .LVU33
 122 0062 0123     		movs	r3, #1
 123 0064 0DF10702 		add	r2, sp, #7
 124 0068 0221     		movs	r1, #2
 125 006a 407A     		ldrb	r0, [r0, #9]	@ zero_extendqisi2
 126 006c B047     		blx	r6
 127              	.LVL10:
 128              		.loc 1 130 14 view .LVU34
 129 006e 55FA80F5 		uxtab	r5, r5, r0
 130              	.LVL11:
 131              		.loc 1 130 14 view .LVU35
 132 0072 EDB2     		uxtb	r5, r5
 133              	.LVL12:
 131:Core/Src/bno055.c ****                                                BNO055_MAG_REV_ID_REG,
 132:Core/Src/bno055.c ****                                                &data_u8,
 133:Core/Src/bno055.c ****                                                BNO055_GEN_READ_WRITE_LENGTH);
 134:Core/Src/bno055.c ****     p_bno055->mag_rev_id = data_u8;
 134              		.loc 1 134 5 is_stmt 1 view .LVU36
 135              		.loc 1 134 13 is_stmt 0 view .LVU37
 136 0074 2068     		ldr	r0, [r4]
 137              		.loc 1 134 26 view .LVU38
 138 0076 9DF80730 		ldrb	r3, [sp, #7]	@ zero_extendqisi2
 139 007a 8371     		strb	r3, [r0, #6]
 135:Core/Src/bno055.c **** 
 136:Core/Src/bno055.c ****     /* Read the gyro revision id from page
 137:Core/Src/bno055.c ****      * zero 0x02 register*/
 138:Core/Src/bno055.c ****     com_rslt += p_bno055->BNO055_BUS_READ_FUNC(p_bno055->dev_addr,
 140              		.loc 1 138 5 is_stmt 1 view .LVU39
 141              		.loc 1 138 25 is_stmt 0 view .LVU40
 142 007c 0669     		ldr	r6, [r0, #16]
 143              		.loc 1 138 17 view .LVU41
 144 007e 0123     		movs	r3, #1
 145 0080 0DF10702 		add	r2, sp, #7
 146 0084 0321     		movs	r1, #3
 147 0086 407A     		ldrb	r0, [r0, #9]	@ zero_extendqisi2
 148 0088 B047     		blx	r6
ARM GAS  /tmp/ccOloYeZ.s 			page 6


 149              	.LVL13:
 150              		.loc 1 138 14 view .LVU42
 151 008a 55FA80F5 		uxtab	r5, r5, r0
 152              	.LVL14:
 153              		.loc 1 138 14 view .LVU43
 154 008e EDB2     		uxtb	r5, r5
 155              	.LVL15:
 139:Core/Src/bno055.c ****                                                BNO055_GYRO_REV_ID_REG,
 140:Core/Src/bno055.c ****                                                &data_u8,
 141:Core/Src/bno055.c ****                                                BNO055_GEN_READ_WRITE_LENGTH);
 142:Core/Src/bno055.c ****     p_bno055->gyro_rev_id = data_u8;
 156              		.loc 1 142 5 is_stmt 1 view .LVU44
 157              		.loc 1 142 13 is_stmt 0 view .LVU45
 158 0090 2068     		ldr	r0, [r4]
 159              		.loc 1 142 27 view .LVU46
 160 0092 9DF80730 		ldrb	r3, [sp, #7]	@ zero_extendqisi2
 161 0096 C371     		strb	r3, [r0, #7]
 143:Core/Src/bno055.c **** 
 144:Core/Src/bno055.c ****     /* Read the boot loader revision from page
 145:Core/Src/bno055.c ****      * zero 0x06 register*/
 146:Core/Src/bno055.c ****     com_rslt += p_bno055->BNO055_BUS_READ_FUNC(p_bno055->dev_addr,
 162              		.loc 1 146 5 is_stmt 1 view .LVU47
 163              		.loc 1 146 25 is_stmt 0 view .LVU48
 164 0098 0669     		ldr	r6, [r0, #16]
 165              		.loc 1 146 17 view .LVU49
 166 009a 0123     		movs	r3, #1
 167 009c 0DF10702 		add	r2, sp, #7
 168 00a0 0621     		movs	r1, #6
 169 00a2 407A     		ldrb	r0, [r0, #9]	@ zero_extendqisi2
 170 00a4 B047     		blx	r6
 171              	.LVL16:
 172              		.loc 1 146 14 view .LVU50
 173 00a6 55FA80F5 		uxtab	r5, r5, r0
 174              	.LVL17:
 175              		.loc 1 146 14 view .LVU51
 176 00aa EDB2     		uxtb	r5, r5
 177              	.LVL18:
 147:Core/Src/bno055.c ****                                                BNO055_BL_REV_ID_REG,
 148:Core/Src/bno055.c ****                                                &data_u8,
 149:Core/Src/bno055.c ****                                                BNO055_GEN_READ_WRITE_LENGTH);
 150:Core/Src/bno055.c ****     p_bno055->bl_rev_id = data_u8;
 178              		.loc 1 150 5 is_stmt 1 view .LVU52
 179              		.loc 1 150 13 is_stmt 0 view .LVU53
 180 00ac 2068     		ldr	r0, [r4]
 181              		.loc 1 150 25 view .LVU54
 182 00ae 9DF80730 		ldrb	r3, [sp, #7]	@ zero_extendqisi2
 183 00b2 0372     		strb	r3, [r0, #8]
 151:Core/Src/bno055.c **** 
 152:Core/Src/bno055.c ****     /* Read the software revision id from page
 153:Core/Src/bno055.c ****      * zero 0x04 and 0x05 register( 2 bytes of data)*/
 154:Core/Src/bno055.c ****     com_rslt += p_bno055->BNO055_BUS_READ_FUNC(p_bno055->dev_addr,
 184              		.loc 1 154 5 is_stmt 1 view .LVU55
 185              		.loc 1 154 25 is_stmt 0 view .LVU56
 186 00b4 0669     		ldr	r6, [r0, #16]
 187              		.loc 1 154 17 view .LVU57
 188 00b6 0223     		movs	r3, #2
 189 00b8 01AA     		add	r2, sp, #4
ARM GAS  /tmp/ccOloYeZ.s 			page 7


 190 00ba 0421     		movs	r1, #4
 191 00bc 407A     		ldrb	r0, [r0, #9]	@ zero_extendqisi2
 192 00be B047     		blx	r6
 193              	.LVL19:
 194              		.loc 1 154 14 view .LVU58
 195 00c0 55FA80F5 		uxtab	r5, r5, r0
 196              	.LVL20:
 197              		.loc 1 154 14 view .LVU59
 198 00c4 EDB2     		uxtb	r5, r5
 199              	.LVL21:
 155:Core/Src/bno055.c ****                                                BNO055_SW_REV_ID_LSB_REG,
 156:Core/Src/bno055.c ****                                                a_SW_ID_u8,
 157:Core/Src/bno055.c ****                                                BNO055_LSB_MSB_READ_LENGTH);
 158:Core/Src/bno055.c ****     a_SW_ID_u8[BNO055_SW_ID_LSB] = BNO055_GET_BITSLICE(a_SW_ID_u8[BNO055_SW_ID_LSB], BNO055_SW_REV_
 200              		.loc 1 158 5 is_stmt 1 view .LVU60
 201              		.loc 1 158 36 is_stmt 0 view .LVU61
 202 00c6 9DF80430 		ldrb	r3, [sp, #4]	@ zero_extendqisi2
 159:Core/Src/bno055.c ****     p_bno055->sw_rev_id =
 203              		.loc 1 159 5 is_stmt 1 view .LVU62
 160:Core/Src/bno055.c ****         (u16)((((u32)((u8)a_SW_ID_u8[BNO055_SW_ID_MSB])) << BNO055_SHIFT_EIGHT_BITS) | (a_SW_ID_u8[
 204              		.loc 1 160 37 is_stmt 0 view .LVU63
 205 00ca 9DF80520 		ldrb	r2, [sp, #5]	@ zero_extendqisi2
 159:Core/Src/bno055.c ****     p_bno055->sw_rev_id =
 206              		.loc 1 159 13 view .LVU64
 207 00ce 2068     		ldr	r0, [r4]
 208              		.loc 1 160 9 view .LVU65
 209 00d0 43EA0223 		orr	r3, r3, r2, lsl #8
 159:Core/Src/bno055.c ****     p_bno055->sw_rev_id =
 210              		.loc 1 159 25 view .LVU66
 211 00d4 4380     		strh	r3, [r0, #2]	@ movhi
 161:Core/Src/bno055.c **** 
 162:Core/Src/bno055.c ****     /* Read the page id from the register 0x07*/
 163:Core/Src/bno055.c ****     com_rslt += p_bno055->BNO055_BUS_READ_FUNC(p_bno055->dev_addr,
 212              		.loc 1 163 5 is_stmt 1 view .LVU67
 213              		.loc 1 163 25 is_stmt 0 view .LVU68
 214 00d6 0669     		ldr	r6, [r0, #16]
 215              		.loc 1 163 17 view .LVU69
 216 00d8 0123     		movs	r3, #1
 217 00da 0DF10702 		add	r2, sp, #7
 218 00de 0721     		movs	r1, #7
 219 00e0 407A     		ldrb	r0, [r0, #9]	@ zero_extendqisi2
 220 00e2 B047     		blx	r6
 221              	.LVL22:
 222              		.loc 1 163 14 view .LVU70
 223 00e4 55FA80F0 		uxtab	r0, r5, r0
 224              	.LVL23:
 164:Core/Src/bno055.c ****                                                BNO055_PAGE_ID_REG,
 165:Core/Src/bno055.c ****                                                &data_u8,
 166:Core/Src/bno055.c ****                                                BNO055_GEN_READ_WRITE_LENGTH);
 167:Core/Src/bno055.c ****     p_bno055->page_id = data_u8;
 225              		.loc 1 167 5 is_stmt 1 view .LVU71
 226              		.loc 1 167 13 is_stmt 0 view .LVU72
 227 00e8 2368     		ldr	r3, [r4]
 228              		.loc 1 167 23 view .LVU73
 229 00ea 9DF80720 		ldrb	r2, [sp, #7]	@ zero_extendqisi2
 230 00ee 1A71     		strb	r2, [r3, #4]
 168:Core/Src/bno055.c **** 
ARM GAS  /tmp/ccOloYeZ.s 			page 8


 169:Core/Src/bno055.c ****     return com_rslt;
 231              		.loc 1 169 5 is_stmt 1 view .LVU74
 170:Core/Src/bno055.c **** }
 232              		.loc 1 170 1 is_stmt 0 view .LVU75
 233 00f0 40B2     		sxtb	r0, r0
 234              		.loc 1 170 1 view .LVU76
 235 00f2 03B0     		add	sp, sp, #12
 236              		.cfi_def_cfa_offset 20
 237              		@ sp needed
 238 00f4 F0BD     		pop	{r4, r5, r6, r7, pc}
 239              	.L4:
 240 00f6 00BF     		.align	2
 241              	.L3:
 242 00f8 00000000 		.word	p_bno055
 243              		.cfi_endproc
 244              	.LFE0:
 246              		.section	.text.bno055_write_register,"ax",%progbits
 247              		.align	1
 248              		.global	bno055_write_register
 249              		.syntax unified
 250              		.thumb
 251              		.thumb_func
 253              	bno055_write_register:
 254              	.LVL24:
 255              	.LFB1:
 171:Core/Src/bno055.c **** 
 172:Core/Src/bno055.c **** /*!
 173:Core/Src/bno055.c ****  *  @brief
 174:Core/Src/bno055.c ****  *  This API gives data to the given register and
 175:Core/Src/bno055.c ****  *  the data is written in the corresponding register address
 176:Core/Src/bno055.c ****  *
 177:Core/Src/bno055.c ****  *  @param addr_u8 : Address of the register
 178:Core/Src/bno055.c ****  *  @param data_u8 : Data to be written to the register
 179:Core/Src/bno055.c ****  *  @param len_u8  : Length of the Data
 180:Core/Src/bno055.c ****  *
 181:Core/Src/bno055.c ****  *  @return results of bus communication function
 182:Core/Src/bno055.c ****  *  @retval 0 -> BNO055_SUCCESS
 183:Core/Src/bno055.c ****  *  @retval 1 -> BNO055_ERROR
 184:Core/Src/bno055.c ****  *
 185:Core/Src/bno055.c ****  *
 186:Core/Src/bno055.c ****  */
 187:Core/Src/bno055.c **** BNO055_RETURN_FUNCTION_TYPE bno055_write_register(u8 addr_u8, u8 *data_u8, u8 len_u8)
 188:Core/Src/bno055.c **** {
 256              		.loc 1 188 1 is_stmt 1 view -0
 257              		.cfi_startproc
 258              		@ args = 0, pretend = 0, frame = 0
 259              		@ frame_needed = 0, uses_anonymous_args = 0
 260              		.loc 1 188 1 is_stmt 0 view .LVU78
 261 0000 38B5     		push	{r3, r4, r5, lr}
 262              		.cfi_def_cfa_offset 16
 263              		.cfi_offset 3, -16
 264              		.cfi_offset 4, -12
 265              		.cfi_offset 5, -8
 266              		.cfi_offset 14, -4
 267 0002 1346     		mov	r3, r2
 189:Core/Src/bno055.c ****     /* Variable used to return value of
 190:Core/Src/bno055.c ****      * communication routine*/
ARM GAS  /tmp/ccOloYeZ.s 			page 9


 191:Core/Src/bno055.c ****     BNO055_RETURN_FUNCTION_TYPE com_rslt = BNO055_ERROR;
 268              		.loc 1 191 5 is_stmt 1 view .LVU79
 269              	.LVL25:
 192:Core/Src/bno055.c **** 
 193:Core/Src/bno055.c ****     /* Check the struct p_bno055 is empty */
 194:Core/Src/bno055.c ****     if (p_bno055 == NULL)
 270              		.loc 1 194 5 view .LVU80
 271              		.loc 1 194 18 is_stmt 0 view .LVU81
 272 0004 054A     		ldr	r2, .L9
 273              	.LVL26:
 274              		.loc 1 194 18 view .LVU82
 275 0006 1468     		ldr	r4, [r2]
 276              		.loc 1 194 8 view .LVU83
 277 0008 2CB1     		cbz	r4, .L7
 195:Core/Src/bno055.c ****     {
 196:Core/Src/bno055.c ****         return BNO055_E_NULL_PTR;
 197:Core/Src/bno055.c ****     }
 198:Core/Src/bno055.c ****     else
 199:Core/Src/bno055.c ****     {
 200:Core/Src/bno055.c ****         /* Write the values of respective given register */
 201:Core/Src/bno055.c ****         com_rslt = p_bno055->BNO055_BUS_WRITE_FUNC(p_bno055->dev_addr, addr_u8, data_u8, len_u8);
 278              		.loc 1 201 9 is_stmt 1 view .LVU84
 279              		.loc 1 201 28 is_stmt 0 view .LVU85
 280 000a E568     		ldr	r5, [r4, #12]
 281              		.loc 1 201 20 view .LVU86
 282 000c 0A46     		mov	r2, r1
 283 000e 0146     		mov	r1, r0
 284              	.LVL27:
 285              		.loc 1 201 20 view .LVU87
 286 0010 607A     		ldrb	r0, [r4, #9]	@ zero_extendqisi2
 287              	.LVL28:
 288              		.loc 1 201 20 view .LVU88
 289 0012 A847     		blx	r5
 290              	.LVL29:
 202:Core/Src/bno055.c ****     }
 203:Core/Src/bno055.c **** 
 204:Core/Src/bno055.c ****     return com_rslt;
 291              		.loc 1 204 5 is_stmt 1 view .LVU89
 292              	.L6:
 205:Core/Src/bno055.c **** }
 293              		.loc 1 205 1 is_stmt 0 view .LVU90
 294 0014 38BD     		pop	{r3, r4, r5, pc}
 295              	.LVL30:
 296              	.L7:
 196:Core/Src/bno055.c ****     }
 297              		.loc 1 196 16 view .LVU91
 298 0016 6FF07E00 		mvn	r0, #126
 299              	.LVL31:
 196:Core/Src/bno055.c ****     }
 300              		.loc 1 196 16 view .LVU92
 301 001a FBE7     		b	.L6
 302              	.L10:
 303              		.align	2
 304              	.L9:
 305 001c 00000000 		.word	p_bno055
 306              		.cfi_endproc
 307              	.LFE1:
ARM GAS  /tmp/ccOloYeZ.s 			page 10


 309              		.section	.text.bno055_read_register,"ax",%progbits
 310              		.align	1
 311              		.global	bno055_read_register
 312              		.syntax unified
 313              		.thumb
 314              		.thumb_func
 316              	bno055_read_register:
 317              	.LVL32:
 318              	.LFB2:
 206:Core/Src/bno055.c **** 
 207:Core/Src/bno055.c **** /*!
 208:Core/Src/bno055.c ****  *  @brief This API reads the data from
 209:Core/Src/bno055.c ****  *  the given register address
 210:Core/Src/bno055.c ****  *
 211:Core/Src/bno055.c ****  *  @param addr_u8 : Address of the register
 212:Core/Src/bno055.c ****  *  @param data_u8 : address of the variable,
 213:Core/Src/bno055.c ****  *  read value will be kept
 214:Core/Src/bno055.c ****  *  @param len_u8  : Length of the data
 215:Core/Src/bno055.c ****  *
 216:Core/Src/bno055.c ****  *
 217:Core/Src/bno055.c ****  *  @return results of bus communication function
 218:Core/Src/bno055.c ****  *  @retval 0 -> BNO055_SUCCESS
 219:Core/Src/bno055.c ****  *  @retval 1 -> BNO055_ERROR
 220:Core/Src/bno055.c ****  *
 221:Core/Src/bno055.c ****  */
 222:Core/Src/bno055.c **** BNO055_RETURN_FUNCTION_TYPE bno055_read_register(u8 addr_u8, u8 *data_u8, u8 len_u8)
 223:Core/Src/bno055.c **** {
 319              		.loc 1 223 1 is_stmt 1 view -0
 320              		.cfi_startproc
 321              		@ args = 0, pretend = 0, frame = 0
 322              		@ frame_needed = 0, uses_anonymous_args = 0
 323              		.loc 1 223 1 is_stmt 0 view .LVU94
 324 0000 38B5     		push	{r3, r4, r5, lr}
 325              		.cfi_def_cfa_offset 16
 326              		.cfi_offset 3, -16
 327              		.cfi_offset 4, -12
 328              		.cfi_offset 5, -8
 329              		.cfi_offset 14, -4
 330 0002 1346     		mov	r3, r2
 224:Core/Src/bno055.c ****     /* Variable used to return value of
 225:Core/Src/bno055.c ****      * communication routine*/
 226:Core/Src/bno055.c ****     BNO055_RETURN_FUNCTION_TYPE com_rslt = BNO055_ERROR;
 331              		.loc 1 226 5 is_stmt 1 view .LVU95
 332              	.LVL33:
 227:Core/Src/bno055.c **** 
 228:Core/Src/bno055.c ****     /* Check the struct p_bno055 is empty */
 229:Core/Src/bno055.c ****     if (p_bno055 == NULL)
 333              		.loc 1 229 5 view .LVU96
 334              		.loc 1 229 18 is_stmt 0 view .LVU97
 335 0004 054A     		ldr	r2, .L15
 336              	.LVL34:
 337              		.loc 1 229 18 view .LVU98
 338 0006 1468     		ldr	r4, [r2]
 339              		.loc 1 229 8 view .LVU99
 340 0008 2CB1     		cbz	r4, .L13
 230:Core/Src/bno055.c ****     {
 231:Core/Src/bno055.c ****         return BNO055_E_NULL_PTR;
ARM GAS  /tmp/ccOloYeZ.s 			page 11


 232:Core/Src/bno055.c ****     }
 233:Core/Src/bno055.c ****     else
 234:Core/Src/bno055.c ****     {
 235:Core/Src/bno055.c ****         /* Read the value from given register*/
 236:Core/Src/bno055.c ****         com_rslt = p_bno055->BNO055_BUS_READ_FUNC(p_bno055->dev_addr, addr_u8, data_u8, len_u8);
 341              		.loc 1 236 9 is_stmt 1 view .LVU100
 342              		.loc 1 236 28 is_stmt 0 view .LVU101
 343 000a 2569     		ldr	r5, [r4, #16]
 344              		.loc 1 236 20 view .LVU102
 345 000c 0A46     		mov	r2, r1
 346 000e 0146     		mov	r1, r0
 347              	.LVL35:
 348              		.loc 1 236 20 view .LVU103
 349 0010 607A     		ldrb	r0, [r4, #9]	@ zero_extendqisi2
 350              	.LVL36:
 351              		.loc 1 236 20 view .LVU104
 352 0012 A847     		blx	r5
 353              	.LVL37:
 237:Core/Src/bno055.c ****     }
 238:Core/Src/bno055.c **** 
 239:Core/Src/bno055.c ****     return com_rslt;
 354              		.loc 1 239 5 is_stmt 1 view .LVU105
 355              	.L12:
 240:Core/Src/bno055.c **** }
 356              		.loc 1 240 1 is_stmt 0 view .LVU106
 357 0014 38BD     		pop	{r3, r4, r5, pc}
 358              	.LVL38:
 359              	.L13:
 231:Core/Src/bno055.c ****     }
 360              		.loc 1 231 16 view .LVU107
 361 0016 6FF07E00 		mvn	r0, #126
 362              	.LVL39:
 231:Core/Src/bno055.c ****     }
 363              		.loc 1 231 16 view .LVU108
 364 001a FBE7     		b	.L12
 365              	.L16:
 366              		.align	2
 367              	.L15:
 368 001c 00000000 		.word	p_bno055
 369              		.cfi_endproc
 370              	.LFE2:
 372              		.section	.text.bno055_read_page_id,"ax",%progbits
 373              		.align	1
 374              		.global	bno055_read_page_id
 375              		.syntax unified
 376              		.thumb
 377              		.thumb_func
 379              	bno055_read_page_id:
 380              	.LVL40:
 381              	.LFB5:
 241:Core/Src/bno055.c **** 
 242:Core/Src/bno055.c **** /*!
 243:Core/Src/bno055.c ****  *  @brief This API reads chip id
 244:Core/Src/bno055.c ****  *  from register 0x00 it is a byte of data
 245:Core/Src/bno055.c ****  *
 246:Core/Src/bno055.c ****  *
 247:Core/Src/bno055.c ****  *  @param chip_id_u8 : The chip id value 0xA0
ARM GAS  /tmp/ccOloYeZ.s 			page 12


 248:Core/Src/bno055.c ****  *
 249:Core/Src/bno055.c ****  *  @return results of bus communication function
 250:Core/Src/bno055.c ****  *  @retval 0 -> BNO055_SUCCESS
 251:Core/Src/bno055.c ****  *  @retval 1 -> BNO055_ERROR
 252:Core/Src/bno055.c ****  */
 253:Core/Src/bno055.c **** BNO055_RETURN_FUNCTION_TYPE bno055_read_chip_id(u8 *chip_id_u8)
 254:Core/Src/bno055.c **** {
 255:Core/Src/bno055.c ****     /* Variable used to return value of
 256:Core/Src/bno055.c ****      * communication routine*/
 257:Core/Src/bno055.c ****     BNO055_RETURN_FUNCTION_TYPE com_rslt = BNO055_ERROR;
 258:Core/Src/bno055.c ****     u8 data_u8 = BNO055_INIT_VALUE;
 259:Core/Src/bno055.c ****     s8 stat_s8 = BNO055_ERROR;
 260:Core/Src/bno055.c **** 
 261:Core/Src/bno055.c ****     /* Check the struct p_bno055 is empty */
 262:Core/Src/bno055.c ****     if (p_bno055 == NULL)
 263:Core/Src/bno055.c ****     {
 264:Core/Src/bno055.c ****         return BNO055_E_NULL_PTR;
 265:Core/Src/bno055.c ****     }
 266:Core/Src/bno055.c ****     else
 267:Core/Src/bno055.c ****     {
 268:Core/Src/bno055.c ****         /*condition check for page, chip id is
 269:Core/Src/bno055.c ****          * available in the page zero*/
 270:Core/Src/bno055.c ****         if (p_bno055->page_id != BNO055_PAGE_ZERO)
 271:Core/Src/bno055.c ****         {
 272:Core/Src/bno055.c ****             /* Write the page zero*/
 273:Core/Src/bno055.c ****             stat_s8 = bno055_write_page_id(BNO055_PAGE_ZERO);
 274:Core/Src/bno055.c ****         }
 275:Core/Src/bno055.c ****         if ((stat_s8 == BNO055_SUCCESS) || (p_bno055->page_id == BNO055_PAGE_ZERO))
 276:Core/Src/bno055.c ****         {
 277:Core/Src/bno055.c ****             /* Read the chip id*/
 278:Core/Src/bno055.c ****             com_rslt = p_bno055->BNO055_BUS_READ_FUNC(p_bno055->dev_addr,
 279:Core/Src/bno055.c ****                                                       BNO055_CHIP_ID_REG,
 280:Core/Src/bno055.c ****                                                       &data_u8,
 281:Core/Src/bno055.c ****                                                       BNO055_GEN_READ_WRITE_LENGTH);
 282:Core/Src/bno055.c ****             *chip_id_u8 = data_u8;
 283:Core/Src/bno055.c ****         }
 284:Core/Src/bno055.c ****         else
 285:Core/Src/bno055.c ****         {
 286:Core/Src/bno055.c ****             com_rslt = BNO055_ERROR;
 287:Core/Src/bno055.c ****         }
 288:Core/Src/bno055.c ****     }
 289:Core/Src/bno055.c **** 
 290:Core/Src/bno055.c ****     return com_rslt;
 291:Core/Src/bno055.c **** }
 292:Core/Src/bno055.c **** 
 293:Core/Src/bno055.c **** /*!
 294:Core/Src/bno055.c ****  *  @brief This API reads software revision id
 295:Core/Src/bno055.c ****  *  from register 0x04 and 0x05 it is a two byte of data
 296:Core/Src/bno055.c ****  *
 297:Core/Src/bno055.c ****  *  @param sw_id_u8 : The SW revision id
 298:Core/Src/bno055.c ****  *
 299:Core/Src/bno055.c ****  *  @return results of bus communication function
 300:Core/Src/bno055.c ****  *  @retval 0 -> BNO055_SUCCESS
 301:Core/Src/bno055.c ****  *  @retval 1 -> BNO055_ERROR
 302:Core/Src/bno055.c ****  *
 303:Core/Src/bno055.c ****  *
 304:Core/Src/bno055.c ****  */
ARM GAS  /tmp/ccOloYeZ.s 			page 13


 305:Core/Src/bno055.c **** BNO055_RETURN_FUNCTION_TYPE bno055_read_sw_rev_id(u16 *sw_id_u8)
 306:Core/Src/bno055.c **** {
 307:Core/Src/bno055.c ****     /* Variable used to return value of
 308:Core/Src/bno055.c ****      * communication routine*/
 309:Core/Src/bno055.c ****     BNO055_RETURN_FUNCTION_TYPE com_rslt = BNO055_ERROR;
 310:Core/Src/bno055.c **** 
 311:Core/Src/bno055.c ****     /* array having the software revision id
 312:Core/Src/bno055.c ****      * data_u8[0] - LSB
 313:Core/Src/bno055.c ****      * data_u8[1] - MSB*/
 314:Core/Src/bno055.c ****     u8 data_u8[BNO055_REV_ID_SIZE] = { BNO055_INIT_VALUE, BNO055_INIT_VALUE };
 315:Core/Src/bno055.c ****     s8 stat_s8 = BNO055_ERROR;
 316:Core/Src/bno055.c **** 
 317:Core/Src/bno055.c ****     /* Check the struct  p_bno055 is empty*/
 318:Core/Src/bno055.c ****     if (p_bno055 == NULL)
 319:Core/Src/bno055.c ****     {
 320:Core/Src/bno055.c ****         return BNO055_E_NULL_PTR;
 321:Core/Src/bno055.c ****     }
 322:Core/Src/bno055.c ****     else
 323:Core/Src/bno055.c ****     {
 324:Core/Src/bno055.c ****         /*condition check for page, chip id is
 325:Core/Src/bno055.c ****          * available in the page zero*/
 326:Core/Src/bno055.c ****         if (p_bno055->page_id != BNO055_PAGE_ZERO)
 327:Core/Src/bno055.c ****         {
 328:Core/Src/bno055.c ****             /* Write the page zero*/
 329:Core/Src/bno055.c ****             stat_s8 = bno055_write_page_id(BNO055_PAGE_ZERO);
 330:Core/Src/bno055.c ****         }
 331:Core/Src/bno055.c ****         if ((stat_s8 == BNO055_SUCCESS) || (p_bno055->page_id == BNO055_PAGE_ZERO))
 332:Core/Src/bno055.c ****         {
 333:Core/Src/bno055.c ****             /* Read the two byte value of software
 334:Core/Src/bno055.c ****              * revision id*/
 335:Core/Src/bno055.c ****             com_rslt = p_bno055->BNO055_BUS_READ_FUNC(p_bno055->dev_addr,
 336:Core/Src/bno055.c ****                                                       BNO055_SW_REV_ID_LSB_REG,
 337:Core/Src/bno055.c ****                                                       data_u8,
 338:Core/Src/bno055.c ****                                                       BNO055_LSB_MSB_READ_LENGTH);
 339:Core/Src/bno055.c ****             data_u8[BNO055_SW_ID_LSB] = BNO055_GET_BITSLICE(data_u8[BNO055_SW_ID_LSB], BNO055_SW_RE
 340:Core/Src/bno055.c ****             *sw_id_u8 =
 341:Core/Src/bno055.c ****                 (u16)((((u32)((u8)data_u8[BNO055_SW_ID_MSB])) << BNO055_SHIFT_EIGHT_BITS) |
 342:Core/Src/bno055.c ****                       (data_u8[BNO055_SW_ID_LSB]));
 343:Core/Src/bno055.c ****         }
 344:Core/Src/bno055.c ****         else
 345:Core/Src/bno055.c ****         {
 346:Core/Src/bno055.c ****             com_rslt = BNO055_ERROR;
 347:Core/Src/bno055.c ****         }
 348:Core/Src/bno055.c ****     }
 349:Core/Src/bno055.c **** 
 350:Core/Src/bno055.c ****     return com_rslt;
 351:Core/Src/bno055.c **** }
 352:Core/Src/bno055.c **** 
 353:Core/Src/bno055.c **** /*!
 354:Core/Src/bno055.c ****  *  @brief This API reads page id
 355:Core/Src/bno055.c ****  *  from register 0x07 it is a byte of data
 356:Core/Src/bno055.c ****  *
 357:Core/Src/bno055.c ****  *
 358:Core/Src/bno055.c ****  *  @param page_id_u8 : The value of page id
 359:Core/Src/bno055.c ****  *
 360:Core/Src/bno055.c ****  *  BNO055_PAGE_ZERO -> 0x00
 361:Core/Src/bno055.c ****  *  BNO055_PAGE_ONE  -> 0x01
ARM GAS  /tmp/ccOloYeZ.s 			page 14


 362:Core/Src/bno055.c ****  *
 363:Core/Src/bno055.c ****  *  @return results of bus communication function
 364:Core/Src/bno055.c ****  *  @retval 0 -> BNO055_SUCCESS
 365:Core/Src/bno055.c ****  *  @retval 1 -> BNO055_ERROR
 366:Core/Src/bno055.c ****  *
 367:Core/Src/bno055.c ****  *
 368:Core/Src/bno055.c ****  */
 369:Core/Src/bno055.c **** BNO055_RETURN_FUNCTION_TYPE bno055_read_page_id(u8 *page_id_u8)
 370:Core/Src/bno055.c **** {
 382              		.loc 1 370 1 is_stmt 1 view -0
 383              		.cfi_startproc
 384              		@ args = 0, pretend = 0, frame = 8
 385              		@ frame_needed = 0, uses_anonymous_args = 0
 386              		.loc 1 370 1 is_stmt 0 view .LVU110
 387 0000 70B5     		push	{r4, r5, r6, lr}
 388              		.cfi_def_cfa_offset 16
 389              		.cfi_offset 4, -16
 390              		.cfi_offset 5, -12
 391              		.cfi_offset 6, -8
 392              		.cfi_offset 14, -4
 393 0002 82B0     		sub	sp, sp, #8
 394              		.cfi_def_cfa_offset 24
 371:Core/Src/bno055.c ****     /* Variable used to return value of
 372:Core/Src/bno055.c ****      * communication routine*/
 373:Core/Src/bno055.c ****     BNO055_RETURN_FUNCTION_TYPE com_rslt = BNO055_ERROR;
 395              		.loc 1 373 5 is_stmt 1 view .LVU111
 396              	.LVL41:
 374:Core/Src/bno055.c ****     u8 data_u8 = BNO055_INIT_VALUE;
 397              		.loc 1 374 5 view .LVU112
 398              		.loc 1 374 8 is_stmt 0 view .LVU113
 399 0004 0023     		movs	r3, #0
 400 0006 8DF80730 		strb	r3, [sp, #7]
 375:Core/Src/bno055.c **** 
 376:Core/Src/bno055.c ****     /* Check the struct p_bno055 is empty */
 377:Core/Src/bno055.c ****     if (p_bno055 == NULL)
 401              		.loc 1 377 5 is_stmt 1 view .LVU114
 402              		.loc 1 377 18 is_stmt 0 view .LVU115
 403 000a 0D4B     		ldr	r3, .L22
 404 000c 1C68     		ldr	r4, [r3]
 405              		.loc 1 377 8 view .LVU116
 406 000e 84B1     		cbz	r4, .L19
 407 0010 0546     		mov	r5, r0
 378:Core/Src/bno055.c ****     {
 379:Core/Src/bno055.c ****         return BNO055_E_NULL_PTR;
 380:Core/Src/bno055.c ****     }
 381:Core/Src/bno055.c ****     else
 382:Core/Src/bno055.c ****     {
 383:Core/Src/bno055.c ****         /* Read the page id form 0x07*/
 384:Core/Src/bno055.c ****         com_rslt = p_bno055->BNO055_BUS_READ_FUNC(p_bno055->dev_addr,
 408              		.loc 1 384 9 is_stmt 1 view .LVU117
 409              		.loc 1 384 28 is_stmt 0 view .LVU118
 410 0012 2669     		ldr	r6, [r4, #16]
 411              		.loc 1 384 20 view .LVU119
 412 0014 0123     		movs	r3, #1
 413 0016 0DF10702 		add	r2, sp, #7
 414 001a 0721     		movs	r1, #7
 415 001c 607A     		ldrb	r0, [r4, #9]	@ zero_extendqisi2
ARM GAS  /tmp/ccOloYeZ.s 			page 15


 416              	.LVL42:
 417              		.loc 1 384 20 view .LVU120
 418 001e B047     		blx	r6
 419              	.LVL43:
 385:Core/Src/bno055.c ****                                                   BNO055_PAGE_ID_REG,
 386:Core/Src/bno055.c ****                                                   &data_u8,
 387:Core/Src/bno055.c ****                                                   BNO055_GEN_READ_WRITE_LENGTH);
 388:Core/Src/bno055.c ****         if (com_rslt == BNO055_SUCCESS)
 420              		.loc 1 388 9 is_stmt 1 view .LVU121
 421              		.loc 1 388 12 is_stmt 0 view .LVU122
 422 0020 50B9     		cbnz	r0, .L20
 389:Core/Src/bno055.c ****         {
 390:Core/Src/bno055.c ****             data_u8 = BNO055_GET_BITSLICE(data_u8, BNO055_PAGE_ID);
 423              		.loc 1 390 13 is_stmt 1 view .LVU123
 424              		.loc 1 390 21 is_stmt 0 view .LVU124
 425 0022 9DF80730 		ldrb	r3, [sp, #7]	@ zero_extendqisi2
 391:Core/Src/bno055.c ****             *page_id_u8 = data_u8;
 426              		.loc 1 391 13 is_stmt 1 view .LVU125
 427              		.loc 1 391 25 is_stmt 0 view .LVU126
 428 0026 2B70     		strb	r3, [r5]
 392:Core/Src/bno055.c ****             p_bno055->page_id = data_u8;
 429              		.loc 1 392 13 is_stmt 1 view .LVU127
 430              		.loc 1 392 21 is_stmt 0 view .LVU128
 431 0028 054A     		ldr	r2, .L22
 432 002a 1268     		ldr	r2, [r2]
 433              		.loc 1 392 31 view .LVU129
 434 002c 1371     		strb	r3, [r2, #4]
 435              	.LVL44:
 436              	.L18:
 393:Core/Src/bno055.c ****         }
 394:Core/Src/bno055.c ****         else
 395:Core/Src/bno055.c ****         {
 396:Core/Src/bno055.c ****             com_rslt = BNO055_ERROR;
 397:Core/Src/bno055.c ****         }
 398:Core/Src/bno055.c ****     }
 399:Core/Src/bno055.c **** 
 400:Core/Src/bno055.c ****     return com_rslt;
 401:Core/Src/bno055.c **** }
 437              		.loc 1 401 1 view .LVU130
 438 002e 02B0     		add	sp, sp, #8
 439              		.cfi_remember_state
 440              		.cfi_def_cfa_offset 16
 441              		@ sp needed
 442 0030 70BD     		pop	{r4, r5, r6, pc}
 443              	.LVL45:
 444              	.L19:
 445              		.cfi_restore_state
 379:Core/Src/bno055.c ****     }
 446              		.loc 1 379 16 view .LVU131
 447 0032 6FF07E00 		mvn	r0, #126
 448              	.LVL46:
 379:Core/Src/bno055.c ****     }
 449              		.loc 1 379 16 view .LVU132
 450 0036 FAE7     		b	.L18
 451              	.LVL47:
 452              	.L20:
 396:Core/Src/bno055.c ****         }
ARM GAS  /tmp/ccOloYeZ.s 			page 16


 453              		.loc 1 396 22 view .LVU133
 454 0038 4FF0FF30 		mov	r0, #-1
 455              	.LVL48:
 396:Core/Src/bno055.c ****         }
 456              		.loc 1 396 22 view .LVU134
 457 003c F7E7     		b	.L18
 458              	.L23:
 459 003e 00BF     		.align	2
 460              	.L22:
 461 0040 00000000 		.word	p_bno055
 462              		.cfi_endproc
 463              	.LFE5:
 465              		.section	.text.bno055_write_page_id,"ax",%progbits
 466              		.align	1
 467              		.global	bno055_write_page_id
 468              		.syntax unified
 469              		.thumb
 470              		.thumb_func
 472              	bno055_write_page_id:
 473              	.LVL49:
 474              	.LFB6:
 402:Core/Src/bno055.c **** 
 403:Core/Src/bno055.c **** /*!
 404:Core/Src/bno055.c ****  *  @brief This API used to write
 405:Core/Src/bno055.c ****  *  the page id register 0x07
 406:Core/Src/bno055.c ****  *
 407:Core/Src/bno055.c ****  *  @param page_id_u8 : The value of page id
 408:Core/Src/bno055.c ****  *
 409:Core/Src/bno055.c ****  *  BNO055_PAGE_ZERO -> 0x00
 410:Core/Src/bno055.c ****  *  BNO055_PAGE_ONE  -> 0x01
 411:Core/Src/bno055.c ****  *
 412:Core/Src/bno055.c ****  *  @return results of bus communication function
 413:Core/Src/bno055.c ****  *  @retval 0 -> BNO055_SUCCESS
 414:Core/Src/bno055.c ****  *  @retval 1 -> BNO055_ERROR
 415:Core/Src/bno055.c ****  *
 416:Core/Src/bno055.c ****  *
 417:Core/Src/bno055.c ****  */
 418:Core/Src/bno055.c **** BNO055_RETURN_FUNCTION_TYPE bno055_write_page_id(u8 page_id_u8)
 419:Core/Src/bno055.c **** {
 475              		.loc 1 419 1 is_stmt 1 view -0
 476              		.cfi_startproc
 477              		@ args = 0, pretend = 0, frame = 8
 478              		@ frame_needed = 0, uses_anonymous_args = 0
 479              		.loc 1 419 1 is_stmt 0 view .LVU136
 480 0000 70B5     		push	{r4, r5, r6, lr}
 481              		.cfi_def_cfa_offset 16
 482              		.cfi_offset 4, -16
 483              		.cfi_offset 5, -12
 484              		.cfi_offset 6, -8
 485              		.cfi_offset 14, -4
 486 0002 82B0     		sub	sp, sp, #8
 487              		.cfi_def_cfa_offset 24
 488 0004 0446     		mov	r4, r0
 420:Core/Src/bno055.c ****     /* Variable used to return value of
 421:Core/Src/bno055.c ****      * communication routine*/
 422:Core/Src/bno055.c ****     BNO055_RETURN_FUNCTION_TYPE com_rslt = BNO055_ERROR;
 489              		.loc 1 422 5 is_stmt 1 view .LVU137
ARM GAS  /tmp/ccOloYeZ.s 			page 17


 490              	.LVL50:
 423:Core/Src/bno055.c ****     u8 data_u8r = BNO055_INIT_VALUE;
 491              		.loc 1 423 5 view .LVU138
 492              		.loc 1 423 8 is_stmt 0 view .LVU139
 493 0006 0023     		movs	r3, #0
 494 0008 8DF80730 		strb	r3, [sp, #7]
 424:Core/Src/bno055.c **** 
 425:Core/Src/bno055.c ****     /* Check the struct p_bno055 is empty */
 426:Core/Src/bno055.c ****     if (p_bno055 == NULL)
 495              		.loc 1 426 5 is_stmt 1 view .LVU140
 496              		.loc 1 426 18 is_stmt 0 view .LVU141
 497 000c 124B     		ldr	r3, .L29
 498 000e 1868     		ldr	r0, [r3]
 499              	.LVL51:
 500              		.loc 1 426 8 view .LVU142
 501 0010 E0B1     		cbz	r0, .L26
 427:Core/Src/bno055.c ****     {
 428:Core/Src/bno055.c ****         return BNO055_E_NULL_PTR;
 429:Core/Src/bno055.c ****     }
 430:Core/Src/bno055.c ****     else
 431:Core/Src/bno055.c ****     {
 432:Core/Src/bno055.c ****         /* Read the current page*/
 433:Core/Src/bno055.c ****         com_rslt = p_bno055->BNO055_BUS_READ_FUNC(p_bno055->dev_addr,
 502              		.loc 1 433 9 is_stmt 1 view .LVU143
 503              		.loc 1 433 28 is_stmt 0 view .LVU144
 504 0012 0569     		ldr	r5, [r0, #16]
 505              		.loc 1 433 20 view .LVU145
 506 0014 0123     		movs	r3, #1
 507 0016 0DF10702 		add	r2, sp, #7
 508 001a 0721     		movs	r1, #7
 509 001c 407A     		ldrb	r0, [r0, #9]	@ zero_extendqisi2
 510 001e A847     		blx	r5
 511              	.LVL52:
 434:Core/Src/bno055.c ****                                                   BNO055_PAGE_ID_REG,
 435:Core/Src/bno055.c ****                                                   &data_u8r,
 436:Core/Src/bno055.c ****                                                   BNO055_GEN_READ_WRITE_LENGTH);
 437:Core/Src/bno055.c **** 
 438:Core/Src/bno055.c ****         /* Check condition for communication BNO055_SUCCESS*/
 439:Core/Src/bno055.c ****         if (com_rslt == BNO055_SUCCESS)
 512              		.loc 1 439 9 is_stmt 1 view .LVU146
 513              		.loc 1 439 12 is_stmt 0 view .LVU147
 514 0020 0546     		mov	r5, r0
 515 0022 B0B9     		cbnz	r0, .L27
 440:Core/Src/bno055.c ****         {
 441:Core/Src/bno055.c ****             data_u8r = BNO055_SET_BITSLICE(data_u8r, BNO055_PAGE_ID, page_id_u8);
 516              		.loc 1 441 13 is_stmt 1 view .LVU148
 517              		.loc 1 441 22 is_stmt 0 view .LVU149
 518 0024 8DF80740 		strb	r4, [sp, #7]
 442:Core/Src/bno055.c **** 
 443:Core/Src/bno055.c ****             /* Write the page id*/
 444:Core/Src/bno055.c ****             com_rslt += p_bno055->BNO055_BUS_WRITE_FUNC(p_bno055->dev_addr,
 519              		.loc 1 444 13 is_stmt 1 view .LVU150
 520              		.loc 1 444 33 is_stmt 0 view .LVU151
 521 0028 0B4B     		ldr	r3, .L29
 522 002a 1868     		ldr	r0, [r3]
 523              	.LVL53:
 524              		.loc 1 444 33 view .LVU152
ARM GAS  /tmp/ccOloYeZ.s 			page 18


 525 002c C668     		ldr	r6, [r0, #12]
 526              		.loc 1 444 25 view .LVU153
 527 002e 0123     		movs	r3, #1
 528 0030 0DF10702 		add	r2, sp, #7
 529 0034 0721     		movs	r1, #7
 530 0036 407A     		ldrb	r0, [r0, #9]	@ zero_extendqisi2
 531 0038 B047     		blx	r6
 532              	.LVL54:
 533              		.loc 1 444 22 view .LVU154
 534 003a 55FA80F3 		uxtab	r3, r5, r0
 535 003e 58B2     		sxtb	r0, r3
 536              	.LVL55:
 445:Core/Src/bno055.c ****                                                         BNO055_PAGE_ID_REG,
 446:Core/Src/bno055.c ****                                                         &data_u8r,
 447:Core/Src/bno055.c ****                                                         BNO055_GEN_READ_WRITE_LENGTH);
 448:Core/Src/bno055.c ****             if (com_rslt == BNO055_SUCCESS)
 537              		.loc 1 448 13 is_stmt 1 view .LVU155
 538              		.loc 1 448 16 is_stmt 0 view .LVU156
 539 0040 10B9     		cbnz	r0, .L25
 449:Core/Src/bno055.c ****             {
 450:Core/Src/bno055.c ****                 p_bno055->page_id = page_id_u8;
 540              		.loc 1 450 17 is_stmt 1 view .LVU157
 541              		.loc 1 450 25 is_stmt 0 view .LVU158
 542 0042 054B     		ldr	r3, .L29
 543 0044 1B68     		ldr	r3, [r3]
 544              		.loc 1 450 35 view .LVU159
 545 0046 1C71     		strb	r4, [r3, #4]
 546              	.LVL56:
 547              	.L25:
 451:Core/Src/bno055.c ****             }
 452:Core/Src/bno055.c ****         }
 453:Core/Src/bno055.c ****         else
 454:Core/Src/bno055.c ****         {
 455:Core/Src/bno055.c ****             com_rslt = BNO055_ERROR;
 456:Core/Src/bno055.c ****         }
 457:Core/Src/bno055.c ****     }
 458:Core/Src/bno055.c **** 
 459:Core/Src/bno055.c ****     return com_rslt;
 460:Core/Src/bno055.c **** }
 548              		.loc 1 460 1 view .LVU160
 549 0048 02B0     		add	sp, sp, #8
 550              		.cfi_remember_state
 551              		.cfi_def_cfa_offset 16
 552              		@ sp needed
 553 004a 70BD     		pop	{r4, r5, r6, pc}
 554              	.LVL57:
 555              	.L26:
 556              		.cfi_restore_state
 428:Core/Src/bno055.c ****     }
 557              		.loc 1 428 16 view .LVU161
 558 004c 6FF07E00 		mvn	r0, #126
 559 0050 FAE7     		b	.L25
 560              	.LVL58:
 561              	.L27:
 455:Core/Src/bno055.c ****         }
 562              		.loc 1 455 22 view .LVU162
 563 0052 4FF0FF30 		mov	r0, #-1
ARM GAS  /tmp/ccOloYeZ.s 			page 19


 564              	.LVL59:
 455:Core/Src/bno055.c ****         }
 565              		.loc 1 455 22 view .LVU163
 566 0056 F7E7     		b	.L25
 567              	.L30:
 568              		.align	2
 569              	.L29:
 570 0058 00000000 		.word	p_bno055
 571              		.cfi_endproc
 572              	.LFE6:
 574              		.section	.text.bno055_read_chip_id,"ax",%progbits
 575              		.align	1
 576              		.global	bno055_read_chip_id
 577              		.syntax unified
 578              		.thumb
 579              		.thumb_func
 581              	bno055_read_chip_id:
 582              	.LVL60:
 583              	.LFB3:
 254:Core/Src/bno055.c ****     /* Variable used to return value of
 584              		.loc 1 254 1 is_stmt 1 view -0
 585              		.cfi_startproc
 586              		@ args = 0, pretend = 0, frame = 8
 587              		@ frame_needed = 0, uses_anonymous_args = 0
 254:Core/Src/bno055.c ****     /* Variable used to return value of
 588              		.loc 1 254 1 is_stmt 0 view .LVU165
 589 0000 70B5     		push	{r4, r5, r6, lr}
 590              		.cfi_def_cfa_offset 16
 591              		.cfi_offset 4, -16
 592              		.cfi_offset 5, -12
 593              		.cfi_offset 6, -8
 594              		.cfi_offset 14, -4
 595 0002 82B0     		sub	sp, sp, #8
 596              		.cfi_def_cfa_offset 24
 257:Core/Src/bno055.c ****     u8 data_u8 = BNO055_INIT_VALUE;
 597              		.loc 1 257 5 is_stmt 1 view .LVU166
 598              	.LVL61:
 258:Core/Src/bno055.c ****     s8 stat_s8 = BNO055_ERROR;
 599              		.loc 1 258 5 view .LVU167
 258:Core/Src/bno055.c ****     s8 stat_s8 = BNO055_ERROR;
 600              		.loc 1 258 8 is_stmt 0 view .LVU168
 601 0004 0023     		movs	r3, #0
 602 0006 8DF80730 		strb	r3, [sp, #7]
 259:Core/Src/bno055.c **** 
 603              		.loc 1 259 5 is_stmt 1 view .LVU169
 604              	.LVL62:
 262:Core/Src/bno055.c ****     {
 605              		.loc 1 262 5 view .LVU170
 262:Core/Src/bno055.c ****     {
 606              		.loc 1 262 18 is_stmt 0 view .LVU171
 607 000a 124B     		ldr	r3, .L39
 608 000c 1B68     		ldr	r3, [r3]
 262:Core/Src/bno055.c ****     {
 609              		.loc 1 262 8 view .LVU172
 610 000e D3B1     		cbz	r3, .L35
 611 0010 0546     		mov	r5, r0
 270:Core/Src/bno055.c ****         {
ARM GAS  /tmp/ccOloYeZ.s 			page 20


 612              		.loc 1 270 9 is_stmt 1 view .LVU173
 270:Core/Src/bno055.c ****         {
 613              		.loc 1 270 21 is_stmt 0 view .LVU174
 614 0012 1B79     		ldrb	r3, [r3, #4]	@ zero_extendqisi2
 270:Core/Src/bno055.c ****         {
 615              		.loc 1 270 12 view .LVU175
 616 0014 8BB9     		cbnz	r3, .L38
 617              	.LVL63:
 618              	.L33:
 275:Core/Src/bno055.c ****         {
 619              		.loc 1 275 53 discriminator 1 view .LVU176
 620 0016 0F4B     		ldr	r3, .L39
 621 0018 1B68     		ldr	r3, [r3]
 622 001a 1B79     		ldrb	r3, [r3, #4]	@ zero_extendqisi2
 275:Core/Src/bno055.c ****         {
 623              		.loc 1 275 41 discriminator 1 view .LVU177
 624 001c B3B9     		cbnz	r3, .L36
 625              	.L34:
 278:Core/Src/bno055.c ****                                                       BNO055_CHIP_ID_REG,
 626              		.loc 1 278 13 is_stmt 1 view .LVU178
 278:Core/Src/bno055.c ****                                                       BNO055_CHIP_ID_REG,
 627              		.loc 1 278 32 is_stmt 0 view .LVU179
 628 001e 0D4B     		ldr	r3, .L39
 629 0020 1C68     		ldr	r4, [r3]
 630 0022 2669     		ldr	r6, [r4, #16]
 278:Core/Src/bno055.c ****                                                       BNO055_CHIP_ID_REG,
 631              		.loc 1 278 24 view .LVU180
 632 0024 0123     		movs	r3, #1
 633 0026 0DF10702 		add	r2, sp, #7
 634 002a 0021     		movs	r1, #0
 635 002c 607A     		ldrb	r0, [r4, #9]	@ zero_extendqisi2
 636 002e B047     		blx	r6
 637              	.LVL64:
 282:Core/Src/bno055.c ****         }
 638              		.loc 1 282 13 is_stmt 1 view .LVU181
 282:Core/Src/bno055.c ****         }
 639              		.loc 1 282 25 is_stmt 0 view .LVU182
 640 0030 9DF80730 		ldrb	r3, [sp, #7]	@ zero_extendqisi2
 641 0034 2B70     		strb	r3, [r5]
 642              	.LVL65:
 643              	.L32:
 291:Core/Src/bno055.c **** 
 644              		.loc 1 291 1 view .LVU183
 645 0036 02B0     		add	sp, sp, #8
 646              		.cfi_remember_state
 647              		.cfi_def_cfa_offset 16
 648              		@ sp needed
 649 0038 70BD     		pop	{r4, r5, r6, pc}
 650              	.LVL66:
 651              	.L38:
 652              		.cfi_restore_state
 273:Core/Src/bno055.c ****         }
 653              		.loc 1 273 13 is_stmt 1 view .LVU184
 273:Core/Src/bno055.c ****         }
 654              		.loc 1 273 23 is_stmt 0 view .LVU185
 655 003a 0020     		movs	r0, #0
 656              	.LVL67:
ARM GAS  /tmp/ccOloYeZ.s 			page 21


 273:Core/Src/bno055.c ****         }
 657              		.loc 1 273 23 view .LVU186
 658 003c FFF7FEFF 		bl	bno055_write_page_id
 659              	.LVL68:
 275:Core/Src/bno055.c ****         {
 660              		.loc 1 275 9 is_stmt 1 view .LVU187
 275:Core/Src/bno055.c ****         {
 661              		.loc 1 275 12 is_stmt 0 view .LVU188
 662 0040 0028     		cmp	r0, #0
 663 0042 ECD0     		beq	.L34
 664 0044 E7E7     		b	.L33
 665              	.LVL69:
 666              	.L35:
 264:Core/Src/bno055.c ****     }
 667              		.loc 1 264 16 view .LVU189
 668 0046 6FF07E00 		mvn	r0, #126
 669              	.LVL70:
 264:Core/Src/bno055.c ****     }
 670              		.loc 1 264 16 view .LVU190
 671 004a F4E7     		b	.L32
 672              	.LVL71:
 673              	.L36:
 286:Core/Src/bno055.c ****         }
 674              		.loc 1 286 22 view .LVU191
 675 004c 4FF0FF30 		mov	r0, #-1
 676 0050 F1E7     		b	.L32
 677              	.L40:
 678 0052 00BF     		.align	2
 679              	.L39:
 680 0054 00000000 		.word	p_bno055
 681              		.cfi_endproc
 682              	.LFE3:
 684              		.section	.text.bno055_read_sw_rev_id,"ax",%progbits
 685              		.align	1
 686              		.global	bno055_read_sw_rev_id
 687              		.syntax unified
 688              		.thumb
 689              		.thumb_func
 691              	bno055_read_sw_rev_id:
 692              	.LVL72:
 693              	.LFB4:
 306:Core/Src/bno055.c ****     /* Variable used to return value of
 694              		.loc 1 306 1 is_stmt 1 view -0
 695              		.cfi_startproc
 696              		@ args = 0, pretend = 0, frame = 8
 697              		@ frame_needed = 0, uses_anonymous_args = 0
 306:Core/Src/bno055.c ****     /* Variable used to return value of
 698              		.loc 1 306 1 is_stmt 0 view .LVU193
 699 0000 30B5     		push	{r4, r5, lr}
 700              		.cfi_def_cfa_offset 12
 701              		.cfi_offset 4, -12
 702              		.cfi_offset 5, -8
 703              		.cfi_offset 14, -4
 704 0002 83B0     		sub	sp, sp, #12
 705              		.cfi_def_cfa_offset 24
 309:Core/Src/bno055.c **** 
 706              		.loc 1 309 5 is_stmt 1 view .LVU194
ARM GAS  /tmp/ccOloYeZ.s 			page 22


 707              	.LVL73:
 314:Core/Src/bno055.c ****     s8 stat_s8 = BNO055_ERROR;
 708              		.loc 1 314 5 view .LVU195
 314:Core/Src/bno055.c ****     s8 stat_s8 = BNO055_ERROR;
 709              		.loc 1 314 8 is_stmt 0 view .LVU196
 710 0004 0023     		movs	r3, #0
 711 0006 ADF80430 		strh	r3, [sp, #4]	@ movhi
 315:Core/Src/bno055.c **** 
 712              		.loc 1 315 5 is_stmt 1 view .LVU197
 713              	.LVL74:
 318:Core/Src/bno055.c ****     {
 714              		.loc 1 318 5 view .LVU198
 318:Core/Src/bno055.c ****     {
 715              		.loc 1 318 18 is_stmt 0 view .LVU199
 716 000a 134B     		ldr	r3, .L49
 717 000c 1B68     		ldr	r3, [r3]
 318:Core/Src/bno055.c ****     {
 718              		.loc 1 318 8 view .LVU200
 719 000e EBB1     		cbz	r3, .L45
 720 0010 0446     		mov	r4, r0
 326:Core/Src/bno055.c ****         {
 721              		.loc 1 326 9 is_stmt 1 view .LVU201
 326:Core/Src/bno055.c ****         {
 722              		.loc 1 326 21 is_stmt 0 view .LVU202
 723 0012 1B79     		ldrb	r3, [r3, #4]	@ zero_extendqisi2
 326:Core/Src/bno055.c ****         {
 724              		.loc 1 326 12 view .LVU203
 725 0014 A3B9     		cbnz	r3, .L48
 726              	.LVL75:
 727              	.L43:
 331:Core/Src/bno055.c ****         {
 728              		.loc 1 331 53 discriminator 1 view .LVU204
 729 0016 104B     		ldr	r3, .L49
 730 0018 1B68     		ldr	r3, [r3]
 731 001a 1B79     		ldrb	r3, [r3, #4]	@ zero_extendqisi2
 331:Core/Src/bno055.c ****         {
 732              		.loc 1 331 41 discriminator 1 view .LVU205
 733 001c CBB9     		cbnz	r3, .L46
 734              	.L44:
 335:Core/Src/bno055.c ****                                                       BNO055_SW_REV_ID_LSB_REG,
 735              		.loc 1 335 13 is_stmt 1 view .LVU206
 335:Core/Src/bno055.c ****                                                       BNO055_SW_REV_ID_LSB_REG,
 736              		.loc 1 335 32 is_stmt 0 view .LVU207
 737 001e 0E4B     		ldr	r3, .L49
 738 0020 1868     		ldr	r0, [r3]
 739 0022 0569     		ldr	r5, [r0, #16]
 335:Core/Src/bno055.c ****                                                       BNO055_SW_REV_ID_LSB_REG,
 740              		.loc 1 335 24 view .LVU208
 741 0024 0223     		movs	r3, #2
 742 0026 01AA     		add	r2, sp, #4
 743 0028 0421     		movs	r1, #4
 744 002a 407A     		ldrb	r0, [r0, #9]	@ zero_extendqisi2
 745 002c A847     		blx	r5
 746              	.LVL76:
 339:Core/Src/bno055.c ****             *sw_id_u8 =
 747              		.loc 1 339 13 is_stmt 1 view .LVU209
 339:Core/Src/bno055.c ****             *sw_id_u8 =
ARM GAS  /tmp/ccOloYeZ.s 			page 23


 748              		.loc 1 339 41 is_stmt 0 view .LVU210
 749 002e 9DF80430 		ldrb	r3, [sp, #4]	@ zero_extendqisi2
 340:Core/Src/bno055.c ****                 (u16)((((u32)((u8)data_u8[BNO055_SW_ID_MSB])) << BNO055_SHIFT_EIGHT_BITS) |
 750              		.loc 1 340 13 is_stmt 1 view .LVU211
 341:Core/Src/bno055.c ****                       (data_u8[BNO055_SW_ID_LSB]));
 751              		.loc 1 341 42 is_stmt 0 view .LVU212
 752 0032 9DF80520 		ldrb	r2, [sp, #5]	@ zero_extendqisi2
 341:Core/Src/bno055.c ****                       (data_u8[BNO055_SW_ID_LSB]));
 753              		.loc 1 341 17 view .LVU213
 754 0036 43EA0223 		orr	r3, r3, r2, lsl #8
 340:Core/Src/bno055.c ****                 (u16)((((u32)((u8)data_u8[BNO055_SW_ID_MSB])) << BNO055_SHIFT_EIGHT_BITS) |
 755              		.loc 1 340 23 view .LVU214
 756 003a 2380     		strh	r3, [r4]	@ movhi
 757              	.LVL77:
 758              	.L42:
 351:Core/Src/bno055.c **** 
 759              		.loc 1 351 1 view .LVU215
 760 003c 03B0     		add	sp, sp, #12
 761              		.cfi_remember_state
 762              		.cfi_def_cfa_offset 12
 763              		@ sp needed
 764 003e 30BD     		pop	{r4, r5, pc}
 765              	.LVL78:
 766              	.L48:
 767              		.cfi_restore_state
 329:Core/Src/bno055.c ****         }
 768              		.loc 1 329 13 is_stmt 1 view .LVU216
 329:Core/Src/bno055.c ****         }
 769              		.loc 1 329 23 is_stmt 0 view .LVU217
 770 0040 0020     		movs	r0, #0
 771              	.LVL79:
 329:Core/Src/bno055.c ****         }
 772              		.loc 1 329 23 view .LVU218
 773 0042 FFF7FEFF 		bl	bno055_write_page_id
 774              	.LVL80:
 331:Core/Src/bno055.c ****         {
 775              		.loc 1 331 9 is_stmt 1 view .LVU219
 331:Core/Src/bno055.c ****         {
 776              		.loc 1 331 12 is_stmt 0 view .LVU220
 777 0046 0028     		cmp	r0, #0
 778 0048 E9D0     		beq	.L44
 779 004a E4E7     		b	.L43
 780              	.LVL81:
 781              	.L45:
 320:Core/Src/bno055.c ****     }
 782              		.loc 1 320 16 view .LVU221
 783 004c 6FF07E00 		mvn	r0, #126
 784              	.LVL82:
 320:Core/Src/bno055.c ****     }
 785              		.loc 1 320 16 view .LVU222
 786 0050 F4E7     		b	.L42
 787              	.LVL83:
 788              	.L46:
 346:Core/Src/bno055.c ****         }
 789              		.loc 1 346 22 view .LVU223
 790 0052 4FF0FF30 		mov	r0, #-1
 791 0056 F1E7     		b	.L42
ARM GAS  /tmp/ccOloYeZ.s 			page 24


 792              	.L50:
 793              		.align	2
 794              	.L49:
 795 0058 00000000 		.word	p_bno055
 796              		.cfi_endproc
 797              	.LFE4:
 799              		.section	.text.bno055_read_accel_rev_id,"ax",%progbits
 800              		.align	1
 801              		.global	bno055_read_accel_rev_id
 802              		.syntax unified
 803              		.thumb
 804              		.thumb_func
 806              	bno055_read_accel_rev_id:
 807              	.LVL84:
 808              	.LFB7:
 461:Core/Src/bno055.c **** 
 462:Core/Src/bno055.c **** /*!
 463:Core/Src/bno055.c ****  *  @brief This API reads accel revision id
 464:Core/Src/bno055.c ****  *  from register 0x01 it is a byte of value
 465:Core/Src/bno055.c ****  *
 466:Core/Src/bno055.c ****  *  @param accel_rev_id_u8 : The accel revision id 0xFB
 467:Core/Src/bno055.c ****  *
 468:Core/Src/bno055.c ****  *  @return results of bus communication function
 469:Core/Src/bno055.c ****  *  @retval 0 -> BNO055_SUCCESS
 470:Core/Src/bno055.c ****  *  @retval 1 -> BNO055_ERROR
 471:Core/Src/bno055.c ****  *
 472:Core/Src/bno055.c ****  *
 473:Core/Src/bno055.c ****  */
 474:Core/Src/bno055.c **** BNO055_RETURN_FUNCTION_TYPE bno055_read_accel_rev_id(u8 *accel_rev_id_u8)
 475:Core/Src/bno055.c **** {
 809              		.loc 1 475 1 is_stmt 1 view -0
 810              		.cfi_startproc
 811              		@ args = 0, pretend = 0, frame = 8
 812              		@ frame_needed = 0, uses_anonymous_args = 0
 813              		.loc 1 475 1 is_stmt 0 view .LVU225
 814 0000 70B5     		push	{r4, r5, r6, lr}
 815              		.cfi_def_cfa_offset 16
 816              		.cfi_offset 4, -16
 817              		.cfi_offset 5, -12
 818              		.cfi_offset 6, -8
 819              		.cfi_offset 14, -4
 820 0002 82B0     		sub	sp, sp, #8
 821              		.cfi_def_cfa_offset 24
 476:Core/Src/bno055.c ****     /* Variable used to return value of
 477:Core/Src/bno055.c ****      * communication routine*/
 478:Core/Src/bno055.c ****     BNO055_RETURN_FUNCTION_TYPE com_rslt = BNO055_ERROR;
 822              		.loc 1 478 5 is_stmt 1 view .LVU226
 823              	.LVL85:
 479:Core/Src/bno055.c ****     u8 data_u8 = BNO055_INIT_VALUE;
 824              		.loc 1 479 5 view .LVU227
 825              		.loc 1 479 8 is_stmt 0 view .LVU228
 826 0004 0023     		movs	r3, #0
 827 0006 8DF80730 		strb	r3, [sp, #7]
 480:Core/Src/bno055.c ****     s8 stat_s8 = BNO055_ERROR;
 828              		.loc 1 480 5 is_stmt 1 view .LVU229
 829              	.LVL86:
 481:Core/Src/bno055.c **** 
ARM GAS  /tmp/ccOloYeZ.s 			page 25


 482:Core/Src/bno055.c ****     /* Check the struct p_bno055 is empty */
 483:Core/Src/bno055.c ****     if (p_bno055 == NULL)
 830              		.loc 1 483 5 view .LVU230
 831              		.loc 1 483 18 is_stmt 0 view .LVU231
 832 000a 124B     		ldr	r3, .L59
 833 000c 1B68     		ldr	r3, [r3]
 834              		.loc 1 483 8 view .LVU232
 835 000e D3B1     		cbz	r3, .L55
 836 0010 0546     		mov	r5, r0
 484:Core/Src/bno055.c ****     {
 485:Core/Src/bno055.c ****         return BNO055_E_NULL_PTR;
 486:Core/Src/bno055.c ****     }
 487:Core/Src/bno055.c ****     else
 488:Core/Src/bno055.c ****     {
 489:Core/Src/bno055.c ****         /*condition check for page, chip id is
 490:Core/Src/bno055.c ****          * available in the page zero*/
 491:Core/Src/bno055.c ****         if (p_bno055->page_id != BNO055_PAGE_ZERO)
 837              		.loc 1 491 9 is_stmt 1 view .LVU233
 838              		.loc 1 491 21 is_stmt 0 view .LVU234
 839 0012 1B79     		ldrb	r3, [r3, #4]	@ zero_extendqisi2
 840              		.loc 1 491 12 view .LVU235
 841 0014 8BB9     		cbnz	r3, .L58
 842              	.LVL87:
 843              	.L53:
 492:Core/Src/bno055.c ****         {
 493:Core/Src/bno055.c ****             /* Write the page zero*/
 494:Core/Src/bno055.c ****             stat_s8 = bno055_write_page_id(BNO055_PAGE_ZERO);
 495:Core/Src/bno055.c ****         }
 496:Core/Src/bno055.c ****         if ((stat_s8 == BNO055_SUCCESS) || (p_bno055->page_id == BNO055_PAGE_ZERO))
 844              		.loc 1 496 53 discriminator 1 view .LVU236
 845 0016 0F4B     		ldr	r3, .L59
 846 0018 1B68     		ldr	r3, [r3]
 847 001a 1B79     		ldrb	r3, [r3, #4]	@ zero_extendqisi2
 848              		.loc 1 496 41 discriminator 1 view .LVU237
 849 001c B3B9     		cbnz	r3, .L56
 850              	.L54:
 497:Core/Src/bno055.c ****         {
 498:Core/Src/bno055.c ****             /* Read the accel revision id */
 499:Core/Src/bno055.c ****             com_rslt = p_bno055->BNO055_BUS_READ_FUNC(p_bno055->dev_addr,
 851              		.loc 1 499 13 is_stmt 1 view .LVU238
 852              		.loc 1 499 32 is_stmt 0 view .LVU239
 853 001e 0D4B     		ldr	r3, .L59
 854 0020 1C68     		ldr	r4, [r3]
 855 0022 2669     		ldr	r6, [r4, #16]
 856              		.loc 1 499 24 view .LVU240
 857 0024 0123     		movs	r3, #1
 858 0026 0DF10702 		add	r2, sp, #7
 859 002a 1946     		mov	r1, r3
 860 002c 607A     		ldrb	r0, [r4, #9]	@ zero_extendqisi2
 861 002e B047     		blx	r6
 862              	.LVL88:
 500:Core/Src/bno055.c ****                                                       BNO055_ACCEL_REV_ID_REG,
 501:Core/Src/bno055.c ****                                                       &data_u8,
 502:Core/Src/bno055.c ****                                                       BNO055_GEN_READ_WRITE_LENGTH);
 503:Core/Src/bno055.c ****             *accel_rev_id_u8 = data_u8;
 863              		.loc 1 503 13 is_stmt 1 view .LVU241
 864              		.loc 1 503 30 is_stmt 0 view .LVU242
ARM GAS  /tmp/ccOloYeZ.s 			page 26


 865 0030 9DF80730 		ldrb	r3, [sp, #7]	@ zero_extendqisi2
 866 0034 2B70     		strb	r3, [r5]
 867              	.LVL89:
 868              	.L52:
 504:Core/Src/bno055.c ****         }
 505:Core/Src/bno055.c ****         else
 506:Core/Src/bno055.c ****         {
 507:Core/Src/bno055.c ****             com_rslt = BNO055_ERROR;
 508:Core/Src/bno055.c ****         }
 509:Core/Src/bno055.c ****     }
 510:Core/Src/bno055.c **** 
 511:Core/Src/bno055.c ****     return com_rslt;
 512:Core/Src/bno055.c **** }
 869              		.loc 1 512 1 view .LVU243
 870 0036 02B0     		add	sp, sp, #8
 871              		.cfi_remember_state
 872              		.cfi_def_cfa_offset 16
 873              		@ sp needed
 874 0038 70BD     		pop	{r4, r5, r6, pc}
 875              	.LVL90:
 876              	.L58:
 877              		.cfi_restore_state
 494:Core/Src/bno055.c ****         }
 878              		.loc 1 494 13 is_stmt 1 view .LVU244
 494:Core/Src/bno055.c ****         }
 879              		.loc 1 494 23 is_stmt 0 view .LVU245
 880 003a 0020     		movs	r0, #0
 881              	.LVL91:
 494:Core/Src/bno055.c ****         }
 882              		.loc 1 494 23 view .LVU246
 883 003c FFF7FEFF 		bl	bno055_write_page_id
 884              	.LVL92:
 496:Core/Src/bno055.c ****         {
 885              		.loc 1 496 9 is_stmt 1 view .LVU247
 496:Core/Src/bno055.c ****         {
 886              		.loc 1 496 12 is_stmt 0 view .LVU248
 887 0040 0028     		cmp	r0, #0
 888 0042 ECD0     		beq	.L54
 889 0044 E7E7     		b	.L53
 890              	.LVL93:
 891              	.L55:
 485:Core/Src/bno055.c ****     }
 892              		.loc 1 485 16 view .LVU249
 893 0046 6FF07E00 		mvn	r0, #126
 894              	.LVL94:
 485:Core/Src/bno055.c ****     }
 895              		.loc 1 485 16 view .LVU250
 896 004a F4E7     		b	.L52
 897              	.LVL95:
 898              	.L56:
 507:Core/Src/bno055.c ****         }
 899              		.loc 1 507 22 view .LVU251
 900 004c 4FF0FF30 		mov	r0, #-1
 901 0050 F1E7     		b	.L52
 902              	.L60:
 903 0052 00BF     		.align	2
 904              	.L59:
ARM GAS  /tmp/ccOloYeZ.s 			page 27


 905 0054 00000000 		.word	p_bno055
 906              		.cfi_endproc
 907              	.LFE7:
 909              		.section	.text.bno055_read_mag_rev_id,"ax",%progbits
 910              		.align	1
 911              		.global	bno055_read_mag_rev_id
 912              		.syntax unified
 913              		.thumb
 914              		.thumb_func
 916              	bno055_read_mag_rev_id:
 917              	.LVL96:
 918              	.LFB8:
 513:Core/Src/bno055.c **** 
 514:Core/Src/bno055.c **** /*!
 515:Core/Src/bno055.c ****  *  @brief This API reads mag revision id
 516:Core/Src/bno055.c ****  *  from register 0x02 it is a byte of value
 517:Core/Src/bno055.c ****  *
 518:Core/Src/bno055.c ****  *  @param mag_rev_id_u8 : The mag revision id 0x32
 519:Core/Src/bno055.c ****  *
 520:Core/Src/bno055.c ****  *  @return results of bus communication function
 521:Core/Src/bno055.c ****  *  @retval 0 -> BNO055_SUCCESS
 522:Core/Src/bno055.c ****  *  @retval 1 -> BNO055_ERROR
 523:Core/Src/bno055.c ****  *
 524:Core/Src/bno055.c ****  *
 525:Core/Src/bno055.c ****  */
 526:Core/Src/bno055.c **** BNO055_RETURN_FUNCTION_TYPE bno055_read_mag_rev_id(u8 *mag_rev_id_u8)
 527:Core/Src/bno055.c **** {
 919              		.loc 1 527 1 is_stmt 1 view -0
 920              		.cfi_startproc
 921              		@ args = 0, pretend = 0, frame = 8
 922              		@ frame_needed = 0, uses_anonymous_args = 0
 923              		.loc 1 527 1 is_stmt 0 view .LVU253
 924 0000 70B5     		push	{r4, r5, r6, lr}
 925              		.cfi_def_cfa_offset 16
 926              		.cfi_offset 4, -16
 927              		.cfi_offset 5, -12
 928              		.cfi_offset 6, -8
 929              		.cfi_offset 14, -4
 930 0002 82B0     		sub	sp, sp, #8
 931              		.cfi_def_cfa_offset 24
 528:Core/Src/bno055.c ****     /* Variable used to return value of
 529:Core/Src/bno055.c ****      * communication routine*/
 530:Core/Src/bno055.c ****     BNO055_RETURN_FUNCTION_TYPE com_rslt = BNO055_ERROR;
 932              		.loc 1 530 5 is_stmt 1 view .LVU254
 933              	.LVL97:
 531:Core/Src/bno055.c ****     u8 data_u8 = BNO055_INIT_VALUE;
 934              		.loc 1 531 5 view .LVU255
 935              		.loc 1 531 8 is_stmt 0 view .LVU256
 936 0004 0023     		movs	r3, #0
 937 0006 8DF80730 		strb	r3, [sp, #7]
 532:Core/Src/bno055.c ****     s8 stat_s8 = BNO055_ERROR;
 938              		.loc 1 532 5 is_stmt 1 view .LVU257
 939              	.LVL98:
 533:Core/Src/bno055.c **** 
 534:Core/Src/bno055.c ****     /* Check the struct p_bno055 is empty */
 535:Core/Src/bno055.c ****     if (p_bno055 == NULL)
 940              		.loc 1 535 5 view .LVU258
ARM GAS  /tmp/ccOloYeZ.s 			page 28


 941              		.loc 1 535 18 is_stmt 0 view .LVU259
 942 000a 124B     		ldr	r3, .L69
 943 000c 1B68     		ldr	r3, [r3]
 944              		.loc 1 535 8 view .LVU260
 945 000e D3B1     		cbz	r3, .L65
 946 0010 0546     		mov	r5, r0
 536:Core/Src/bno055.c ****     {
 537:Core/Src/bno055.c ****         return BNO055_E_NULL_PTR;
 538:Core/Src/bno055.c ****     }
 539:Core/Src/bno055.c ****     else
 540:Core/Src/bno055.c ****     {
 541:Core/Src/bno055.c ****         /*condition check for page, chip id is
 542:Core/Src/bno055.c ****          * available in the page zero*/
 543:Core/Src/bno055.c ****         if (p_bno055->page_id != BNO055_PAGE_ZERO)
 947              		.loc 1 543 9 is_stmt 1 view .LVU261
 948              		.loc 1 543 21 is_stmt 0 view .LVU262
 949 0012 1B79     		ldrb	r3, [r3, #4]	@ zero_extendqisi2
 950              		.loc 1 543 12 view .LVU263
 951 0014 8BB9     		cbnz	r3, .L68
 952              	.LVL99:
 953              	.L63:
 544:Core/Src/bno055.c ****         {
 545:Core/Src/bno055.c ****             /* Write the page zero*/
 546:Core/Src/bno055.c ****             stat_s8 = bno055_write_page_id(BNO055_PAGE_ZERO);
 547:Core/Src/bno055.c ****         }
 548:Core/Src/bno055.c ****         if ((stat_s8 == BNO055_SUCCESS) || (p_bno055->page_id == BNO055_PAGE_ZERO))
 954              		.loc 1 548 53 discriminator 1 view .LVU264
 955 0016 0F4B     		ldr	r3, .L69
 956 0018 1B68     		ldr	r3, [r3]
 957 001a 1B79     		ldrb	r3, [r3, #4]	@ zero_extendqisi2
 958              		.loc 1 548 41 discriminator 1 view .LVU265
 959 001c B3B9     		cbnz	r3, .L66
 960              	.L64:
 549:Core/Src/bno055.c ****         {
 550:Core/Src/bno055.c ****             /* Read the mag revision id */
 551:Core/Src/bno055.c ****             com_rslt = p_bno055->BNO055_BUS_READ_FUNC(p_bno055->dev_addr,
 961              		.loc 1 551 13 is_stmt 1 view .LVU266
 962              		.loc 1 551 32 is_stmt 0 view .LVU267
 963 001e 0D4B     		ldr	r3, .L69
 964 0020 1C68     		ldr	r4, [r3]
 965 0022 2669     		ldr	r6, [r4, #16]
 966              		.loc 1 551 24 view .LVU268
 967 0024 0123     		movs	r3, #1
 968 0026 0DF10702 		add	r2, sp, #7
 969 002a 0221     		movs	r1, #2
 970 002c 607A     		ldrb	r0, [r4, #9]	@ zero_extendqisi2
 971 002e B047     		blx	r6
 972              	.LVL100:
 552:Core/Src/bno055.c ****                                                       BNO055_MAG_REV_ID_REG,
 553:Core/Src/bno055.c ****                                                       &data_u8,
 554:Core/Src/bno055.c ****                                                       BNO055_GEN_READ_WRITE_LENGTH);
 555:Core/Src/bno055.c ****             *mag_rev_id_u8 = data_u8;
 973              		.loc 1 555 13 is_stmt 1 view .LVU269
 974              		.loc 1 555 28 is_stmt 0 view .LVU270
 975 0030 9DF80730 		ldrb	r3, [sp, #7]	@ zero_extendqisi2
 976 0034 2B70     		strb	r3, [r5]
 977              	.LVL101:
ARM GAS  /tmp/ccOloYeZ.s 			page 29


 978              	.L62:
 556:Core/Src/bno055.c ****         }
 557:Core/Src/bno055.c ****         else
 558:Core/Src/bno055.c ****         {
 559:Core/Src/bno055.c ****             com_rslt = BNO055_ERROR;
 560:Core/Src/bno055.c ****         }
 561:Core/Src/bno055.c ****     }
 562:Core/Src/bno055.c **** 
 563:Core/Src/bno055.c ****     return com_rslt;
 564:Core/Src/bno055.c **** }
 979              		.loc 1 564 1 view .LVU271
 980 0036 02B0     		add	sp, sp, #8
 981              		.cfi_remember_state
 982              		.cfi_def_cfa_offset 16
 983              		@ sp needed
 984 0038 70BD     		pop	{r4, r5, r6, pc}
 985              	.LVL102:
 986              	.L68:
 987              		.cfi_restore_state
 546:Core/Src/bno055.c ****         }
 988              		.loc 1 546 13 is_stmt 1 view .LVU272
 546:Core/Src/bno055.c ****         }
 989              		.loc 1 546 23 is_stmt 0 view .LVU273
 990 003a 0020     		movs	r0, #0
 991              	.LVL103:
 546:Core/Src/bno055.c ****         }
 992              		.loc 1 546 23 view .LVU274
 993 003c FFF7FEFF 		bl	bno055_write_page_id
 994              	.LVL104:
 548:Core/Src/bno055.c ****         {
 995              		.loc 1 548 9 is_stmt 1 view .LVU275
 548:Core/Src/bno055.c ****         {
 996              		.loc 1 548 12 is_stmt 0 view .LVU276
 997 0040 0028     		cmp	r0, #0
 998 0042 ECD0     		beq	.L64
 999 0044 E7E7     		b	.L63
 1000              	.LVL105:
 1001              	.L65:
 537:Core/Src/bno055.c ****     }
 1002              		.loc 1 537 16 view .LVU277
 1003 0046 6FF07E00 		mvn	r0, #126
 1004              	.LVL106:
 537:Core/Src/bno055.c ****     }
 1005              		.loc 1 537 16 view .LVU278
 1006 004a F4E7     		b	.L62
 1007              	.LVL107:
 1008              	.L66:
 559:Core/Src/bno055.c ****         }
 1009              		.loc 1 559 22 view .LVU279
 1010 004c 4FF0FF30 		mov	r0, #-1
 1011 0050 F1E7     		b	.L62
 1012              	.L70:
 1013 0052 00BF     		.align	2
 1014              	.L69:
 1015 0054 00000000 		.word	p_bno055
 1016              		.cfi_endproc
 1017              	.LFE8:
ARM GAS  /tmp/ccOloYeZ.s 			page 30


 1019              		.section	.text.bno055_read_gyro_rev_id,"ax",%progbits
 1020              		.align	1
 1021              		.global	bno055_read_gyro_rev_id
 1022              		.syntax unified
 1023              		.thumb
 1024              		.thumb_func
 1026              	bno055_read_gyro_rev_id:
 1027              	.LVL108:
 1028              	.LFB9:
 565:Core/Src/bno055.c **** 
 566:Core/Src/bno055.c **** /*!
 567:Core/Src/bno055.c ****  *  @brief This API reads gyro revision id
 568:Core/Src/bno055.c ****  *  from register 0x03 it is a byte of value
 569:Core/Src/bno055.c ****  *
 570:Core/Src/bno055.c ****  *  @param gyro_rev_id_u8 : The gyro revision id 0xF0
 571:Core/Src/bno055.c ****  *
 572:Core/Src/bno055.c ****  *
 573:Core/Src/bno055.c ****  *
 574:Core/Src/bno055.c ****  *  @return results of bus communication function
 575:Core/Src/bno055.c ****  *  @retval 0 -> BNO055_SUCCESS
 576:Core/Src/bno055.c ****  *  @retval 1 -> BNO055_ERROR
 577:Core/Src/bno055.c ****  *
 578:Core/Src/bno055.c ****  *
 579:Core/Src/bno055.c ****  */
 580:Core/Src/bno055.c **** BNO055_RETURN_FUNCTION_TYPE bno055_read_gyro_rev_id(u8 *gyro_rev_id_u8)
 581:Core/Src/bno055.c **** {
 1029              		.loc 1 581 1 is_stmt 1 view -0
 1030              		.cfi_startproc
 1031              		@ args = 0, pretend = 0, frame = 8
 1032              		@ frame_needed = 0, uses_anonymous_args = 0
 1033              		.loc 1 581 1 is_stmt 0 view .LVU281
 1034 0000 70B5     		push	{r4, r5, r6, lr}
 1035              		.cfi_def_cfa_offset 16
 1036              		.cfi_offset 4, -16
 1037              		.cfi_offset 5, -12
 1038              		.cfi_offset 6, -8
 1039              		.cfi_offset 14, -4
 1040 0002 82B0     		sub	sp, sp, #8
 1041              		.cfi_def_cfa_offset 24
 582:Core/Src/bno055.c ****     /* Variable used to return value of
 583:Core/Src/bno055.c ****      * communication routine*/
 584:Core/Src/bno055.c ****     BNO055_RETURN_FUNCTION_TYPE com_rslt = BNO055_ERROR;
 1042              		.loc 1 584 5 is_stmt 1 view .LVU282
 1043              	.LVL109:
 585:Core/Src/bno055.c ****     u8 data_u8 = BNO055_INIT_VALUE;
 1044              		.loc 1 585 5 view .LVU283
 1045              		.loc 1 585 8 is_stmt 0 view .LVU284
 1046 0004 0023     		movs	r3, #0
 1047 0006 8DF80730 		strb	r3, [sp, #7]
 586:Core/Src/bno055.c ****     s8 stat_s8 = BNO055_ERROR;
 1048              		.loc 1 586 5 is_stmt 1 view .LVU285
 1049              	.LVL110:
 587:Core/Src/bno055.c **** 
 588:Core/Src/bno055.c ****     /* Check the struct p_bno055 is empty */
 589:Core/Src/bno055.c ****     if (p_bno055 == NULL)
 1050              		.loc 1 589 5 view .LVU286
 1051              		.loc 1 589 18 is_stmt 0 view .LVU287
ARM GAS  /tmp/ccOloYeZ.s 			page 31


 1052 000a 124B     		ldr	r3, .L79
 1053 000c 1B68     		ldr	r3, [r3]
 1054              		.loc 1 589 8 view .LVU288
 1055 000e D3B1     		cbz	r3, .L75
 1056 0010 0546     		mov	r5, r0
 590:Core/Src/bno055.c ****     {
 591:Core/Src/bno055.c ****         return BNO055_E_NULL_PTR;
 592:Core/Src/bno055.c ****     }
 593:Core/Src/bno055.c ****     else
 594:Core/Src/bno055.c ****     {
 595:Core/Src/bno055.c ****         /*condition check for page, chip id is
 596:Core/Src/bno055.c ****          * available in the page zero*/
 597:Core/Src/bno055.c ****         if (p_bno055->page_id != BNO055_PAGE_ZERO)
 1057              		.loc 1 597 9 is_stmt 1 view .LVU289
 1058              		.loc 1 597 21 is_stmt 0 view .LVU290
 1059 0012 1B79     		ldrb	r3, [r3, #4]	@ zero_extendqisi2
 1060              		.loc 1 597 12 view .LVU291
 1061 0014 8BB9     		cbnz	r3, .L78
 1062              	.LVL111:
 1063              	.L73:
 598:Core/Src/bno055.c ****         {
 599:Core/Src/bno055.c ****             /* Write the page zero*/
 600:Core/Src/bno055.c ****             stat_s8 = bno055_write_page_id(BNO055_PAGE_ZERO);
 601:Core/Src/bno055.c ****         }
 602:Core/Src/bno055.c ****         if ((stat_s8 == BNO055_SUCCESS) || (p_bno055->page_id == BNO055_PAGE_ZERO))
 1064              		.loc 1 602 53 discriminator 1 view .LVU292
 1065 0016 0F4B     		ldr	r3, .L79
 1066 0018 1B68     		ldr	r3, [r3]
 1067 001a 1B79     		ldrb	r3, [r3, #4]	@ zero_extendqisi2
 1068              		.loc 1 602 41 discriminator 1 view .LVU293
 1069 001c B3B9     		cbnz	r3, .L76
 1070              	.L74:
 603:Core/Src/bno055.c ****         {
 604:Core/Src/bno055.c ****             /* Read the gyro revision id */
 605:Core/Src/bno055.c ****             com_rslt = p_bno055->BNO055_BUS_READ_FUNC(p_bno055->dev_addr,
 1071              		.loc 1 605 13 is_stmt 1 view .LVU294
 1072              		.loc 1 605 32 is_stmt 0 view .LVU295
 1073 001e 0D4B     		ldr	r3, .L79
 1074 0020 1C68     		ldr	r4, [r3]
 1075 0022 2669     		ldr	r6, [r4, #16]
 1076              		.loc 1 605 24 view .LVU296
 1077 0024 0123     		movs	r3, #1
 1078 0026 0DF10702 		add	r2, sp, #7
 1079 002a 0321     		movs	r1, #3
 1080 002c 607A     		ldrb	r0, [r4, #9]	@ zero_extendqisi2
 1081 002e B047     		blx	r6
 1082              	.LVL112:
 606:Core/Src/bno055.c ****                                                       BNO055_GYRO_REV_ID_REG,
 607:Core/Src/bno055.c ****                                                       &data_u8,
 608:Core/Src/bno055.c ****                                                       BNO055_GEN_READ_WRITE_LENGTH);
 609:Core/Src/bno055.c ****             *gyro_rev_id_u8 = data_u8;
 1083              		.loc 1 609 13 is_stmt 1 view .LVU297
 1084              		.loc 1 609 29 is_stmt 0 view .LVU298
 1085 0030 9DF80730 		ldrb	r3, [sp, #7]	@ zero_extendqisi2
 1086 0034 2B70     		strb	r3, [r5]
 1087              	.LVL113:
 1088              	.L72:
ARM GAS  /tmp/ccOloYeZ.s 			page 32


 610:Core/Src/bno055.c ****         }
 611:Core/Src/bno055.c ****         else
 612:Core/Src/bno055.c ****         {
 613:Core/Src/bno055.c ****             com_rslt = BNO055_ERROR;
 614:Core/Src/bno055.c ****         }
 615:Core/Src/bno055.c ****     }
 616:Core/Src/bno055.c **** 
 617:Core/Src/bno055.c ****     return com_rslt;
 618:Core/Src/bno055.c **** }
 1089              		.loc 1 618 1 view .LVU299
 1090 0036 02B0     		add	sp, sp, #8
 1091              		.cfi_remember_state
 1092              		.cfi_def_cfa_offset 16
 1093              		@ sp needed
 1094 0038 70BD     		pop	{r4, r5, r6, pc}
 1095              	.LVL114:
 1096              	.L78:
 1097              		.cfi_restore_state
 600:Core/Src/bno055.c ****         }
 1098              		.loc 1 600 13 is_stmt 1 view .LVU300
 600:Core/Src/bno055.c ****         }
 1099              		.loc 1 600 23 is_stmt 0 view .LVU301
 1100 003a 0020     		movs	r0, #0
 1101              	.LVL115:
 600:Core/Src/bno055.c ****         }
 1102              		.loc 1 600 23 view .LVU302
 1103 003c FFF7FEFF 		bl	bno055_write_page_id
 1104              	.LVL116:
 602:Core/Src/bno055.c ****         {
 1105              		.loc 1 602 9 is_stmt 1 view .LVU303
 602:Core/Src/bno055.c ****         {
 1106              		.loc 1 602 12 is_stmt 0 view .LVU304
 1107 0040 0028     		cmp	r0, #0
 1108 0042 ECD0     		beq	.L74
 1109 0044 E7E7     		b	.L73
 1110              	.LVL117:
 1111              	.L75:
 591:Core/Src/bno055.c ****     }
 1112              		.loc 1 591 16 view .LVU305
 1113 0046 6FF07E00 		mvn	r0, #126
 1114              	.LVL118:
 591:Core/Src/bno055.c ****     }
 1115              		.loc 1 591 16 view .LVU306
 1116 004a F4E7     		b	.L72
 1117              	.LVL119:
 1118              	.L76:
 613:Core/Src/bno055.c ****         }
 1119              		.loc 1 613 22 view .LVU307
 1120 004c 4FF0FF30 		mov	r0, #-1
 1121 0050 F1E7     		b	.L72
 1122              	.L80:
 1123 0052 00BF     		.align	2
 1124              	.L79:
 1125 0054 00000000 		.word	p_bno055
 1126              		.cfi_endproc
 1127              	.LFE9:
 1129              		.section	.text.bno055_read_bl_rev_id,"ax",%progbits
ARM GAS  /tmp/ccOloYeZ.s 			page 33


 1130              		.align	1
 1131              		.global	bno055_read_bl_rev_id
 1132              		.syntax unified
 1133              		.thumb
 1134              		.thumb_func
 1136              	bno055_read_bl_rev_id:
 1137              	.LVL120:
 1138              	.LFB10:
 619:Core/Src/bno055.c **** 
 620:Core/Src/bno055.c **** /*!
 621:Core/Src/bno055.c ****  *  @brief This API used to read boot loader revision id
 622:Core/Src/bno055.c ****  *  from register 0x06 it is a byte of value
 623:Core/Src/bno055.c ****  *
 624:Core/Src/bno055.c ****  *  @param bl_rev_id_u8 : The boot loader revision id
 625:Core/Src/bno055.c ****  *
 626:Core/Src/bno055.c ****  *
 627:Core/Src/bno055.c ****  *  @return results of bus communication function
 628:Core/Src/bno055.c ****  *  @retval 0 -> BNO055_SUCCESS
 629:Core/Src/bno055.c ****  *  @retval 1 -> BNO055_ERROR
 630:Core/Src/bno055.c ****  *
 631:Core/Src/bno055.c ****  *
 632:Core/Src/bno055.c ****  */
 633:Core/Src/bno055.c **** BNO055_RETURN_FUNCTION_TYPE bno055_read_bl_rev_id(u8 *bl_rev_id_u8)
 634:Core/Src/bno055.c **** {
 1139              		.loc 1 634 1 is_stmt 1 view -0
 1140              		.cfi_startproc
 1141              		@ args = 0, pretend = 0, frame = 8
 1142              		@ frame_needed = 0, uses_anonymous_args = 0
 1143              		.loc 1 634 1 is_stmt 0 view .LVU309
 1144 0000 70B5     		push	{r4, r5, r6, lr}
 1145              		.cfi_def_cfa_offset 16
 1146              		.cfi_offset 4, -16
 1147              		.cfi_offset 5, -12
 1148              		.cfi_offset 6, -8
 1149              		.cfi_offset 14, -4
 1150 0002 82B0     		sub	sp, sp, #8
 1151              		.cfi_def_cfa_offset 24
 635:Core/Src/bno055.c ****     /* Variable used to return value of
 636:Core/Src/bno055.c ****      * communication routine*/
 637:Core/Src/bno055.c ****     BNO055_RETURN_FUNCTION_TYPE com_rslt = BNO055_ERROR;
 1152              		.loc 1 637 5 is_stmt 1 view .LVU310
 1153              	.LVL121:
 638:Core/Src/bno055.c ****     u8 data_u8 = BNO055_INIT_VALUE;
 1154              		.loc 1 638 5 view .LVU311
 1155              		.loc 1 638 8 is_stmt 0 view .LVU312
 1156 0004 0023     		movs	r3, #0
 1157 0006 8DF80730 		strb	r3, [sp, #7]
 639:Core/Src/bno055.c ****     s8 stat_s8 = BNO055_ERROR;
 1158              		.loc 1 639 5 is_stmt 1 view .LVU313
 1159              	.LVL122:
 640:Core/Src/bno055.c **** 
 641:Core/Src/bno055.c ****     /* Check the struct p_bno055 is empty */
 642:Core/Src/bno055.c ****     if (p_bno055 == NULL)
 1160              		.loc 1 642 5 view .LVU314
 1161              		.loc 1 642 18 is_stmt 0 view .LVU315
 1162 000a 124B     		ldr	r3, .L89
 1163 000c 1B68     		ldr	r3, [r3]
ARM GAS  /tmp/ccOloYeZ.s 			page 34


 1164              		.loc 1 642 8 view .LVU316
 1165 000e D3B1     		cbz	r3, .L85
 1166 0010 0546     		mov	r5, r0
 643:Core/Src/bno055.c ****     {
 644:Core/Src/bno055.c ****         return BNO055_E_NULL_PTR;
 645:Core/Src/bno055.c ****     }
 646:Core/Src/bno055.c ****     else
 647:Core/Src/bno055.c ****     {
 648:Core/Src/bno055.c ****         /*condition check for page, chip id is
 649:Core/Src/bno055.c ****          * available in the page zero*/
 650:Core/Src/bno055.c ****         if (p_bno055->page_id != BNO055_PAGE_ZERO)
 1167              		.loc 1 650 9 is_stmt 1 view .LVU317
 1168              		.loc 1 650 21 is_stmt 0 view .LVU318
 1169 0012 1B79     		ldrb	r3, [r3, #4]	@ zero_extendqisi2
 1170              		.loc 1 650 12 view .LVU319
 1171 0014 8BB9     		cbnz	r3, .L88
 1172              	.LVL123:
 1173              	.L83:
 651:Core/Src/bno055.c ****         {
 652:Core/Src/bno055.c ****             /* Write the page zero*/
 653:Core/Src/bno055.c ****             stat_s8 = bno055_write_page_id(BNO055_PAGE_ZERO);
 654:Core/Src/bno055.c ****         }
 655:Core/Src/bno055.c ****         if ((stat_s8 == BNO055_SUCCESS) || (p_bno055->page_id == BNO055_PAGE_ZERO))
 1174              		.loc 1 655 53 discriminator 1 view .LVU320
 1175 0016 0F4B     		ldr	r3, .L89
 1176 0018 1B68     		ldr	r3, [r3]
 1177 001a 1B79     		ldrb	r3, [r3, #4]	@ zero_extendqisi2
 1178              		.loc 1 655 41 discriminator 1 view .LVU321
 1179 001c B3B9     		cbnz	r3, .L86
 1180              	.L84:
 656:Core/Src/bno055.c ****         {
 657:Core/Src/bno055.c ****             /* Read the boot loader revision id */
 658:Core/Src/bno055.c ****             com_rslt = p_bno055->BNO055_BUS_READ_FUNC(p_bno055->dev_addr,
 1181              		.loc 1 658 13 is_stmt 1 view .LVU322
 1182              		.loc 1 658 32 is_stmt 0 view .LVU323
 1183 001e 0D4B     		ldr	r3, .L89
 1184 0020 1C68     		ldr	r4, [r3]
 1185 0022 2669     		ldr	r6, [r4, #16]
 1186              		.loc 1 658 24 view .LVU324
 1187 0024 0123     		movs	r3, #1
 1188 0026 0DF10702 		add	r2, sp, #7
 1189 002a 0621     		movs	r1, #6
 1190 002c 607A     		ldrb	r0, [r4, #9]	@ zero_extendqisi2
 1191 002e B047     		blx	r6
 1192              	.LVL124:
 659:Core/Src/bno055.c ****                                                       BNO055_BL_REV_ID_REG,
 660:Core/Src/bno055.c ****                                                       &data_u8,
 661:Core/Src/bno055.c ****                                                       BNO055_GEN_READ_WRITE_LENGTH);
 662:Core/Src/bno055.c ****             *bl_rev_id_u8 = data_u8;
 1193              		.loc 1 662 13 is_stmt 1 view .LVU325
 1194              		.loc 1 662 27 is_stmt 0 view .LVU326
 1195 0030 9DF80730 		ldrb	r3, [sp, #7]	@ zero_extendqisi2
 1196 0034 2B70     		strb	r3, [r5]
 1197              	.LVL125:
 1198              	.L82:
 663:Core/Src/bno055.c ****         }
 664:Core/Src/bno055.c ****         else
ARM GAS  /tmp/ccOloYeZ.s 			page 35


 665:Core/Src/bno055.c ****         {
 666:Core/Src/bno055.c ****             com_rslt = BNO055_ERROR;
 667:Core/Src/bno055.c ****         }
 668:Core/Src/bno055.c ****     }
 669:Core/Src/bno055.c **** 
 670:Core/Src/bno055.c ****     return com_rslt;
 671:Core/Src/bno055.c **** }
 1199              		.loc 1 671 1 view .LVU327
 1200 0036 02B0     		add	sp, sp, #8
 1201              		.cfi_remember_state
 1202              		.cfi_def_cfa_offset 16
 1203              		@ sp needed
 1204 0038 70BD     		pop	{r4, r5, r6, pc}
 1205              	.LVL126:
 1206              	.L88:
 1207              		.cfi_restore_state
 653:Core/Src/bno055.c ****         }
 1208              		.loc 1 653 13 is_stmt 1 view .LVU328
 653:Core/Src/bno055.c ****         }
 1209              		.loc 1 653 23 is_stmt 0 view .LVU329
 1210 003a 0020     		movs	r0, #0
 1211              	.LVL127:
 653:Core/Src/bno055.c ****         }
 1212              		.loc 1 653 23 view .LVU330
 1213 003c FFF7FEFF 		bl	bno055_write_page_id
 1214              	.LVL128:
 655:Core/Src/bno055.c ****         {
 1215              		.loc 1 655 9 is_stmt 1 view .LVU331
 655:Core/Src/bno055.c ****         {
 1216              		.loc 1 655 12 is_stmt 0 view .LVU332
 1217 0040 0028     		cmp	r0, #0
 1218 0042 ECD0     		beq	.L84
 1219 0044 E7E7     		b	.L83
 1220              	.LVL129:
 1221              	.L85:
 644:Core/Src/bno055.c ****     }
 1222              		.loc 1 644 16 view .LVU333
 1223 0046 6FF07E00 		mvn	r0, #126
 1224              	.LVL130:
 644:Core/Src/bno055.c ****     }
 1225              		.loc 1 644 16 view .LVU334
 1226 004a F4E7     		b	.L82
 1227              	.LVL131:
 1228              	.L86:
 666:Core/Src/bno055.c ****         }
 1229              		.loc 1 666 22 view .LVU335
 1230 004c 4FF0FF30 		mov	r0, #-1
 1231 0050 F1E7     		b	.L82
 1232              	.L90:
 1233 0052 00BF     		.align	2
 1234              	.L89:
 1235 0054 00000000 		.word	p_bno055
 1236              		.cfi_endproc
 1237              	.LFE10:
 1239              		.section	.text.bno055_read_accel_x,"ax",%progbits
 1240              		.align	1
 1241              		.global	bno055_read_accel_x
ARM GAS  /tmp/ccOloYeZ.s 			page 36


 1242              		.syntax unified
 1243              		.thumb
 1244              		.thumb_func
 1246              	bno055_read_accel_x:
 1247              	.LVL132:
 1248              	.LFB11:
 672:Core/Src/bno055.c **** 
 673:Core/Src/bno055.c **** /*!
 674:Core/Src/bno055.c ****  *  @brief This API reads acceleration data X values
 675:Core/Src/bno055.c ****  *  from register 0x08 and 0x09 it is a two byte data
 676:Core/Src/bno055.c ****  *
 677:Core/Src/bno055.c ****  *
 678:Core/Src/bno055.c ****  *
 679:Core/Src/bno055.c ****  *
 680:Core/Src/bno055.c ****  *  @param accel_x_s16 : The X raw data
 681:Core/Src/bno055.c ****  *
 682:Core/Src/bno055.c ****  *
 683:Core/Src/bno055.c ****  *
 684:Core/Src/bno055.c ****  *  @return results of bus communication function
 685:Core/Src/bno055.c ****  *  @retval 0 -> BNO055_SUCCESS
 686:Core/Src/bno055.c ****  *  @retval 1 -> BNO055_ERROR
 687:Core/Src/bno055.c ****  *
 688:Core/Src/bno055.c ****  *
 689:Core/Src/bno055.c ****  */
 690:Core/Src/bno055.c **** BNO055_RETURN_FUNCTION_TYPE bno055_read_accel_x(s16 *accel_x_s16)
 691:Core/Src/bno055.c **** {
 1249              		.loc 1 691 1 is_stmt 1 view -0
 1250              		.cfi_startproc
 1251              		@ args = 0, pretend = 0, frame = 8
 1252              		@ frame_needed = 0, uses_anonymous_args = 0
 1253              		.loc 1 691 1 is_stmt 0 view .LVU337
 1254 0000 30B5     		push	{r4, r5, lr}
 1255              		.cfi_def_cfa_offset 12
 1256              		.cfi_offset 4, -12
 1257              		.cfi_offset 5, -8
 1258              		.cfi_offset 14, -4
 1259 0002 83B0     		sub	sp, sp, #12
 1260              		.cfi_def_cfa_offset 24
 692:Core/Src/bno055.c ****     /* Variable used to return value of
 693:Core/Src/bno055.c ****      * communication routine*/
 694:Core/Src/bno055.c ****     BNO055_RETURN_FUNCTION_TYPE com_rslt = BNO055_ERROR;
 1261              		.loc 1 694 5 is_stmt 1 view .LVU338
 1262              	.LVL133:
 695:Core/Src/bno055.c **** 
 696:Core/Src/bno055.c ****     /* Array holding the accel x value
 697:Core/Src/bno055.c ****      * data_u8[BNO055_SENSOR_DATA_LSB] - x-LSB
 698:Core/Src/bno055.c ****      * data_u8[BNO055_SENSOR_DATA_MSB] - x-MSB
 699:Core/Src/bno055.c ****      */
 700:Core/Src/bno055.c ****     u8 data_u8[BNO055_ACCEL_DATA_SIZE] = { BNO055_INIT_VALUE, BNO055_INIT_VALUE };
 1263              		.loc 1 700 5 view .LVU339
 1264              		.loc 1 700 8 is_stmt 0 view .LVU340
 1265 0004 0023     		movs	r3, #0
 1266 0006 ADF80430 		strh	r3, [sp, #4]	@ movhi
 701:Core/Src/bno055.c ****     s8 stat_s8 = BNO055_ERROR;
 1267              		.loc 1 701 5 is_stmt 1 view .LVU341
 1268              	.LVL134:
 702:Core/Src/bno055.c **** 
ARM GAS  /tmp/ccOloYeZ.s 			page 37


 703:Core/Src/bno055.c ****     /* Check the struct p_bno055 is empty */
 704:Core/Src/bno055.c ****     if (p_bno055 == NULL)
 1269              		.loc 1 704 5 view .LVU342
 1270              		.loc 1 704 18 is_stmt 0 view .LVU343
 1271 000a 134B     		ldr	r3, .L99
 1272 000c 1B68     		ldr	r3, [r3]
 1273              		.loc 1 704 8 view .LVU344
 1274 000e EBB1     		cbz	r3, .L95
 1275 0010 0446     		mov	r4, r0
 705:Core/Src/bno055.c ****     {
 706:Core/Src/bno055.c ****         return BNO055_E_NULL_PTR;
 707:Core/Src/bno055.c ****     }
 708:Core/Src/bno055.c ****     else
 709:Core/Src/bno055.c ****     {
 710:Core/Src/bno055.c ****         if (p_bno055->page_id != BNO055_PAGE_ZERO)
 1276              		.loc 1 710 9 is_stmt 1 view .LVU345
 1277              		.loc 1 710 21 is_stmt 0 view .LVU346
 1278 0012 1B79     		ldrb	r3, [r3, #4]	@ zero_extendqisi2
 1279              		.loc 1 710 12 view .LVU347
 1280 0014 A3B9     		cbnz	r3, .L98
 1281              	.LVL135:
 1282              	.L93:
 711:Core/Src/bno055.c ****         {
 712:Core/Src/bno055.c ****             /* Write the page zero*/
 713:Core/Src/bno055.c ****             stat_s8 = bno055_write_page_id(BNO055_PAGE_ZERO);
 714:Core/Src/bno055.c ****         }
 715:Core/Src/bno055.c ****         if ((stat_s8 == BNO055_SUCCESS) || (p_bno055->page_id == BNO055_PAGE_ZERO))
 1283              		.loc 1 715 53 discriminator 1 view .LVU348
 1284 0016 104B     		ldr	r3, .L99
 1285 0018 1B68     		ldr	r3, [r3]
 1286 001a 1B79     		ldrb	r3, [r3, #4]	@ zero_extendqisi2
 1287              		.loc 1 715 41 discriminator 1 view .LVU349
 1288 001c CBB9     		cbnz	r3, .L96
 1289              	.L94:
 716:Core/Src/bno055.c ****         {
 717:Core/Src/bno055.c ****             /* Read the accel x axis two byte value*/
 718:Core/Src/bno055.c ****             com_rslt = p_bno055->BNO055_BUS_READ_FUNC(p_bno055->dev_addr,
 1290              		.loc 1 718 13 is_stmt 1 view .LVU350
 1291              		.loc 1 718 32 is_stmt 0 view .LVU351
 1292 001e 0E4B     		ldr	r3, .L99
 1293 0020 1868     		ldr	r0, [r3]
 1294 0022 0569     		ldr	r5, [r0, #16]
 1295              		.loc 1 718 24 view .LVU352
 1296 0024 0223     		movs	r3, #2
 1297 0026 01AA     		add	r2, sp, #4
 1298 0028 0821     		movs	r1, #8
 1299 002a 407A     		ldrb	r0, [r0, #9]	@ zero_extendqisi2
 1300 002c A847     		blx	r5
 1301              	.LVL136:
 719:Core/Src/bno055.c ****                                                       BNO055_ACCEL_DATA_X_LSB_VALUEX_REG,
 720:Core/Src/bno055.c ****                                                       data_u8,
 721:Core/Src/bno055.c ****                                                       BNO055_LSB_MSB_READ_LENGTH);
 722:Core/Src/bno055.c ****             data_u8[BNO055_SENSOR_DATA_LSB] = BNO055_GET_BITSLICE(data_u8[BNO055_SENSOR_DATA_LSB],
 1302              		.loc 1 722 13 is_stmt 1 view .LVU353
 723:Core/Src/bno055.c ****                                                                   BNO055_ACCEL_DATA_X_LSB_VALUEX);
 724:Core/Src/bno055.c ****             data_u8[BNO055_SENSOR_DATA_MSB] = BNO055_GET_BITSLICE(data_u8[BNO055_SENSOR_DATA_MSB],
 1303              		.loc 1 724 13 view .LVU354
ARM GAS  /tmp/ccOloYeZ.s 			page 38


 725:Core/Src/bno055.c ****                                                                   BNO055_ACCEL_DATA_X_MSB_VALUEX);
 726:Core/Src/bno055.c ****             *accel_x_s16 =
 1304              		.loc 1 726 13 view .LVU355
 727:Core/Src/bno055.c ****                 (s16)((((s32)(s8)(data_u8[BNO055_SENSOR_DATA_MSB])) << (BNO055_SHIFT_EIGHT_BITS)) |
 1305              		.loc 1 727 30 is_stmt 0 view .LVU356
 1306 002e 9DF90520 		ldrsb	r2, [sp, #5]
 728:Core/Src/bno055.c ****                       (data_u8[BNO055_SENSOR_DATA_LSB]));
 1307              		.loc 1 728 31 view .LVU357
 1308 0032 9DF80430 		ldrb	r3, [sp, #4]	@ zero_extendqisi2
 727:Core/Src/bno055.c ****                 (s16)((((s32)(s8)(data_u8[BNO055_SENSOR_DATA_MSB])) << (BNO055_SHIFT_EIGHT_BITS)) |
 1309              		.loc 1 727 17 view .LVU358
 1310 0036 43EA0223 		orr	r3, r3, r2, lsl #8
 726:Core/Src/bno055.c ****                 (s16)((((s32)(s8)(data_u8[BNO055_SENSOR_DATA_MSB])) << (BNO055_SHIFT_EIGHT_BITS)) |
 1311              		.loc 1 726 26 view .LVU359
 1312 003a 2380     		strh	r3, [r4]	@ movhi
 1313              	.LVL137:
 1314              	.L92:
 729:Core/Src/bno055.c ****         }
 730:Core/Src/bno055.c ****         else
 731:Core/Src/bno055.c ****         {
 732:Core/Src/bno055.c ****             com_rslt = BNO055_ERROR;
 733:Core/Src/bno055.c ****         }
 734:Core/Src/bno055.c ****     }
 735:Core/Src/bno055.c **** 
 736:Core/Src/bno055.c ****     return com_rslt;
 737:Core/Src/bno055.c **** }
 1315              		.loc 1 737 1 view .LVU360
 1316 003c 03B0     		add	sp, sp, #12
 1317              		.cfi_remember_state
 1318              		.cfi_def_cfa_offset 12
 1319              		@ sp needed
 1320 003e 30BD     		pop	{r4, r5, pc}
 1321              	.LVL138:
 1322              	.L98:
 1323              		.cfi_restore_state
 713:Core/Src/bno055.c ****         }
 1324              		.loc 1 713 13 is_stmt 1 view .LVU361
 713:Core/Src/bno055.c ****         }
 1325              		.loc 1 713 23 is_stmt 0 view .LVU362
 1326 0040 0020     		movs	r0, #0
 1327              	.LVL139:
 713:Core/Src/bno055.c ****         }
 1328              		.loc 1 713 23 view .LVU363
 1329 0042 FFF7FEFF 		bl	bno055_write_page_id
 1330              	.LVL140:
 715:Core/Src/bno055.c ****         {
 1331              		.loc 1 715 9 is_stmt 1 view .LVU364
 715:Core/Src/bno055.c ****         {
 1332              		.loc 1 715 12 is_stmt 0 view .LVU365
 1333 0046 0028     		cmp	r0, #0
 1334 0048 E9D0     		beq	.L94
 1335 004a E4E7     		b	.L93
 1336              	.LVL141:
 1337              	.L95:
 706:Core/Src/bno055.c ****     }
 1338              		.loc 1 706 16 view .LVU366
 1339 004c 6FF07E00 		mvn	r0, #126
ARM GAS  /tmp/ccOloYeZ.s 			page 39


 1340              	.LVL142:
 706:Core/Src/bno055.c ****     }
 1341              		.loc 1 706 16 view .LVU367
 1342 0050 F4E7     		b	.L92
 1343              	.LVL143:
 1344              	.L96:
 732:Core/Src/bno055.c ****         }
 1345              		.loc 1 732 22 view .LVU368
 1346 0052 4FF0FF30 		mov	r0, #-1
 1347 0056 F1E7     		b	.L92
 1348              	.L100:
 1349              		.align	2
 1350              	.L99:
 1351 0058 00000000 		.word	p_bno055
 1352              		.cfi_endproc
 1353              	.LFE11:
 1355              		.section	.text.bno055_read_accel_y,"ax",%progbits
 1356              		.align	1
 1357              		.global	bno055_read_accel_y
 1358              		.syntax unified
 1359              		.thumb
 1360              		.thumb_func
 1362              	bno055_read_accel_y:
 1363              	.LVL144:
 1364              	.LFB12:
 738:Core/Src/bno055.c **** 
 739:Core/Src/bno055.c **** /*!
 740:Core/Src/bno055.c ****  *  @brief This API reads acceleration data Y values
 741:Core/Src/bno055.c ****  *  from register 0x0A and 0x0B it is a two byte data
 742:Core/Src/bno055.c ****  *
 743:Core/Src/bno055.c ****  *
 744:Core/Src/bno055.c ****  *
 745:Core/Src/bno055.c ****  *
 746:Core/Src/bno055.c ****  *  @param accel_y_s16 : The Y raw data
 747:Core/Src/bno055.c ****  *
 748:Core/Src/bno055.c ****  *
 749:Core/Src/bno055.c ****  *
 750:Core/Src/bno055.c ****  *  @return results of bus communication function
 751:Core/Src/bno055.c ****  *  @retval 0 -> BNO055_SUCCESS
 752:Core/Src/bno055.c ****  *  @retval 1 -> BNO055_ERROR
 753:Core/Src/bno055.c ****  *
 754:Core/Src/bno055.c ****  *
 755:Core/Src/bno055.c ****  */
 756:Core/Src/bno055.c **** BNO055_RETURN_FUNCTION_TYPE bno055_read_accel_y(s16 *accel_y_s16)
 757:Core/Src/bno055.c **** {
 1365              		.loc 1 757 1 is_stmt 1 view -0
 1366              		.cfi_startproc
 1367              		@ args = 0, pretend = 0, frame = 8
 1368              		@ frame_needed = 0, uses_anonymous_args = 0
 1369              		.loc 1 757 1 is_stmt 0 view .LVU370
 1370 0000 30B5     		push	{r4, r5, lr}
 1371              		.cfi_def_cfa_offset 12
 1372              		.cfi_offset 4, -12
 1373              		.cfi_offset 5, -8
 1374              		.cfi_offset 14, -4
 1375 0002 83B0     		sub	sp, sp, #12
 1376              		.cfi_def_cfa_offset 24
ARM GAS  /tmp/ccOloYeZ.s 			page 40


 758:Core/Src/bno055.c ****     /* Variable used to return value of
 759:Core/Src/bno055.c ****      * communication routine*/
 760:Core/Src/bno055.c ****     BNO055_RETURN_FUNCTION_TYPE com_rslt = BNO055_ERROR;
 1377              		.loc 1 760 5 is_stmt 1 view .LVU371
 1378              	.LVL145:
 761:Core/Src/bno055.c **** 
 762:Core/Src/bno055.c ****     /* Array holding the accel y value
 763:Core/Src/bno055.c ****      * data_u8[BNO055_SENSOR_DATA_LSB] - y-LSB
 764:Core/Src/bno055.c ****      * data_u8[BNO055_SENSOR_DATA_MSB] - y-MSB
 765:Core/Src/bno055.c ****      */
 766:Core/Src/bno055.c ****     u8 data_u8[BNO055_ACCEL_DATA_SIZE] = { BNO055_INIT_VALUE, BNO055_INIT_VALUE };
 1379              		.loc 1 766 5 view .LVU372
 1380              		.loc 1 766 8 is_stmt 0 view .LVU373
 1381 0004 0023     		movs	r3, #0
 1382 0006 ADF80430 		strh	r3, [sp, #4]	@ movhi
 767:Core/Src/bno055.c ****     s8 stat_s8 = BNO055_ERROR;
 1383              		.loc 1 767 5 is_stmt 1 view .LVU374
 1384              	.LVL146:
 768:Core/Src/bno055.c **** 
 769:Core/Src/bno055.c ****     /* Check the struct p_bno055 is empty */
 770:Core/Src/bno055.c ****     if (p_bno055 == NULL)
 1385              		.loc 1 770 5 view .LVU375
 1386              		.loc 1 770 18 is_stmt 0 view .LVU376
 1387 000a 134B     		ldr	r3, .L109
 1388 000c 1B68     		ldr	r3, [r3]
 1389              		.loc 1 770 8 view .LVU377
 1390 000e EBB1     		cbz	r3, .L105
 1391 0010 0446     		mov	r4, r0
 771:Core/Src/bno055.c ****     {
 772:Core/Src/bno055.c ****         return BNO055_E_NULL_PTR;
 773:Core/Src/bno055.c ****     }
 774:Core/Src/bno055.c ****     else
 775:Core/Src/bno055.c ****     {
 776:Core/Src/bno055.c ****         /*condition check for page, chip id is
 777:Core/Src/bno055.c ****          * available in the page zero*/
 778:Core/Src/bno055.c ****         if (p_bno055->page_id != BNO055_PAGE_ZERO)
 1392              		.loc 1 778 9 is_stmt 1 view .LVU378
 1393              		.loc 1 778 21 is_stmt 0 view .LVU379
 1394 0012 1B79     		ldrb	r3, [r3, #4]	@ zero_extendqisi2
 1395              		.loc 1 778 12 view .LVU380
 1396 0014 A3B9     		cbnz	r3, .L108
 1397              	.LVL147:
 1398              	.L103:
 779:Core/Src/bno055.c ****         {
 780:Core/Src/bno055.c ****             /* Write the page zero*/
 781:Core/Src/bno055.c ****             stat_s8 = bno055_write_page_id(BNO055_PAGE_ZERO);
 782:Core/Src/bno055.c ****         }
 783:Core/Src/bno055.c ****         if ((stat_s8 == BNO055_SUCCESS) || (p_bno055->page_id == BNO055_PAGE_ZERO))
 1399              		.loc 1 783 53 discriminator 1 view .LVU381
 1400 0016 104B     		ldr	r3, .L109
 1401 0018 1B68     		ldr	r3, [r3]
 1402 001a 1B79     		ldrb	r3, [r3, #4]	@ zero_extendqisi2
 1403              		.loc 1 783 41 discriminator 1 view .LVU382
 1404 001c CBB9     		cbnz	r3, .L106
 1405              	.L104:
 784:Core/Src/bno055.c ****         {
 785:Core/Src/bno055.c ****             /* Read the accel y axis two byte value*/
ARM GAS  /tmp/ccOloYeZ.s 			page 41


 786:Core/Src/bno055.c ****             com_rslt = p_bno055->BNO055_BUS_READ_FUNC(p_bno055->dev_addr,
 1406              		.loc 1 786 13 is_stmt 1 view .LVU383
 1407              		.loc 1 786 32 is_stmt 0 view .LVU384
 1408 001e 0E4B     		ldr	r3, .L109
 1409 0020 1868     		ldr	r0, [r3]
 1410 0022 0569     		ldr	r5, [r0, #16]
 1411              		.loc 1 786 24 view .LVU385
 1412 0024 0223     		movs	r3, #2
 1413 0026 01AA     		add	r2, sp, #4
 1414 0028 0A21     		movs	r1, #10
 1415 002a 407A     		ldrb	r0, [r0, #9]	@ zero_extendqisi2
 1416 002c A847     		blx	r5
 1417              	.LVL148:
 787:Core/Src/bno055.c ****                                                       BNO055_ACCEL_DATA_Y_LSB_VALUEY_REG,
 788:Core/Src/bno055.c ****                                                       data_u8,
 789:Core/Src/bno055.c ****                                                       BNO055_LSB_MSB_READ_LENGTH);
 790:Core/Src/bno055.c ****             data_u8[BNO055_SENSOR_DATA_LSB] = BNO055_GET_BITSLICE(data_u8[BNO055_SENSOR_DATA_LSB],
 1418              		.loc 1 790 13 is_stmt 1 view .LVU386
 791:Core/Src/bno055.c ****                                                                   BNO055_ACCEL_DATA_Y_LSB_VALUEY);
 792:Core/Src/bno055.c ****             data_u8[BNO055_SENSOR_DATA_MSB] = BNO055_GET_BITSLICE(data_u8[BNO055_SENSOR_DATA_MSB],
 1419              		.loc 1 792 13 view .LVU387
 793:Core/Src/bno055.c ****                                                                   BNO055_ACCEL_DATA_Y_MSB_VALUEY);
 794:Core/Src/bno055.c ****             *accel_y_s16 =
 1420              		.loc 1 794 13 view .LVU388
 795:Core/Src/bno055.c ****                 (s16)((((s32)((s8)data_u8[BNO055_SENSOR_DATA_MSB])) << BNO055_SHIFT_EIGHT_BITS) |
 1421              		.loc 1 795 31 is_stmt 0 view .LVU389
 1422 002e 9DF90520 		ldrsb	r2, [sp, #5]
 796:Core/Src/bno055.c ****                       (data_u8[BNO055_SENSOR_DATA_LSB]));
 1423              		.loc 1 796 31 view .LVU390
 1424 0032 9DF80430 		ldrb	r3, [sp, #4]	@ zero_extendqisi2
 795:Core/Src/bno055.c ****                 (s16)((((s32)((s8)data_u8[BNO055_SENSOR_DATA_MSB])) << BNO055_SHIFT_EIGHT_BITS) |
 1425              		.loc 1 795 17 view .LVU391
 1426 0036 43EA0223 		orr	r3, r3, r2, lsl #8
 794:Core/Src/bno055.c ****                 (s16)((((s32)((s8)data_u8[BNO055_SENSOR_DATA_MSB])) << BNO055_SHIFT_EIGHT_BITS) |
 1427              		.loc 1 794 26 view .LVU392
 1428 003a 2380     		strh	r3, [r4]	@ movhi
 1429              	.LVL149:
 1430              	.L102:
 797:Core/Src/bno055.c ****         }
 798:Core/Src/bno055.c ****         else
 799:Core/Src/bno055.c ****         {
 800:Core/Src/bno055.c ****             com_rslt = BNO055_ERROR;
 801:Core/Src/bno055.c ****         }
 802:Core/Src/bno055.c ****     }
 803:Core/Src/bno055.c **** 
 804:Core/Src/bno055.c ****     return com_rslt;
 805:Core/Src/bno055.c **** }
 1431              		.loc 1 805 1 view .LVU393
 1432 003c 03B0     		add	sp, sp, #12
 1433              		.cfi_remember_state
 1434              		.cfi_def_cfa_offset 12
 1435              		@ sp needed
 1436 003e 30BD     		pop	{r4, r5, pc}
 1437              	.LVL150:
 1438              	.L108:
 1439              		.cfi_restore_state
 781:Core/Src/bno055.c ****         }
ARM GAS  /tmp/ccOloYeZ.s 			page 42


 1440              		.loc 1 781 13 is_stmt 1 view .LVU394
 781:Core/Src/bno055.c ****         }
 1441              		.loc 1 781 23 is_stmt 0 view .LVU395
 1442 0040 0020     		movs	r0, #0
 1443              	.LVL151:
 781:Core/Src/bno055.c ****         }
 1444              		.loc 1 781 23 view .LVU396
 1445 0042 FFF7FEFF 		bl	bno055_write_page_id
 1446              	.LVL152:
 783:Core/Src/bno055.c ****         {
 1447              		.loc 1 783 9 is_stmt 1 view .LVU397
 783:Core/Src/bno055.c ****         {
 1448              		.loc 1 783 12 is_stmt 0 view .LVU398
 1449 0046 0028     		cmp	r0, #0
 1450 0048 E9D0     		beq	.L104
 1451 004a E4E7     		b	.L103
 1452              	.LVL153:
 1453              	.L105:
 772:Core/Src/bno055.c ****     }
 1454              		.loc 1 772 16 view .LVU399
 1455 004c 6FF07E00 		mvn	r0, #126
 1456              	.LVL154:
 772:Core/Src/bno055.c ****     }
 1457              		.loc 1 772 16 view .LVU400
 1458 0050 F4E7     		b	.L102
 1459              	.LVL155:
 1460              	.L106:
 800:Core/Src/bno055.c ****         }
 1461              		.loc 1 800 22 view .LVU401
 1462 0052 4FF0FF30 		mov	r0, #-1
 1463 0056 F1E7     		b	.L102
 1464              	.L110:
 1465              		.align	2
 1466              	.L109:
 1467 0058 00000000 		.word	p_bno055
 1468              		.cfi_endproc
 1469              	.LFE12:
 1471              		.section	.text.bno055_read_accel_z,"ax",%progbits
 1472              		.align	1
 1473              		.global	bno055_read_accel_z
 1474              		.syntax unified
 1475              		.thumb
 1476              		.thumb_func
 1478              	bno055_read_accel_z:
 1479              	.LVL156:
 1480              	.LFB13:
 806:Core/Src/bno055.c **** 
 807:Core/Src/bno055.c **** /*!
 808:Core/Src/bno055.c ****  *  @brief This API reads acceleration data z values
 809:Core/Src/bno055.c ****  *  from register 0x0C and 0x0D it is a two byte data
 810:Core/Src/bno055.c ****  *
 811:Core/Src/bno055.c ****  *
 812:Core/Src/bno055.c ****  *
 813:Core/Src/bno055.c ****  *
 814:Core/Src/bno055.c ****  *  @param accel_z_s16 : The z raw data
 815:Core/Src/bno055.c ****  *
 816:Core/Src/bno055.c ****  *
ARM GAS  /tmp/ccOloYeZ.s 			page 43


 817:Core/Src/bno055.c ****  *
 818:Core/Src/bno055.c ****  *  @return results of bus communication function
 819:Core/Src/bno055.c ****  *  @retval 0 -> BNO055_SUCCESS
 820:Core/Src/bno055.c ****  *  @retval 1 -> BNO055_ERROR
 821:Core/Src/bno055.c ****  *
 822:Core/Src/bno055.c ****  *
 823:Core/Src/bno055.c ****  */
 824:Core/Src/bno055.c **** BNO055_RETURN_FUNCTION_TYPE bno055_read_accel_z(s16 *accel_z_s16)
 825:Core/Src/bno055.c **** {
 1481              		.loc 1 825 1 is_stmt 1 view -0
 1482              		.cfi_startproc
 1483              		@ args = 0, pretend = 0, frame = 8
 1484              		@ frame_needed = 0, uses_anonymous_args = 0
 1485              		.loc 1 825 1 is_stmt 0 view .LVU403
 1486 0000 30B5     		push	{r4, r5, lr}
 1487              		.cfi_def_cfa_offset 12
 1488              		.cfi_offset 4, -12
 1489              		.cfi_offset 5, -8
 1490              		.cfi_offset 14, -4
 1491 0002 83B0     		sub	sp, sp, #12
 1492              		.cfi_def_cfa_offset 24
 826:Core/Src/bno055.c ****     /* Variable used to return value of
 827:Core/Src/bno055.c ****      * communication routine*/
 828:Core/Src/bno055.c ****     BNO055_RETURN_FUNCTION_TYPE com_rslt = BNO055_ERROR;
 1493              		.loc 1 828 5 is_stmt 1 view .LVU404
 1494              	.LVL157:
 829:Core/Src/bno055.c **** 
 830:Core/Src/bno055.c ****     /* Array holding the accel z value
 831:Core/Src/bno055.c ****      * data_u8[BNO055_SENSOR_DATA_LSB] - z-LSB
 832:Core/Src/bno055.c ****      * data_u8[BNO055_SENSOR_DATA_MSB] - z-MSB
 833:Core/Src/bno055.c ****      */
 834:Core/Src/bno055.c ****     u8 data_u8[BNO055_ACCEL_DATA_SIZE] = { BNO055_INIT_VALUE, BNO055_INIT_VALUE };
 1495              		.loc 1 834 5 view .LVU405
 1496              		.loc 1 834 8 is_stmt 0 view .LVU406
 1497 0004 0023     		movs	r3, #0
 1498 0006 ADF80430 		strh	r3, [sp, #4]	@ movhi
 835:Core/Src/bno055.c ****     s8 stat_s8 = BNO055_ERROR;
 1499              		.loc 1 835 5 is_stmt 1 view .LVU407
 1500              	.LVL158:
 836:Core/Src/bno055.c **** 
 837:Core/Src/bno055.c ****     /* Check the struct p_bno055 is empty */
 838:Core/Src/bno055.c ****     if (p_bno055 == NULL)
 1501              		.loc 1 838 5 view .LVU408
 1502              		.loc 1 838 18 is_stmt 0 view .LVU409
 1503 000a 134B     		ldr	r3, .L119
 1504 000c 1B68     		ldr	r3, [r3]
 1505              		.loc 1 838 8 view .LVU410
 1506 000e EBB1     		cbz	r3, .L115
 1507 0010 0446     		mov	r4, r0
 839:Core/Src/bno055.c ****     {
 840:Core/Src/bno055.c ****         return BNO055_E_NULL_PTR;
 841:Core/Src/bno055.c ****     }
 842:Core/Src/bno055.c ****     else
 843:Core/Src/bno055.c ****     {
 844:Core/Src/bno055.c ****         /*condition check for page, chip id is
 845:Core/Src/bno055.c ****          * available in the page zero*/
 846:Core/Src/bno055.c ****         if (p_bno055->page_id != BNO055_PAGE_ZERO)
ARM GAS  /tmp/ccOloYeZ.s 			page 44


 1508              		.loc 1 846 9 is_stmt 1 view .LVU411
 1509              		.loc 1 846 21 is_stmt 0 view .LVU412
 1510 0012 1B79     		ldrb	r3, [r3, #4]	@ zero_extendqisi2
 1511              		.loc 1 846 12 view .LVU413
 1512 0014 A3B9     		cbnz	r3, .L118
 1513              	.LVL159:
 1514              	.L113:
 847:Core/Src/bno055.c ****         {
 848:Core/Src/bno055.c ****             /* Write the page zero*/
 849:Core/Src/bno055.c ****             stat_s8 = bno055_write_page_id(BNO055_PAGE_ZERO);
 850:Core/Src/bno055.c ****         }
 851:Core/Src/bno055.c ****         if ((stat_s8 == BNO055_SUCCESS) || (p_bno055->page_id == BNO055_PAGE_ZERO))
 1515              		.loc 1 851 53 discriminator 1 view .LVU414
 1516 0016 104B     		ldr	r3, .L119
 1517 0018 1B68     		ldr	r3, [r3]
 1518 001a 1B79     		ldrb	r3, [r3, #4]	@ zero_extendqisi2
 1519              		.loc 1 851 41 discriminator 1 view .LVU415
 1520 001c CBB9     		cbnz	r3, .L116
 1521              	.L114:
 852:Core/Src/bno055.c ****         {
 853:Core/Src/bno055.c ****             /* Read the accel z axis two byte value*/
 854:Core/Src/bno055.c ****             com_rslt = p_bno055->BNO055_BUS_READ_FUNC(p_bno055->dev_addr,
 1522              		.loc 1 854 13 is_stmt 1 view .LVU416
 1523              		.loc 1 854 32 is_stmt 0 view .LVU417
 1524 001e 0E4B     		ldr	r3, .L119
 1525 0020 1868     		ldr	r0, [r3]
 1526 0022 0569     		ldr	r5, [r0, #16]
 1527              		.loc 1 854 24 view .LVU418
 1528 0024 0223     		movs	r3, #2
 1529 0026 01AA     		add	r2, sp, #4
 1530 0028 0C21     		movs	r1, #12
 1531 002a 407A     		ldrb	r0, [r0, #9]	@ zero_extendqisi2
 1532 002c A847     		blx	r5
 1533              	.LVL160:
 855:Core/Src/bno055.c ****                                                       BNO055_ACCEL_DATA_Z_LSB_VALUEZ_REG,
 856:Core/Src/bno055.c ****                                                       data_u8,
 857:Core/Src/bno055.c ****                                                       BNO055_LSB_MSB_READ_LENGTH);
 858:Core/Src/bno055.c ****             data_u8[BNO055_SENSOR_DATA_LSB] = BNO055_GET_BITSLICE(data_u8[BNO055_SENSOR_DATA_LSB],
 1534              		.loc 1 858 13 is_stmt 1 view .LVU419
 859:Core/Src/bno055.c ****                                                                   BNO055_ACCEL_DATA_Z_LSB_VALUEZ);
 860:Core/Src/bno055.c ****             data_u8[BNO055_SENSOR_DATA_MSB] = BNO055_GET_BITSLICE(data_u8[BNO055_SENSOR_DATA_MSB],
 1535              		.loc 1 860 13 view .LVU420
 861:Core/Src/bno055.c ****                                                                   BNO055_ACCEL_DATA_Z_MSB_VALUEZ);
 862:Core/Src/bno055.c ****             *accel_z_s16 =
 1536              		.loc 1 862 13 view .LVU421
 863:Core/Src/bno055.c ****                 (s16)((((s32)((s8)data_u8[BNO055_SENSOR_DATA_MSB])) << BNO055_SHIFT_EIGHT_BITS) |
 1537              		.loc 1 863 31 is_stmt 0 view .LVU422
 1538 002e 9DF90520 		ldrsb	r2, [sp, #5]
 864:Core/Src/bno055.c ****                       (data_u8[BNO055_SENSOR_DATA_LSB]));
 1539              		.loc 1 864 31 view .LVU423
 1540 0032 9DF80430 		ldrb	r3, [sp, #4]	@ zero_extendqisi2
 863:Core/Src/bno055.c ****                 (s16)((((s32)((s8)data_u8[BNO055_SENSOR_DATA_MSB])) << BNO055_SHIFT_EIGHT_BITS) |
 1541              		.loc 1 863 17 view .LVU424
 1542 0036 43EA0223 		orr	r3, r3, r2, lsl #8
 862:Core/Src/bno055.c ****                 (s16)((((s32)((s8)data_u8[BNO055_SENSOR_DATA_MSB])) << BNO055_SHIFT_EIGHT_BITS) |
 1543              		.loc 1 862 26 view .LVU425
 1544 003a 2380     		strh	r3, [r4]	@ movhi
ARM GAS  /tmp/ccOloYeZ.s 			page 45


 1545              	.LVL161:
 1546              	.L112:
 865:Core/Src/bno055.c ****         }
 866:Core/Src/bno055.c ****         else
 867:Core/Src/bno055.c ****         {
 868:Core/Src/bno055.c ****             com_rslt = BNO055_ERROR;
 869:Core/Src/bno055.c ****         }
 870:Core/Src/bno055.c ****     }
 871:Core/Src/bno055.c **** 
 872:Core/Src/bno055.c ****     return com_rslt;
 873:Core/Src/bno055.c **** }
 1547              		.loc 1 873 1 view .LVU426
 1548 003c 03B0     		add	sp, sp, #12
 1549              		.cfi_remember_state
 1550              		.cfi_def_cfa_offset 12
 1551              		@ sp needed
 1552 003e 30BD     		pop	{r4, r5, pc}
 1553              	.LVL162:
 1554              	.L118:
 1555              		.cfi_restore_state
 849:Core/Src/bno055.c ****         }
 1556              		.loc 1 849 13 is_stmt 1 view .LVU427
 849:Core/Src/bno055.c ****         }
 1557              		.loc 1 849 23 is_stmt 0 view .LVU428
 1558 0040 0020     		movs	r0, #0
 1559              	.LVL163:
 849:Core/Src/bno055.c ****         }
 1560              		.loc 1 849 23 view .LVU429
 1561 0042 FFF7FEFF 		bl	bno055_write_page_id
 1562              	.LVL164:
 851:Core/Src/bno055.c ****         {
 1563              		.loc 1 851 9 is_stmt 1 view .LVU430
 851:Core/Src/bno055.c ****         {
 1564              		.loc 1 851 12 is_stmt 0 view .LVU431
 1565 0046 0028     		cmp	r0, #0
 1566 0048 E9D0     		beq	.L114
 1567 004a E4E7     		b	.L113
 1568              	.LVL165:
 1569              	.L115:
 840:Core/Src/bno055.c ****     }
 1570              		.loc 1 840 16 view .LVU432
 1571 004c 6FF07E00 		mvn	r0, #126
 1572              	.LVL166:
 840:Core/Src/bno055.c ****     }
 1573              		.loc 1 840 16 view .LVU433
 1574 0050 F4E7     		b	.L112
 1575              	.LVL167:
 1576              	.L116:
 868:Core/Src/bno055.c ****         }
 1577              		.loc 1 868 22 view .LVU434
 1578 0052 4FF0FF30 		mov	r0, #-1
 1579 0056 F1E7     		b	.L112
 1580              	.L120:
 1581              		.align	2
 1582              	.L119:
 1583 0058 00000000 		.word	p_bno055
 1584              		.cfi_endproc
ARM GAS  /tmp/ccOloYeZ.s 			page 46


 1585              	.LFE13:
 1587              		.section	.text.bno055_read_accel_xyz,"ax",%progbits
 1588              		.align	1
 1589              		.global	bno055_read_accel_xyz
 1590              		.syntax unified
 1591              		.thumb
 1592              		.thumb_func
 1594              	bno055_read_accel_xyz:
 1595              	.LVL168:
 1596              	.LFB14:
 874:Core/Src/bno055.c **** 
 875:Core/Src/bno055.c **** /*!
 876:Core/Src/bno055.c ****  *  @brief This API reads acceleration data xyz values
 877:Core/Src/bno055.c ****  *  from register 0x08 to 0x0D it is a six byte data
 878:Core/Src/bno055.c ****  *
 879:Core/Src/bno055.c ****  *
 880:Core/Src/bno055.c ****  *  @param accel : The value of accel xyz data
 881:Core/Src/bno055.c ****  *
 882:Core/Src/bno055.c ****  *  Parameter |    result
 883:Core/Src/bno055.c ****  *  --------- | -----------------
 884:Core/Src/bno055.c ****  *   x        | The accel x data
 885:Core/Src/bno055.c ****  *   y        | The accel y data
 886:Core/Src/bno055.c ****  *   z        | The accel z data
 887:Core/Src/bno055.c ****  *
 888:Core/Src/bno055.c ****  *
 889:Core/Src/bno055.c ****  *
 890:Core/Src/bno055.c ****  *  @return results of bus communication function
 891:Core/Src/bno055.c ****  *  @retval 0 -> BNO055_SUCCESS
 892:Core/Src/bno055.c ****  *  @retval 1 -> BNO055_ERROR
 893:Core/Src/bno055.c ****  *
 894:Core/Src/bno055.c ****  */
 895:Core/Src/bno055.c **** BNO055_RETURN_FUNCTION_TYPE bno055_read_accel_xyz(struct bno055_accel_t *accel)
 896:Core/Src/bno055.c **** {
 1597              		.loc 1 896 1 is_stmt 1 view -0
 1598              		.cfi_startproc
 1599              		@ args = 0, pretend = 0, frame = 8
 1600              		@ frame_needed = 0, uses_anonymous_args = 0
 1601              		.loc 1 896 1 is_stmt 0 view .LVU436
 1602 0000 30B5     		push	{r4, r5, lr}
 1603              		.cfi_def_cfa_offset 12
 1604              		.cfi_offset 4, -12
 1605              		.cfi_offset 5, -8
 1606              		.cfi_offset 14, -4
 1607 0002 83B0     		sub	sp, sp, #12
 1608              		.cfi_def_cfa_offset 24
 1609 0004 0446     		mov	r4, r0
 897:Core/Src/bno055.c ****     /* Variable used to return value of
 898:Core/Src/bno055.c ****      * communication routine*/
 899:Core/Src/bno055.c ****     BNO055_RETURN_FUNCTION_TYPE com_rslt = BNO055_ERROR;
 1610              		.loc 1 899 5 is_stmt 1 view .LVU437
 1611              	.LVL169:
 900:Core/Src/bno055.c **** 
 901:Core/Src/bno055.c ****     /* Array holding the accel xyz value
 902:Core/Src/bno055.c ****      * data_u8[BNO055_SENSOR_DATA_XYZ_X_LSB] - x->LSB
 903:Core/Src/bno055.c ****      * data_u8[BNO055_SENSOR_DATA_XYZ_X_MSB] - x->MSB
 904:Core/Src/bno055.c ****      * data_u8[BNO055_SENSOR_DATA_XYZ_Y_LSB] - y->MSB
 905:Core/Src/bno055.c ****      * data_u8[BNO055_SENSOR_DATA_XYZ_Y_MSB] - y->MSB
ARM GAS  /tmp/ccOloYeZ.s 			page 47


 906:Core/Src/bno055.c ****      * data_u8[BNO055_SENSOR_DATA_XYZ_Z_LSB] - z->MSB
 907:Core/Src/bno055.c ****      * data_u8[BNO055_SENSOR_DATA_XYZ_Z_MSB] - z->MSB
 908:Core/Src/bno055.c ****      */
 909:Core/Src/bno055.c ****     u8 data_u8[BNO055_ACCEL_XYZ_DATA_SIZE] = {
 1612              		.loc 1 909 5 view .LVU438
 1613              		.loc 1 909 8 is_stmt 0 view .LVU439
 1614 0006 1D4B     		ldr	r3, .L129
 1615 0008 93E80300 		ldm	r3, {r0, r1}
 1616              	.LVL170:
 1617              		.loc 1 909 8 view .LVU440
 1618 000c 0090     		str	r0, [sp]
 1619 000e ADF80410 		strh	r1, [sp, #4]	@ movhi
 910:Core/Src/bno055.c ****         BNO055_INIT_VALUE, BNO055_INIT_VALUE, BNO055_INIT_VALUE, BNO055_INIT_VALUE, BNO055_INIT_VAL
 911:Core/Src/bno055.c ****     };
 912:Core/Src/bno055.c ****     s8 stat_s8 = BNO055_ERROR;
 1620              		.loc 1 912 5 is_stmt 1 view .LVU441
 1621              	.LVL171:
 913:Core/Src/bno055.c **** 
 914:Core/Src/bno055.c ****     /* Check the struct p_bno055 is empty */
 915:Core/Src/bno055.c ****     if (p_bno055 == NULL)
 1622              		.loc 1 915 5 view .LVU442
 1623              		.loc 1 915 18 is_stmt 0 view .LVU443
 1624 0012 1B4B     		ldr	r3, .L129+4
 1625 0014 1B68     		ldr	r3, [r3]
 1626              		.loc 1 915 8 view .LVU444
 1627 0016 53B3     		cbz	r3, .L125
 916:Core/Src/bno055.c ****     {
 917:Core/Src/bno055.c ****         return BNO055_E_NULL_PTR;
 918:Core/Src/bno055.c ****     }
 919:Core/Src/bno055.c ****     else
 920:Core/Src/bno055.c ****     {
 921:Core/Src/bno055.c ****         /*condition check for page, chip id is
 922:Core/Src/bno055.c ****          * available in the page zero*/
 923:Core/Src/bno055.c ****         if (p_bno055->page_id != BNO055_PAGE_ZERO)
 1628              		.loc 1 923 9 is_stmt 1 view .LVU445
 1629              		.loc 1 923 21 is_stmt 0 view .LVU446
 1630 0018 1B79     		ldrb	r3, [r3, #4]	@ zero_extendqisi2
 1631              		.loc 1 923 12 view .LVU447
 1632 001a 13BB     		cbnz	r3, .L128
 1633              	.LVL172:
 1634              	.L123:
 924:Core/Src/bno055.c ****         {
 925:Core/Src/bno055.c ****             /* Write the page zero*/
 926:Core/Src/bno055.c ****             stat_s8 = bno055_write_page_id(BNO055_PAGE_ZERO);
 927:Core/Src/bno055.c ****         }
 928:Core/Src/bno055.c ****         if ((stat_s8 == BNO055_SUCCESS) || (p_bno055->page_id == BNO055_PAGE_ZERO))
 1635              		.loc 1 928 53 discriminator 1 view .LVU448
 1636 001c 184B     		ldr	r3, .L129+4
 1637 001e 1B68     		ldr	r3, [r3]
 1638 0020 1B79     		ldrb	r3, [r3, #4]	@ zero_extendqisi2
 1639              		.loc 1 928 41 discriminator 1 view .LVU449
 1640 0022 3BBB     		cbnz	r3, .L126
 1641              	.L124:
 929:Core/Src/bno055.c ****         {
 930:Core/Src/bno055.c ****             com_rslt = p_bno055->BNO055_BUS_READ_FUNC(p_bno055->dev_addr,
 1642              		.loc 1 930 13 is_stmt 1 view .LVU450
 1643              		.loc 1 930 32 is_stmt 0 view .LVU451
ARM GAS  /tmp/ccOloYeZ.s 			page 48


 1644 0024 164B     		ldr	r3, .L129+4
 1645 0026 1868     		ldr	r0, [r3]
 1646 0028 0569     		ldr	r5, [r0, #16]
 1647              		.loc 1 930 24 view .LVU452
 1648 002a 0623     		movs	r3, #6
 1649 002c 6A46     		mov	r2, sp
 1650 002e 0821     		movs	r1, #8
 1651 0030 407A     		ldrb	r0, [r0, #9]	@ zero_extendqisi2
 1652 0032 A847     		blx	r5
 1653              	.LVL173:
 931:Core/Src/bno055.c ****                                                       BNO055_ACCEL_DATA_X_LSB_VALUEX_REG,
 932:Core/Src/bno055.c ****                                                       data_u8,
 933:Core/Src/bno055.c ****                                                       BNO055_ACCEL_XYZ_DATA_SIZE);
 934:Core/Src/bno055.c **** 
 935:Core/Src/bno055.c ****             /* Data X*/
 936:Core/Src/bno055.c ****             data_u8[BNO055_SENSOR_DATA_XYZ_X_LSB] = BNO055_GET_BITSLICE(data_u8[BNO055_SENSOR_DATA_
 1654              		.loc 1 936 13 is_stmt 1 view .LVU453
 937:Core/Src/bno055.c ****                                                                         BNO055_ACCEL_DATA_X_LSB_VAL
 938:Core/Src/bno055.c ****             data_u8[BNO055_SENSOR_DATA_XYZ_X_MSB] = BNO055_GET_BITSLICE(data_u8[BNO055_SENSOR_DATA_
 1655              		.loc 1 938 13 view .LVU454
 939:Core/Src/bno055.c ****                                                                         BNO055_ACCEL_DATA_X_MSB_VAL
 940:Core/Src/bno055.c ****             accel->x =
 1656              		.loc 1 940 13 view .LVU455
 941:Core/Src/bno055.c ****                 (s16)((((s32)((s8)data_u8[BNO055_SENSOR_DATA_XYZ_X_MSB])) << BNO055_SHIFT_EIGHT_BIT
 1657              		.loc 1 941 31 is_stmt 0 view .LVU456
 1658 0034 9DF90120 		ldrsb	r2, [sp, #1]
 942:Core/Src/bno055.c ****                       (data_u8[BNO055_SENSOR_DATA_XYZ_X_LSB]));
 1659              		.loc 1 942 31 view .LVU457
 1660 0038 9DF80030 		ldrb	r3, [sp]	@ zero_extendqisi2
 941:Core/Src/bno055.c ****                 (s16)((((s32)((s8)data_u8[BNO055_SENSOR_DATA_XYZ_X_MSB])) << BNO055_SHIFT_EIGHT_BIT
 1661              		.loc 1 941 17 view .LVU458
 1662 003c 43EA0223 		orr	r3, r3, r2, lsl #8
 940:Core/Src/bno055.c ****                 (s16)((((s32)((s8)data_u8[BNO055_SENSOR_DATA_XYZ_X_MSB])) << BNO055_SHIFT_EIGHT_BIT
 1663              		.loc 1 940 22 view .LVU459
 1664 0040 2380     		strh	r3, [r4]	@ movhi
 943:Core/Src/bno055.c **** 
 944:Core/Src/bno055.c ****             /* Data Y*/
 945:Core/Src/bno055.c ****             data_u8[BNO055_SENSOR_DATA_XYZ_Y_LSB] = BNO055_GET_BITSLICE(data_u8[BNO055_SENSOR_DATA_
 1665              		.loc 1 945 13 is_stmt 1 view .LVU460
 946:Core/Src/bno055.c ****                                                                         BNO055_ACCEL_DATA_Y_LSB_VAL
 947:Core/Src/bno055.c ****             data_u8[BNO055_SENSOR_DATA_XYZ_Y_MSB] = BNO055_GET_BITSLICE(data_u8[BNO055_SENSOR_DATA_
 1666              		.loc 1 947 13 view .LVU461
 948:Core/Src/bno055.c ****                                                                         BNO055_ACCEL_DATA_Y_MSB_VAL
 949:Core/Src/bno055.c ****             accel->y =
 1667              		.loc 1 949 13 view .LVU462
 950:Core/Src/bno055.c ****                 (s16)((((s32)((s8)data_u8[BNO055_SENSOR_DATA_XYZ_Y_MSB])) << BNO055_SHIFT_EIGHT_BIT
 1668              		.loc 1 950 31 is_stmt 0 view .LVU463
 1669 0042 9DF90320 		ldrsb	r2, [sp, #3]
 951:Core/Src/bno055.c ****                       (data_u8[BNO055_SENSOR_DATA_XYZ_Y_LSB]));
 1670              		.loc 1 951 31 view .LVU464
 1671 0046 9DF80230 		ldrb	r3, [sp, #2]	@ zero_extendqisi2
 950:Core/Src/bno055.c ****                 (s16)((((s32)((s8)data_u8[BNO055_SENSOR_DATA_XYZ_Y_MSB])) << BNO055_SHIFT_EIGHT_BIT
 1672              		.loc 1 950 17 view .LVU465
 1673 004a 43EA0223 		orr	r3, r3, r2, lsl #8
 949:Core/Src/bno055.c ****                 (s16)((((s32)((s8)data_u8[BNO055_SENSOR_DATA_XYZ_Y_MSB])) << BNO055_SHIFT_EIGHT_BIT
 1674              		.loc 1 949 22 view .LVU466
 1675 004e 6380     		strh	r3, [r4, #2]	@ movhi
ARM GAS  /tmp/ccOloYeZ.s 			page 49


 952:Core/Src/bno055.c **** 
 953:Core/Src/bno055.c ****             /* Data Z*/
 954:Core/Src/bno055.c ****             data_u8[BNO055_SENSOR_DATA_XYZ_Z_LSB] = BNO055_GET_BITSLICE(data_u8[BNO055_SENSOR_DATA_
 1676              		.loc 1 954 13 is_stmt 1 view .LVU467
 955:Core/Src/bno055.c ****                                                                         BNO055_ACCEL_DATA_Z_LSB_VAL
 956:Core/Src/bno055.c ****             data_u8[BNO055_SENSOR_DATA_XYZ_Z_MSB] = BNO055_GET_BITSLICE(data_u8[BNO055_SENSOR_DATA_
 1677              		.loc 1 956 13 view .LVU468
 957:Core/Src/bno055.c ****                                                                         BNO055_ACCEL_DATA_Z_MSB_VAL
 958:Core/Src/bno055.c ****             accel->z =
 1678              		.loc 1 958 13 view .LVU469
 959:Core/Src/bno055.c ****                 (s16)((((s32)((s8)data_u8[BNO055_SENSOR_DATA_XYZ_Z_MSB])) << BNO055_SHIFT_EIGHT_BIT
 1679              		.loc 1 959 31 is_stmt 0 view .LVU470
 1680 0050 9DF90520 		ldrsb	r2, [sp, #5]
 960:Core/Src/bno055.c ****                       (data_u8[BNO055_SENSOR_DATA_XYZ_Z_LSB]));
 1681              		.loc 1 960 31 view .LVU471
 1682 0054 9DF80430 		ldrb	r3, [sp, #4]	@ zero_extendqisi2
 959:Core/Src/bno055.c ****                 (s16)((((s32)((s8)data_u8[BNO055_SENSOR_DATA_XYZ_Z_MSB])) << BNO055_SHIFT_EIGHT_BIT
 1683              		.loc 1 959 17 view .LVU472
 1684 0058 43EA0223 		orr	r3, r3, r2, lsl #8
 958:Core/Src/bno055.c ****                 (s16)((((s32)((s8)data_u8[BNO055_SENSOR_DATA_XYZ_Z_MSB])) << BNO055_SHIFT_EIGHT_BIT
 1685              		.loc 1 958 22 view .LVU473
 1686 005c A380     		strh	r3, [r4, #4]	@ movhi
 1687              	.LVL174:
 1688              	.L122:
 961:Core/Src/bno055.c ****         }
 962:Core/Src/bno055.c ****         else
 963:Core/Src/bno055.c ****         {
 964:Core/Src/bno055.c ****             com_rslt = BNO055_ERROR;
 965:Core/Src/bno055.c ****         }
 966:Core/Src/bno055.c ****     }
 967:Core/Src/bno055.c **** 
 968:Core/Src/bno055.c ****     return com_rslt;
 969:Core/Src/bno055.c **** }
 1689              		.loc 1 969 1 view .LVU474
 1690 005e 03B0     		add	sp, sp, #12
 1691              		.cfi_remember_state
 1692              		.cfi_def_cfa_offset 12
 1693              		@ sp needed
 1694 0060 30BD     		pop	{r4, r5, pc}
 1695              	.LVL175:
 1696              	.L128:
 1697              		.cfi_restore_state
 926:Core/Src/bno055.c ****         }
 1698              		.loc 1 926 13 is_stmt 1 view .LVU475
 926:Core/Src/bno055.c ****         }
 1699              		.loc 1 926 23 is_stmt 0 view .LVU476
 1700 0062 0020     		movs	r0, #0
 1701 0064 FFF7FEFF 		bl	bno055_write_page_id
 1702              	.LVL176:
 928:Core/Src/bno055.c ****         {
 1703              		.loc 1 928 9 is_stmt 1 view .LVU477
 928:Core/Src/bno055.c ****         {
 1704              		.loc 1 928 12 is_stmt 0 view .LVU478
 1705 0068 0028     		cmp	r0, #0
 1706 006a DBD0     		beq	.L124
 1707 006c D6E7     		b	.L123
 1708              	.LVL177:
ARM GAS  /tmp/ccOloYeZ.s 			page 50


 1709              	.L125:
 917:Core/Src/bno055.c ****     }
 1710              		.loc 1 917 16 view .LVU479
 1711 006e 6FF07E00 		mvn	r0, #126
 1712 0072 F4E7     		b	.L122
 1713              	.LVL178:
 1714              	.L126:
 964:Core/Src/bno055.c ****         }
 1715              		.loc 1 964 22 view .LVU480
 1716 0074 4FF0FF30 		mov	r0, #-1
 1717 0078 F1E7     		b	.L122
 1718              	.L130:
 1719 007a 00BF     		.align	2
 1720              	.L129:
 1721 007c 00000000 		.word	.LANCHOR0
 1722 0080 00000000 		.word	p_bno055
 1723              		.cfi_endproc
 1724              	.LFE14:
 1726              		.section	.text.bno055_read_mag_x,"ax",%progbits
 1727              		.align	1
 1728              		.global	bno055_read_mag_x
 1729              		.syntax unified
 1730              		.thumb
 1731              		.thumb_func
 1733              	bno055_read_mag_x:
 1734              	.LVL179:
 1735              	.LFB15:
 970:Core/Src/bno055.c **** 
 971:Core/Src/bno055.c **** /*!
 972:Core/Src/bno055.c ****  *  @brief This API reads mag data x values
 973:Core/Src/bno055.c ****  *  from register 0x0E and 0x0F it is a two byte data
 974:Core/Src/bno055.c ****  *
 975:Core/Src/bno055.c ****  *
 976:Core/Src/bno055.c ****  *
 977:Core/Src/bno055.c ****  *
 978:Core/Src/bno055.c ****  *  @param mag_x_s16 : The x raw data
 979:Core/Src/bno055.c ****  *
 980:Core/Src/bno055.c ****  *
 981:Core/Src/bno055.c ****  *
 982:Core/Src/bno055.c ****  *  @return results of bus communication function
 983:Core/Src/bno055.c ****  *  @retval 0 -> BNO055_SUCCESS
 984:Core/Src/bno055.c ****  *  @retval 1 -> BNO055_ERROR
 985:Core/Src/bno055.c ****  *
 986:Core/Src/bno055.c ****  *
 987:Core/Src/bno055.c ****  *
 988:Core/Src/bno055.c ****  */
 989:Core/Src/bno055.c **** BNO055_RETURN_FUNCTION_TYPE bno055_read_mag_x(s16 *mag_x_s16)
 990:Core/Src/bno055.c **** {
 1736              		.loc 1 990 1 is_stmt 1 view -0
 1737              		.cfi_startproc
 1738              		@ args = 0, pretend = 0, frame = 8
 1739              		@ frame_needed = 0, uses_anonymous_args = 0
 1740              		.loc 1 990 1 is_stmt 0 view .LVU482
 1741 0000 30B5     		push	{r4, r5, lr}
 1742              		.cfi_def_cfa_offset 12
 1743              		.cfi_offset 4, -12
 1744              		.cfi_offset 5, -8
ARM GAS  /tmp/ccOloYeZ.s 			page 51


 1745              		.cfi_offset 14, -4
 1746 0002 83B0     		sub	sp, sp, #12
 1747              		.cfi_def_cfa_offset 24
 991:Core/Src/bno055.c ****     /* Variable used to return value of
 992:Core/Src/bno055.c ****      * communication routine*/
 993:Core/Src/bno055.c ****     BNO055_RETURN_FUNCTION_TYPE com_rslt = BNO055_ERROR;
 1748              		.loc 1 993 5 is_stmt 1 view .LVU483
 1749              	.LVL180:
 994:Core/Src/bno055.c **** 
 995:Core/Src/bno055.c ****     /* Array holding the mag x value
 996:Core/Src/bno055.c ****      * data_u8[BNO055_SENSOR_DATA_LSB] - x->LSB
 997:Core/Src/bno055.c ****      * data_u8[BNO055_SENSOR_DATA_MSB] - x->MSB
 998:Core/Src/bno055.c ****      */
 999:Core/Src/bno055.c ****     u8 data_u8[BNO055_MAG_DATA_SIZE] = { BNO055_INIT_VALUE, BNO055_INIT_VALUE };
 1750              		.loc 1 999 5 view .LVU484
 1751              		.loc 1 999 8 is_stmt 0 view .LVU485
 1752 0004 0023     		movs	r3, #0
 1753 0006 ADF80430 		strh	r3, [sp, #4]	@ movhi
1000:Core/Src/bno055.c ****     s8 stat_s8 = BNO055_ERROR;
 1754              		.loc 1 1000 5 is_stmt 1 view .LVU486
 1755              	.LVL181:
1001:Core/Src/bno055.c **** 
1002:Core/Src/bno055.c ****     /* Check the struct p_bno055 is empty */
1003:Core/Src/bno055.c ****     if (p_bno055 == NULL)
 1756              		.loc 1 1003 5 view .LVU487
 1757              		.loc 1 1003 18 is_stmt 0 view .LVU488
 1758 000a 134B     		ldr	r3, .L139
 1759 000c 1B68     		ldr	r3, [r3]
 1760              		.loc 1 1003 8 view .LVU489
 1761 000e EBB1     		cbz	r3, .L135
 1762 0010 0446     		mov	r4, r0
1004:Core/Src/bno055.c ****     {
1005:Core/Src/bno055.c ****         return BNO055_E_NULL_PTR;
1006:Core/Src/bno055.c ****     }
1007:Core/Src/bno055.c ****     else
1008:Core/Src/bno055.c ****     {
1009:Core/Src/bno055.c ****         /*condition check for page, chip id is
1010:Core/Src/bno055.c ****          * available in the page zero*/
1011:Core/Src/bno055.c ****         if (p_bno055->page_id != BNO055_PAGE_ZERO)
 1763              		.loc 1 1011 9 is_stmt 1 view .LVU490
 1764              		.loc 1 1011 21 is_stmt 0 view .LVU491
 1765 0012 1B79     		ldrb	r3, [r3, #4]	@ zero_extendqisi2
 1766              		.loc 1 1011 12 view .LVU492
 1767 0014 A3B9     		cbnz	r3, .L138
 1768              	.LVL182:
 1769              	.L133:
1012:Core/Src/bno055.c ****         {
1013:Core/Src/bno055.c ****             /* Write the page zero*/
1014:Core/Src/bno055.c ****             stat_s8 = bno055_write_page_id(BNO055_PAGE_ZERO);
1015:Core/Src/bno055.c ****         }
1016:Core/Src/bno055.c ****         if ((stat_s8 == BNO055_SUCCESS) || (p_bno055->page_id == BNO055_PAGE_ZERO))
 1770              		.loc 1 1016 53 discriminator 1 view .LVU493
 1771 0016 104B     		ldr	r3, .L139
 1772 0018 1B68     		ldr	r3, [r3]
 1773 001a 1B79     		ldrb	r3, [r3, #4]	@ zero_extendqisi2
 1774              		.loc 1 1016 41 discriminator 1 view .LVU494
 1775 001c CBB9     		cbnz	r3, .L136
ARM GAS  /tmp/ccOloYeZ.s 			page 52


 1776              	.L134:
1017:Core/Src/bno055.c ****         {
1018:Core/Src/bno055.c ****             /*Read the mag x two bytes of data */
1019:Core/Src/bno055.c ****             com_rslt = p_bno055->BNO055_BUS_READ_FUNC(p_bno055->dev_addr,
 1777              		.loc 1 1019 13 is_stmt 1 view .LVU495
 1778              		.loc 1 1019 32 is_stmt 0 view .LVU496
 1779 001e 0E4B     		ldr	r3, .L139
 1780 0020 1868     		ldr	r0, [r3]
 1781 0022 0569     		ldr	r5, [r0, #16]
 1782              		.loc 1 1019 24 view .LVU497
 1783 0024 0223     		movs	r3, #2
 1784 0026 01AA     		add	r2, sp, #4
 1785 0028 0E21     		movs	r1, #14
 1786 002a 407A     		ldrb	r0, [r0, #9]	@ zero_extendqisi2
 1787 002c A847     		blx	r5
 1788              	.LVL183:
1020:Core/Src/bno055.c ****                                                       BNO055_MAG_DATA_X_LSB_VALUEX_REG,
1021:Core/Src/bno055.c ****                                                       data_u8,
1022:Core/Src/bno055.c ****                                                       BNO055_LSB_MSB_READ_LENGTH);
1023:Core/Src/bno055.c ****             data_u8[BNO055_SENSOR_DATA_LSB] = BNO055_GET_BITSLICE(data_u8[BNO055_SENSOR_DATA_LSB],
 1789              		.loc 1 1023 13 is_stmt 1 view .LVU498
1024:Core/Src/bno055.c ****                                                                   BNO055_MAG_DATA_X_LSB_VALUEX);
1025:Core/Src/bno055.c ****             data_u8[BNO055_SENSOR_DATA_MSB] = BNO055_GET_BITSLICE(data_u8[BNO055_SENSOR_DATA_MSB],
 1790              		.loc 1 1025 13 view .LVU499
1026:Core/Src/bno055.c ****                                                                   BNO055_MAG_DATA_X_MSB_VALUEX);
1027:Core/Src/bno055.c ****             *mag_x_s16 =
 1791              		.loc 1 1027 13 view .LVU500
1028:Core/Src/bno055.c ****                 (s16)((((s32)((s8)data_u8[BNO055_SENSOR_DATA_MSB])) << BNO055_SHIFT_EIGHT_BITS) |
 1792              		.loc 1 1028 31 is_stmt 0 view .LVU501
 1793 002e 9DF90520 		ldrsb	r2, [sp, #5]
1029:Core/Src/bno055.c ****                       (data_u8[BNO055_SENSOR_DATA_LSB]));
 1794              		.loc 1 1029 31 view .LVU502
 1795 0032 9DF80430 		ldrb	r3, [sp, #4]	@ zero_extendqisi2
1028:Core/Src/bno055.c ****                 (s16)((((s32)((s8)data_u8[BNO055_SENSOR_DATA_MSB])) << BNO055_SHIFT_EIGHT_BITS) |
 1796              		.loc 1 1028 17 view .LVU503
 1797 0036 43EA0223 		orr	r3, r3, r2, lsl #8
1027:Core/Src/bno055.c ****                 (s16)((((s32)((s8)data_u8[BNO055_SENSOR_DATA_MSB])) << BNO055_SHIFT_EIGHT_BITS) |
 1798              		.loc 1 1027 24 view .LVU504
 1799 003a 2380     		strh	r3, [r4]	@ movhi
 1800              	.LVL184:
 1801              	.L132:
1030:Core/Src/bno055.c ****         }
1031:Core/Src/bno055.c ****         else
1032:Core/Src/bno055.c ****         {
1033:Core/Src/bno055.c ****             com_rslt = BNO055_ERROR;
1034:Core/Src/bno055.c ****         }
1035:Core/Src/bno055.c ****     }
1036:Core/Src/bno055.c **** 
1037:Core/Src/bno055.c ****     return com_rslt;
1038:Core/Src/bno055.c **** }
 1802              		.loc 1 1038 1 view .LVU505
 1803 003c 03B0     		add	sp, sp, #12
 1804              		.cfi_remember_state
 1805              		.cfi_def_cfa_offset 12
 1806              		@ sp needed
 1807 003e 30BD     		pop	{r4, r5, pc}
 1808              	.LVL185:
ARM GAS  /tmp/ccOloYeZ.s 			page 53


 1809              	.L138:
 1810              		.cfi_restore_state
1014:Core/Src/bno055.c ****         }
 1811              		.loc 1 1014 13 is_stmt 1 view .LVU506
1014:Core/Src/bno055.c ****         }
 1812              		.loc 1 1014 23 is_stmt 0 view .LVU507
 1813 0040 0020     		movs	r0, #0
 1814              	.LVL186:
1014:Core/Src/bno055.c ****         }
 1815              		.loc 1 1014 23 view .LVU508
 1816 0042 FFF7FEFF 		bl	bno055_write_page_id
 1817              	.LVL187:
1016:Core/Src/bno055.c ****         {
 1818              		.loc 1 1016 9 is_stmt 1 view .LVU509
1016:Core/Src/bno055.c ****         {
 1819              		.loc 1 1016 12 is_stmt 0 view .LVU510
 1820 0046 0028     		cmp	r0, #0
 1821 0048 E9D0     		beq	.L134
 1822 004a E4E7     		b	.L133
 1823              	.LVL188:
 1824              	.L135:
1005:Core/Src/bno055.c ****     }
 1825              		.loc 1 1005 16 view .LVU511
 1826 004c 6FF07E00 		mvn	r0, #126
 1827              	.LVL189:
1005:Core/Src/bno055.c ****     }
 1828              		.loc 1 1005 16 view .LVU512
 1829 0050 F4E7     		b	.L132
 1830              	.LVL190:
 1831              	.L136:
1033:Core/Src/bno055.c ****         }
 1832              		.loc 1 1033 22 view .LVU513
 1833 0052 4FF0FF30 		mov	r0, #-1
 1834 0056 F1E7     		b	.L132
 1835              	.L140:
 1836              		.align	2
 1837              	.L139:
 1838 0058 00000000 		.word	p_bno055
 1839              		.cfi_endproc
 1840              	.LFE15:
 1842              		.section	.text.bno055_read_mag_y,"ax",%progbits
 1843              		.align	1
 1844              		.global	bno055_read_mag_y
 1845              		.syntax unified
 1846              		.thumb
 1847              		.thumb_func
 1849              	bno055_read_mag_y:
 1850              	.LVL191:
 1851              	.LFB16:
1039:Core/Src/bno055.c **** 
1040:Core/Src/bno055.c **** /*!
1041:Core/Src/bno055.c ****  *  @brief This API reads mag data y values
1042:Core/Src/bno055.c ****  *  from register 0x10 and 0x11 it is a two byte data
1043:Core/Src/bno055.c ****  *
1044:Core/Src/bno055.c ****  *
1045:Core/Src/bno055.c ****  *
1046:Core/Src/bno055.c ****  *
ARM GAS  /tmp/ccOloYeZ.s 			page 54


1047:Core/Src/bno055.c ****  *  @param mag_y_s16 : The y raw data
1048:Core/Src/bno055.c ****  *
1049:Core/Src/bno055.c ****  *
1050:Core/Src/bno055.c ****  *
1051:Core/Src/bno055.c ****  *  @return results of bus communication function
1052:Core/Src/bno055.c ****  *  @retval 0 -> BNO055_SUCCESS
1053:Core/Src/bno055.c ****  *  @retval 1 -> BNO055_ERROR
1054:Core/Src/bno055.c ****  *
1055:Core/Src/bno055.c ****  *
1056:Core/Src/bno055.c ****  */
1057:Core/Src/bno055.c **** BNO055_RETURN_FUNCTION_TYPE bno055_read_mag_y(s16 *mag_y_s16)
1058:Core/Src/bno055.c **** {
 1852              		.loc 1 1058 1 is_stmt 1 view -0
 1853              		.cfi_startproc
 1854              		@ args = 0, pretend = 0, frame = 8
 1855              		@ frame_needed = 0, uses_anonymous_args = 0
 1856              		.loc 1 1058 1 is_stmt 0 view .LVU515
 1857 0000 30B5     		push	{r4, r5, lr}
 1858              		.cfi_def_cfa_offset 12
 1859              		.cfi_offset 4, -12
 1860              		.cfi_offset 5, -8
 1861              		.cfi_offset 14, -4
 1862 0002 83B0     		sub	sp, sp, #12
 1863              		.cfi_def_cfa_offset 24
1059:Core/Src/bno055.c ****     /* Variable used to return value of
1060:Core/Src/bno055.c ****      * communication routine*/
1061:Core/Src/bno055.c ****     BNO055_RETURN_FUNCTION_TYPE com_rslt = BNO055_ERROR;
 1864              		.loc 1 1061 5 is_stmt 1 view .LVU516
 1865              	.LVL192:
1062:Core/Src/bno055.c **** 
1063:Core/Src/bno055.c ****     /* Array holding the mag y value
1064:Core/Src/bno055.c ****      * data_u8[BNO055_SENSOR_DATA_LSB] - y->LSB
1065:Core/Src/bno055.c ****      * data_u8[BNO055_SENSOR_DATA_MSB] - y->MSB
1066:Core/Src/bno055.c ****      */
1067:Core/Src/bno055.c ****     u8 data_u8[BNO055_MAG_DATA_SIZE] = { BNO055_INIT_VALUE, BNO055_INIT_VALUE };
 1866              		.loc 1 1067 5 view .LVU517
 1867              		.loc 1 1067 8 is_stmt 0 view .LVU518
 1868 0004 0023     		movs	r3, #0
 1869 0006 ADF80430 		strh	r3, [sp, #4]	@ movhi
1068:Core/Src/bno055.c ****     s8 stat_s8 = BNO055_ERROR;
 1870              		.loc 1 1068 5 is_stmt 1 view .LVU519
 1871              	.LVL193:
1069:Core/Src/bno055.c **** 
1070:Core/Src/bno055.c ****     /* Check the struct p_bno055 is empty */
1071:Core/Src/bno055.c ****     if (p_bno055 == NULL)
 1872              		.loc 1 1071 5 view .LVU520
 1873              		.loc 1 1071 18 is_stmt 0 view .LVU521
 1874 000a 134B     		ldr	r3, .L149
 1875 000c 1B68     		ldr	r3, [r3]
 1876              		.loc 1 1071 8 view .LVU522
 1877 000e EBB1     		cbz	r3, .L145
 1878 0010 0446     		mov	r4, r0
1072:Core/Src/bno055.c ****     {
1073:Core/Src/bno055.c ****         return BNO055_E_NULL_PTR;
1074:Core/Src/bno055.c ****     }
1075:Core/Src/bno055.c ****     else
1076:Core/Src/bno055.c ****     {
ARM GAS  /tmp/ccOloYeZ.s 			page 55


1077:Core/Src/bno055.c ****         /*condition check for page, chip id is
1078:Core/Src/bno055.c ****          * available in the page zero*/
1079:Core/Src/bno055.c ****         if (p_bno055->page_id != BNO055_PAGE_ZERO)
 1879              		.loc 1 1079 9 is_stmt 1 view .LVU523
 1880              		.loc 1 1079 21 is_stmt 0 view .LVU524
 1881 0012 1B79     		ldrb	r3, [r3, #4]	@ zero_extendqisi2
 1882              		.loc 1 1079 12 view .LVU525
 1883 0014 A3B9     		cbnz	r3, .L148
 1884              	.LVL194:
 1885              	.L143:
1080:Core/Src/bno055.c ****         {
1081:Core/Src/bno055.c ****             /* Write the page zero*/
1082:Core/Src/bno055.c ****             stat_s8 = bno055_write_page_id(BNO055_PAGE_ZERO);
1083:Core/Src/bno055.c ****         }
1084:Core/Src/bno055.c ****         if ((stat_s8 == BNO055_SUCCESS) || (p_bno055->page_id == BNO055_PAGE_ZERO))
 1886              		.loc 1 1084 53 discriminator 1 view .LVU526
 1887 0016 104B     		ldr	r3, .L149
 1888 0018 1B68     		ldr	r3, [r3]
 1889 001a 1B79     		ldrb	r3, [r3, #4]	@ zero_extendqisi2
 1890              		.loc 1 1084 41 discriminator 1 view .LVU527
 1891 001c CBB9     		cbnz	r3, .L146
 1892              	.L144:
1085:Core/Src/bno055.c ****         {
1086:Core/Src/bno055.c ****             /*Read the mag y two bytes of data */
1087:Core/Src/bno055.c ****             com_rslt = p_bno055->BNO055_BUS_READ_FUNC(p_bno055->dev_addr,
 1893              		.loc 1 1087 13 is_stmt 1 view .LVU528
 1894              		.loc 1 1087 32 is_stmt 0 view .LVU529
 1895 001e 0E4B     		ldr	r3, .L149
 1896 0020 1868     		ldr	r0, [r3]
 1897 0022 0569     		ldr	r5, [r0, #16]
 1898              		.loc 1 1087 24 view .LVU530
 1899 0024 0223     		movs	r3, #2
 1900 0026 01AA     		add	r2, sp, #4
 1901 0028 1021     		movs	r1, #16
 1902 002a 407A     		ldrb	r0, [r0, #9]	@ zero_extendqisi2
 1903 002c A847     		blx	r5
 1904              	.LVL195:
1088:Core/Src/bno055.c ****                                                       BNO055_MAG_DATA_Y_LSB_VALUEY_REG,
1089:Core/Src/bno055.c ****                                                       data_u8,
1090:Core/Src/bno055.c ****                                                       BNO055_LSB_MSB_READ_LENGTH);
1091:Core/Src/bno055.c ****             data_u8[BNO055_SENSOR_DATA_LSB] = BNO055_GET_BITSLICE(data_u8[BNO055_SENSOR_DATA_LSB],
 1905              		.loc 1 1091 13 is_stmt 1 view .LVU531
1092:Core/Src/bno055.c ****                                                                   BNO055_MAG_DATA_Y_LSB_VALUEY);
1093:Core/Src/bno055.c ****             data_u8[BNO055_SENSOR_DATA_MSB] = BNO055_GET_BITSLICE(data_u8[BNO055_SENSOR_DATA_MSB],
 1906              		.loc 1 1093 13 view .LVU532
1094:Core/Src/bno055.c ****                                                                   BNO055_MAG_DATA_Y_MSB_VALUEY);
1095:Core/Src/bno055.c ****             *mag_y_s16 =
 1907              		.loc 1 1095 13 view .LVU533
1096:Core/Src/bno055.c ****                 (s16)((((s32)((s8)data_u8[BNO055_SENSOR_DATA_MSB])) << BNO055_SHIFT_EIGHT_BITS) |
 1908              		.loc 1 1096 31 is_stmt 0 view .LVU534
 1909 002e 9DF90520 		ldrsb	r2, [sp, #5]
1097:Core/Src/bno055.c ****                       (data_u8[BNO055_SENSOR_DATA_LSB]));
 1910              		.loc 1 1097 31 view .LVU535
 1911 0032 9DF80430 		ldrb	r3, [sp, #4]	@ zero_extendqisi2
1096:Core/Src/bno055.c ****                 (s16)((((s32)((s8)data_u8[BNO055_SENSOR_DATA_MSB])) << BNO055_SHIFT_EIGHT_BITS) |
 1912              		.loc 1 1096 17 view .LVU536
 1913 0036 43EA0223 		orr	r3, r3, r2, lsl #8
ARM GAS  /tmp/ccOloYeZ.s 			page 56


1095:Core/Src/bno055.c ****                 (s16)((((s32)((s8)data_u8[BNO055_SENSOR_DATA_MSB])) << BNO055_SHIFT_EIGHT_BITS) |
 1914              		.loc 1 1095 24 view .LVU537
 1915 003a 2380     		strh	r3, [r4]	@ movhi
 1916              	.LVL196:
 1917              	.L142:
1098:Core/Src/bno055.c ****         }
1099:Core/Src/bno055.c ****         else
1100:Core/Src/bno055.c ****         {
1101:Core/Src/bno055.c ****             com_rslt = BNO055_ERROR;
1102:Core/Src/bno055.c ****         }
1103:Core/Src/bno055.c ****     }
1104:Core/Src/bno055.c **** 
1105:Core/Src/bno055.c ****     return com_rslt;
1106:Core/Src/bno055.c **** }
 1918              		.loc 1 1106 1 view .LVU538
 1919 003c 03B0     		add	sp, sp, #12
 1920              		.cfi_remember_state
 1921              		.cfi_def_cfa_offset 12
 1922              		@ sp needed
 1923 003e 30BD     		pop	{r4, r5, pc}
 1924              	.LVL197:
 1925              	.L148:
 1926              		.cfi_restore_state
1082:Core/Src/bno055.c ****         }
 1927              		.loc 1 1082 13 is_stmt 1 view .LVU539
1082:Core/Src/bno055.c ****         }
 1928              		.loc 1 1082 23 is_stmt 0 view .LVU540
 1929 0040 0020     		movs	r0, #0
 1930              	.LVL198:
1082:Core/Src/bno055.c ****         }
 1931              		.loc 1 1082 23 view .LVU541
 1932 0042 FFF7FEFF 		bl	bno055_write_page_id
 1933              	.LVL199:
1084:Core/Src/bno055.c ****         {
 1934              		.loc 1 1084 9 is_stmt 1 view .LVU542
1084:Core/Src/bno055.c ****         {
 1935              		.loc 1 1084 12 is_stmt 0 view .LVU543
 1936 0046 0028     		cmp	r0, #0
 1937 0048 E9D0     		beq	.L144
 1938 004a E4E7     		b	.L143
 1939              	.LVL200:
 1940              	.L145:
1073:Core/Src/bno055.c ****     }
 1941              		.loc 1 1073 16 view .LVU544
 1942 004c 6FF07E00 		mvn	r0, #126
 1943              	.LVL201:
1073:Core/Src/bno055.c ****     }
 1944              		.loc 1 1073 16 view .LVU545
 1945 0050 F4E7     		b	.L142
 1946              	.LVL202:
 1947              	.L146:
1101:Core/Src/bno055.c ****         }
 1948              		.loc 1 1101 22 view .LVU546
 1949 0052 4FF0FF30 		mov	r0, #-1
 1950 0056 F1E7     		b	.L142
 1951              	.L150:
 1952              		.align	2
ARM GAS  /tmp/ccOloYeZ.s 			page 57


 1953              	.L149:
 1954 0058 00000000 		.word	p_bno055
 1955              		.cfi_endproc
 1956              	.LFE16:
 1958              		.section	.text.bno055_read_mag_z,"ax",%progbits
 1959              		.align	1
 1960              		.global	bno055_read_mag_z
 1961              		.syntax unified
 1962              		.thumb
 1963              		.thumb_func
 1965              	bno055_read_mag_z:
 1966              	.LVL203:
 1967              	.LFB17:
1107:Core/Src/bno055.c **** 
1108:Core/Src/bno055.c **** /*!
1109:Core/Src/bno055.c ****  *  @brief This API reads mag data z values
1110:Core/Src/bno055.c ****  *  from register 0x12 and 0x13 it is a two byte data
1111:Core/Src/bno055.c ****  *
1112:Core/Src/bno055.c ****  *
1113:Core/Src/bno055.c ****  *
1114:Core/Src/bno055.c ****  *
1115:Core/Src/bno055.c ****  *  @param mag_z_s16 : The z raw data
1116:Core/Src/bno055.c ****  *
1117:Core/Src/bno055.c ****  *
1118:Core/Src/bno055.c ****  *
1119:Core/Src/bno055.c ****  *  @return results of bus communication function
1120:Core/Src/bno055.c ****  *  @retval 0 -> BNO055_SUCCESS
1121:Core/Src/bno055.c ****  *  @retval 1 -> BNO055_ERROR
1122:Core/Src/bno055.c ****  *
1123:Core/Src/bno055.c ****  *
1124:Core/Src/bno055.c ****  *
1125:Core/Src/bno055.c ****  */
1126:Core/Src/bno055.c **** BNO055_RETURN_FUNCTION_TYPE bno055_read_mag_z(s16 *mag_z_s16)
1127:Core/Src/bno055.c **** {
 1968              		.loc 1 1127 1 is_stmt 1 view -0
 1969              		.cfi_startproc
 1970              		@ args = 0, pretend = 0, frame = 8
 1971              		@ frame_needed = 0, uses_anonymous_args = 0
 1972              		.loc 1 1127 1 is_stmt 0 view .LVU548
 1973 0000 30B5     		push	{r4, r5, lr}
 1974              		.cfi_def_cfa_offset 12
 1975              		.cfi_offset 4, -12
 1976              		.cfi_offset 5, -8
 1977              		.cfi_offset 14, -4
 1978 0002 83B0     		sub	sp, sp, #12
 1979              		.cfi_def_cfa_offset 24
1128:Core/Src/bno055.c ****     /* Variable used to return value of
1129:Core/Src/bno055.c ****      * communication routine*/
1130:Core/Src/bno055.c ****     BNO055_RETURN_FUNCTION_TYPE com_rslt = BNO055_ERROR;
 1980              		.loc 1 1130 5 is_stmt 1 view .LVU549
 1981              	.LVL204:
1131:Core/Src/bno055.c **** 
1132:Core/Src/bno055.c ****     /* Array holding the mag z value
1133:Core/Src/bno055.c ****      * data_u8[BNO055_SENSOR_DATA_LSB] - z->LSB
1134:Core/Src/bno055.c ****      * data_u8[BNO055_SENSOR_DATA_MSB] - z->MSB
1135:Core/Src/bno055.c ****      */
1136:Core/Src/bno055.c ****     u8 data_u8[BNO055_MAG_DATA_SIZE] = { BNO055_INIT_VALUE, BNO055_INIT_VALUE };
ARM GAS  /tmp/ccOloYeZ.s 			page 58


 1982              		.loc 1 1136 5 view .LVU550
 1983              		.loc 1 1136 8 is_stmt 0 view .LVU551
 1984 0004 0023     		movs	r3, #0
 1985 0006 ADF80430 		strh	r3, [sp, #4]	@ movhi
1137:Core/Src/bno055.c ****     s8 stat_s8 = BNO055_ERROR;
 1986              		.loc 1 1137 5 is_stmt 1 view .LVU552
 1987              	.LVL205:
1138:Core/Src/bno055.c **** 
1139:Core/Src/bno055.c ****     /* Check the struct p_bno055 is empty */
1140:Core/Src/bno055.c ****     if (p_bno055 == NULL)
 1988              		.loc 1 1140 5 view .LVU553
 1989              		.loc 1 1140 18 is_stmt 0 view .LVU554
 1990 000a 134B     		ldr	r3, .L159
 1991 000c 1B68     		ldr	r3, [r3]
 1992              		.loc 1 1140 8 view .LVU555
 1993 000e EBB1     		cbz	r3, .L155
 1994 0010 0446     		mov	r4, r0
1141:Core/Src/bno055.c ****     {
1142:Core/Src/bno055.c ****         return BNO055_E_NULL_PTR;
1143:Core/Src/bno055.c ****     }
1144:Core/Src/bno055.c ****     else
1145:Core/Src/bno055.c ****     {
1146:Core/Src/bno055.c ****         /*condition check for page, chip id is
1147:Core/Src/bno055.c ****          * available in the page zero*/
1148:Core/Src/bno055.c ****         if (p_bno055->page_id != BNO055_PAGE_ZERO)
 1995              		.loc 1 1148 9 is_stmt 1 view .LVU556
 1996              		.loc 1 1148 21 is_stmt 0 view .LVU557
 1997 0012 1B79     		ldrb	r3, [r3, #4]	@ zero_extendqisi2
 1998              		.loc 1 1148 12 view .LVU558
 1999 0014 A3B9     		cbnz	r3, .L158
 2000              	.LVL206:
 2001              	.L153:
1149:Core/Src/bno055.c ****         {
1150:Core/Src/bno055.c ****             /* Write the page zero*/
1151:Core/Src/bno055.c ****             stat_s8 = bno055_write_page_id(BNO055_PAGE_ZERO);
1152:Core/Src/bno055.c ****         }
1153:Core/Src/bno055.c ****         if ((stat_s8 == BNO055_SUCCESS) || (p_bno055->page_id == BNO055_PAGE_ZERO))
 2002              		.loc 1 1153 53 discriminator 1 view .LVU559
 2003 0016 104B     		ldr	r3, .L159
 2004 0018 1B68     		ldr	r3, [r3]
 2005 001a 1B79     		ldrb	r3, [r3, #4]	@ zero_extendqisi2
 2006              		.loc 1 1153 41 discriminator 1 view .LVU560
 2007 001c CBB9     		cbnz	r3, .L156
 2008              	.L154:
1154:Core/Src/bno055.c ****         {
1155:Core/Src/bno055.c ****             com_rslt = p_bno055->BNO055_BUS_READ_FUNC(p_bno055->dev_addr,
 2009              		.loc 1 1155 13 is_stmt 1 view .LVU561
 2010              		.loc 1 1155 32 is_stmt 0 view .LVU562
 2011 001e 0E4B     		ldr	r3, .L159
 2012 0020 1868     		ldr	r0, [r3]
 2013 0022 0569     		ldr	r5, [r0, #16]
 2014              		.loc 1 1155 24 view .LVU563
 2015 0024 0223     		movs	r3, #2
 2016 0026 01AA     		add	r2, sp, #4
 2017 0028 1221     		movs	r1, #18
 2018 002a 407A     		ldrb	r0, [r0, #9]	@ zero_extendqisi2
 2019 002c A847     		blx	r5
ARM GAS  /tmp/ccOloYeZ.s 			page 59


 2020              	.LVL207:
1156:Core/Src/bno055.c ****                                                       BNO055_MAG_DATA_Z_LSB_VALUEZ_REG,
1157:Core/Src/bno055.c ****                                                       data_u8,
1158:Core/Src/bno055.c ****                                                       BNO055_LSB_MSB_READ_LENGTH);
1159:Core/Src/bno055.c **** 
1160:Core/Src/bno055.c ****             /*Read the mag z two bytes of data */
1161:Core/Src/bno055.c ****             data_u8[BNO055_SENSOR_DATA_LSB] = BNO055_GET_BITSLICE(data_u8[BNO055_SENSOR_DATA_LSB],
 2021              		.loc 1 1161 13 is_stmt 1 view .LVU564
1162:Core/Src/bno055.c ****                                                                   BNO055_MAG_DATA_Z_LSB_VALUEZ);
1163:Core/Src/bno055.c ****             data_u8[BNO055_SENSOR_DATA_MSB] = BNO055_GET_BITSLICE(data_u8[BNO055_SENSOR_DATA_MSB],
 2022              		.loc 1 1163 13 view .LVU565
1164:Core/Src/bno055.c ****                                                                   BNO055_MAG_DATA_Z_MSB_VALUEZ);
1165:Core/Src/bno055.c ****             *mag_z_s16 =
 2023              		.loc 1 1165 13 view .LVU566
1166:Core/Src/bno055.c ****                 (s16)((((s32)((s8)data_u8[BNO055_SENSOR_DATA_MSB])) << BNO055_SHIFT_EIGHT_BITS) |
 2024              		.loc 1 1166 31 is_stmt 0 view .LVU567
 2025 002e 9DF90520 		ldrsb	r2, [sp, #5]
1167:Core/Src/bno055.c ****                       (data_u8[BNO055_SENSOR_DATA_LSB]));
 2026              		.loc 1 1167 31 view .LVU568
 2027 0032 9DF80430 		ldrb	r3, [sp, #4]	@ zero_extendqisi2
1166:Core/Src/bno055.c ****                 (s16)((((s32)((s8)data_u8[BNO055_SENSOR_DATA_MSB])) << BNO055_SHIFT_EIGHT_BITS) |
 2028              		.loc 1 1166 17 view .LVU569
 2029 0036 43EA0223 		orr	r3, r3, r2, lsl #8
1165:Core/Src/bno055.c ****                 (s16)((((s32)((s8)data_u8[BNO055_SENSOR_DATA_MSB])) << BNO055_SHIFT_EIGHT_BITS) |
 2030              		.loc 1 1165 24 view .LVU570
 2031 003a 2380     		strh	r3, [r4]	@ movhi
 2032              	.LVL208:
 2033              	.L152:
1168:Core/Src/bno055.c ****         }
1169:Core/Src/bno055.c ****         else
1170:Core/Src/bno055.c ****         {
1171:Core/Src/bno055.c ****             com_rslt = BNO055_ERROR;
1172:Core/Src/bno055.c ****         }
1173:Core/Src/bno055.c ****     }
1174:Core/Src/bno055.c **** 
1175:Core/Src/bno055.c ****     return com_rslt;
1176:Core/Src/bno055.c **** }
 2034              		.loc 1 1176 1 view .LVU571
 2035 003c 03B0     		add	sp, sp, #12
 2036              		.cfi_remember_state
 2037              		.cfi_def_cfa_offset 12
 2038              		@ sp needed
 2039 003e 30BD     		pop	{r4, r5, pc}
 2040              	.LVL209:
 2041              	.L158:
 2042              		.cfi_restore_state
1151:Core/Src/bno055.c ****         }
 2043              		.loc 1 1151 13 is_stmt 1 view .LVU572
1151:Core/Src/bno055.c ****         }
 2044              		.loc 1 1151 23 is_stmt 0 view .LVU573
 2045 0040 0020     		movs	r0, #0
 2046              	.LVL210:
1151:Core/Src/bno055.c ****         }
 2047              		.loc 1 1151 23 view .LVU574
 2048 0042 FFF7FEFF 		bl	bno055_write_page_id
 2049              	.LVL211:
1153:Core/Src/bno055.c ****         {
ARM GAS  /tmp/ccOloYeZ.s 			page 60


 2050              		.loc 1 1153 9 is_stmt 1 view .LVU575
1153:Core/Src/bno055.c ****         {
 2051              		.loc 1 1153 12 is_stmt 0 view .LVU576
 2052 0046 0028     		cmp	r0, #0
 2053 0048 E9D0     		beq	.L154
 2054 004a E4E7     		b	.L153
 2055              	.LVL212:
 2056              	.L155:
1142:Core/Src/bno055.c ****     }
 2057              		.loc 1 1142 16 view .LVU577
 2058 004c 6FF07E00 		mvn	r0, #126
 2059              	.LVL213:
1142:Core/Src/bno055.c ****     }
 2060              		.loc 1 1142 16 view .LVU578
 2061 0050 F4E7     		b	.L152
 2062              	.LVL214:
 2063              	.L156:
1171:Core/Src/bno055.c ****         }
 2064              		.loc 1 1171 22 view .LVU579
 2065 0052 4FF0FF30 		mov	r0, #-1
 2066 0056 F1E7     		b	.L152
 2067              	.L160:
 2068              		.align	2
 2069              	.L159:
 2070 0058 00000000 		.word	p_bno055
 2071              		.cfi_endproc
 2072              	.LFE17:
 2074              		.section	.text.bno055_read_mag_xyz,"ax",%progbits
 2075              		.align	1
 2076              		.global	bno055_read_mag_xyz
 2077              		.syntax unified
 2078              		.thumb
 2079              		.thumb_func
 2081              	bno055_read_mag_xyz:
 2082              	.LVL215:
 2083              	.LFB18:
1177:Core/Src/bno055.c **** 
1178:Core/Src/bno055.c **** /*!
1179:Core/Src/bno055.c ****  *  @brief This API reads mag data xyz values
1180:Core/Src/bno055.c ****  *  from register 0x0E to 0x13 it is a six byte data
1181:Core/Src/bno055.c ****  *
1182:Core/Src/bno055.c ****  *
1183:Core/Src/bno055.c ****  *  @param mag : The mag xyz values
1184:Core/Src/bno055.c ****  *
1185:Core/Src/bno055.c ****  *  Parameter |    result
1186:Core/Src/bno055.c ****  *  --------- | -----------------
1187:Core/Src/bno055.c ****  *   x        | The mag x data
1188:Core/Src/bno055.c ****  *   y        | The mag y data
1189:Core/Src/bno055.c ****  *   z        | The mag z data
1190:Core/Src/bno055.c ****  *
1191:Core/Src/bno055.c ****  *
1192:Core/Src/bno055.c ****  *
1193:Core/Src/bno055.c ****  *  @return results of bus communication function
1194:Core/Src/bno055.c ****  *  @retval 0 -> BNO055_SUCCESS
1195:Core/Src/bno055.c ****  *  @retval 1 -> BNO055_ERROR
1196:Core/Src/bno055.c ****  *
1197:Core/Src/bno055.c ****  */
ARM GAS  /tmp/ccOloYeZ.s 			page 61


1198:Core/Src/bno055.c **** BNO055_RETURN_FUNCTION_TYPE bno055_read_mag_xyz(struct bno055_mag_t *mag)
1199:Core/Src/bno055.c **** {
 2084              		.loc 1 1199 1 is_stmt 1 view -0
 2085              		.cfi_startproc
 2086              		@ args = 0, pretend = 0, frame = 8
 2087              		@ frame_needed = 0, uses_anonymous_args = 0
 2088              		.loc 1 1199 1 is_stmt 0 view .LVU581
 2089 0000 30B5     		push	{r4, r5, lr}
 2090              		.cfi_def_cfa_offset 12
 2091              		.cfi_offset 4, -12
 2092              		.cfi_offset 5, -8
 2093              		.cfi_offset 14, -4
 2094 0002 83B0     		sub	sp, sp, #12
 2095              		.cfi_def_cfa_offset 24
 2096 0004 0446     		mov	r4, r0
1200:Core/Src/bno055.c ****     /* Variable used to return value of
1201:Core/Src/bno055.c ****      * communication routine*/
1202:Core/Src/bno055.c ****     BNO055_RETURN_FUNCTION_TYPE com_rslt = BNO055_ERROR;
 2097              		.loc 1 1202 5 is_stmt 1 view .LVU582
 2098              	.LVL216:
1203:Core/Src/bno055.c **** 
1204:Core/Src/bno055.c ****     /* Array holding the mag xyz value
1205:Core/Src/bno055.c ****      * data_u8[BNO055_SENSOR_DATA_XYZ_X_LSB] - x->LSB
1206:Core/Src/bno055.c ****      * data_u8[BNO055_SENSOR_DATA_XYZ_X_MSB] - x->MSB
1207:Core/Src/bno055.c ****      * data_u8[BNO055_SENSOR_DATA_XYZ_Y_LSB] - y->MSB
1208:Core/Src/bno055.c ****      * data_u8[BNO055_SENSOR_DATA_XYZ_Y_MSB] - y->MSB
1209:Core/Src/bno055.c ****      * data_u8[BNO055_SENSOR_DATA_XYZ_Z_LSB] - z->MSB
1210:Core/Src/bno055.c ****      * data_u8[BNO055_SENSOR_DATA_XYZ_Z_MSB] - z->MSB
1211:Core/Src/bno055.c ****      */
1212:Core/Src/bno055.c ****     u8 data_u8[BNO055_MAG_XYZ_DATA_SIZE] = {
 2099              		.loc 1 1212 5 view .LVU583
 2100              		.loc 1 1212 8 is_stmt 0 view .LVU584
 2101 0006 1D4B     		ldr	r3, .L169
 2102 0008 93E80300 		ldm	r3, {r0, r1}
 2103              	.LVL217:
 2104              		.loc 1 1212 8 view .LVU585
 2105 000c 0090     		str	r0, [sp]
 2106 000e ADF80410 		strh	r1, [sp, #4]	@ movhi
1213:Core/Src/bno055.c ****         BNO055_INIT_VALUE, BNO055_INIT_VALUE, BNO055_INIT_VALUE, BNO055_INIT_VALUE, BNO055_INIT_VAL
1214:Core/Src/bno055.c ****     };
1215:Core/Src/bno055.c ****     s8 stat_s8 = BNO055_ERROR;
 2107              		.loc 1 1215 5 is_stmt 1 view .LVU586
 2108              	.LVL218:
1216:Core/Src/bno055.c **** 
1217:Core/Src/bno055.c ****     /* Check the struct p_bno055 is empty */
1218:Core/Src/bno055.c ****     if (p_bno055 == NULL)
 2109              		.loc 1 1218 5 view .LVU587
 2110              		.loc 1 1218 18 is_stmt 0 view .LVU588
 2111 0012 1B4B     		ldr	r3, .L169+4
 2112 0014 1B68     		ldr	r3, [r3]
 2113              		.loc 1 1218 8 view .LVU589
 2114 0016 53B3     		cbz	r3, .L165
1219:Core/Src/bno055.c ****     {
1220:Core/Src/bno055.c ****         return BNO055_E_NULL_PTR;
1221:Core/Src/bno055.c ****     }
1222:Core/Src/bno055.c ****     else
1223:Core/Src/bno055.c ****     {
ARM GAS  /tmp/ccOloYeZ.s 			page 62


1224:Core/Src/bno055.c ****         /*condition check for page, chip id is
1225:Core/Src/bno055.c ****          * available in the page zero*/
1226:Core/Src/bno055.c ****         if (p_bno055->page_id != BNO055_PAGE_ZERO)
 2115              		.loc 1 1226 9 is_stmt 1 view .LVU590
 2116              		.loc 1 1226 21 is_stmt 0 view .LVU591
 2117 0018 1B79     		ldrb	r3, [r3, #4]	@ zero_extendqisi2
 2118              		.loc 1 1226 12 view .LVU592
 2119 001a 13BB     		cbnz	r3, .L168
 2120              	.LVL219:
 2121              	.L163:
1227:Core/Src/bno055.c ****         {
1228:Core/Src/bno055.c ****             /* Write the page zero*/
1229:Core/Src/bno055.c ****             stat_s8 = bno055_write_page_id(BNO055_PAGE_ZERO);
1230:Core/Src/bno055.c ****         }
1231:Core/Src/bno055.c ****         if ((stat_s8 == BNO055_SUCCESS) || (p_bno055->page_id == BNO055_PAGE_ZERO))
 2122              		.loc 1 1231 53 discriminator 1 view .LVU593
 2123 001c 184B     		ldr	r3, .L169+4
 2124 001e 1B68     		ldr	r3, [r3]
 2125 0020 1B79     		ldrb	r3, [r3, #4]	@ zero_extendqisi2
 2126              		.loc 1 1231 41 discriminator 1 view .LVU594
 2127 0022 3BBB     		cbnz	r3, .L166
 2128              	.L164:
1232:Core/Src/bno055.c ****         {
1233:Core/Src/bno055.c ****             /*Read the six byte value of mag xyz*/
1234:Core/Src/bno055.c ****             com_rslt = p_bno055->BNO055_BUS_READ_FUNC(p_bno055->dev_addr,
 2129              		.loc 1 1234 13 is_stmt 1 view .LVU595
 2130              		.loc 1 1234 32 is_stmt 0 view .LVU596
 2131 0024 164B     		ldr	r3, .L169+4
 2132 0026 1868     		ldr	r0, [r3]
 2133 0028 0569     		ldr	r5, [r0, #16]
 2134              		.loc 1 1234 24 view .LVU597
 2135 002a 0623     		movs	r3, #6
 2136 002c 6A46     		mov	r2, sp
 2137 002e 0E21     		movs	r1, #14
 2138 0030 407A     		ldrb	r0, [r0, #9]	@ zero_extendqisi2
 2139 0032 A847     		blx	r5
 2140              	.LVL220:
1235:Core/Src/bno055.c ****                                                       BNO055_MAG_DATA_X_LSB_VALUEX_REG,
1236:Core/Src/bno055.c ****                                                       data_u8,
1237:Core/Src/bno055.c ****                                                       BNO055_MAG_XYZ_DATA_SIZE);
1238:Core/Src/bno055.c **** 
1239:Core/Src/bno055.c ****             /* Data X*/
1240:Core/Src/bno055.c ****             data_u8[BNO055_SENSOR_DATA_XYZ_X_LSB] = BNO055_GET_BITSLICE(data_u8[BNO055_SENSOR_DATA_
 2141              		.loc 1 1240 13 is_stmt 1 view .LVU598
1241:Core/Src/bno055.c ****                                                                         BNO055_MAG_DATA_X_LSB_VALUE
1242:Core/Src/bno055.c ****             data_u8[BNO055_SENSOR_DATA_XYZ_X_MSB] = BNO055_GET_BITSLICE(data_u8[BNO055_SENSOR_DATA_
 2142              		.loc 1 1242 13 view .LVU599
1243:Core/Src/bno055.c ****                                                                         BNO055_MAG_DATA_X_MSB_VALUE
1244:Core/Src/bno055.c ****             mag->x =
 2143              		.loc 1 1244 13 view .LVU600
1245:Core/Src/bno055.c ****                 (s16)((((s32)((s8)data_u8[BNO055_SENSOR_DATA_XYZ_X_MSB])) << BNO055_SHIFT_EIGHT_BIT
 2144              		.loc 1 1245 31 is_stmt 0 view .LVU601
 2145 0034 9DF90120 		ldrsb	r2, [sp, #1]
1246:Core/Src/bno055.c ****                       (data_u8[BNO055_SENSOR_DATA_XYZ_X_LSB]));
 2146              		.loc 1 1246 31 view .LVU602
 2147 0038 9DF80030 		ldrb	r3, [sp]	@ zero_extendqisi2
1245:Core/Src/bno055.c ****                 (s16)((((s32)((s8)data_u8[BNO055_SENSOR_DATA_XYZ_X_MSB])) << BNO055_SHIFT_EIGHT_BIT
ARM GAS  /tmp/ccOloYeZ.s 			page 63


 2148              		.loc 1 1245 17 view .LVU603
 2149 003c 43EA0223 		orr	r3, r3, r2, lsl #8
1244:Core/Src/bno055.c ****                 (s16)((((s32)((s8)data_u8[BNO055_SENSOR_DATA_XYZ_X_MSB])) << BNO055_SHIFT_EIGHT_BIT
 2150              		.loc 1 1244 20 view .LVU604
 2151 0040 2380     		strh	r3, [r4]	@ movhi
1247:Core/Src/bno055.c **** 
1248:Core/Src/bno055.c ****             /* Data Y*/
1249:Core/Src/bno055.c ****             data_u8[BNO055_SENSOR_DATA_XYZ_Y_LSB] = BNO055_GET_BITSLICE(data_u8[BNO055_SENSOR_DATA_
 2152              		.loc 1 1249 13 is_stmt 1 view .LVU605
1250:Core/Src/bno055.c ****                                                                         BNO055_MAG_DATA_Y_LSB_VALUE
1251:Core/Src/bno055.c ****             data_u8[BNO055_SENSOR_DATA_XYZ_Y_MSB] = BNO055_GET_BITSLICE(data_u8[BNO055_SENSOR_DATA_
 2153              		.loc 1 1251 13 view .LVU606
1252:Core/Src/bno055.c ****                                                                         BNO055_MAG_DATA_Y_MSB_VALUE
1253:Core/Src/bno055.c ****             mag->y =
 2154              		.loc 1 1253 13 view .LVU607
1254:Core/Src/bno055.c ****                 (s16)((((s32)((s8)data_u8[BNO055_SENSOR_DATA_XYZ_Y_MSB])) << BNO055_SHIFT_EIGHT_BIT
 2155              		.loc 1 1254 31 is_stmt 0 view .LVU608
 2156 0042 9DF90320 		ldrsb	r2, [sp, #3]
1255:Core/Src/bno055.c ****                       (data_u8[BNO055_SENSOR_DATA_XYZ_Y_LSB]));
 2157              		.loc 1 1255 31 view .LVU609
 2158 0046 9DF80230 		ldrb	r3, [sp, #2]	@ zero_extendqisi2
1254:Core/Src/bno055.c ****                 (s16)((((s32)((s8)data_u8[BNO055_SENSOR_DATA_XYZ_Y_MSB])) << BNO055_SHIFT_EIGHT_BIT
 2159              		.loc 1 1254 17 view .LVU610
 2160 004a 43EA0223 		orr	r3, r3, r2, lsl #8
1253:Core/Src/bno055.c ****                 (s16)((((s32)((s8)data_u8[BNO055_SENSOR_DATA_XYZ_Y_MSB])) << BNO055_SHIFT_EIGHT_BIT
 2161              		.loc 1 1253 20 view .LVU611
 2162 004e 6380     		strh	r3, [r4, #2]	@ movhi
1256:Core/Src/bno055.c **** 
1257:Core/Src/bno055.c ****             /* Data Z*/
1258:Core/Src/bno055.c ****             data_u8[BNO055_SENSOR_DATA_XYZ_Z_LSB] = BNO055_GET_BITSLICE(data_u8[BNO055_SENSOR_DATA_
 2163              		.loc 1 1258 13 is_stmt 1 view .LVU612
1259:Core/Src/bno055.c ****                                                                         BNO055_MAG_DATA_Z_LSB_VALUE
1260:Core/Src/bno055.c ****             data_u8[BNO055_SENSOR_DATA_XYZ_Z_MSB] = BNO055_GET_BITSLICE(data_u8[BNO055_SENSOR_DATA_
 2164              		.loc 1 1260 13 view .LVU613
1261:Core/Src/bno055.c ****                                                                         BNO055_MAG_DATA_Z_MSB_VALUE
1262:Core/Src/bno055.c ****             mag->z =
 2165              		.loc 1 1262 13 view .LVU614
1263:Core/Src/bno055.c ****                 (s16)((((s32)((s8)data_u8[BNO055_SENSOR_DATA_XYZ_Z_MSB])) << BNO055_SHIFT_EIGHT_BIT
 2166              		.loc 1 1263 31 is_stmt 0 view .LVU615
 2167 0050 9DF90520 		ldrsb	r2, [sp, #5]
1264:Core/Src/bno055.c ****                       (data_u8[BNO055_SENSOR_DATA_XYZ_Z_LSB]));
 2168              		.loc 1 1264 31 view .LVU616
 2169 0054 9DF80430 		ldrb	r3, [sp, #4]	@ zero_extendqisi2
1263:Core/Src/bno055.c ****                 (s16)((((s32)((s8)data_u8[BNO055_SENSOR_DATA_XYZ_Z_MSB])) << BNO055_SHIFT_EIGHT_BIT
 2170              		.loc 1 1263 17 view .LVU617
 2171 0058 43EA0223 		orr	r3, r3, r2, lsl #8
1262:Core/Src/bno055.c ****                 (s16)((((s32)((s8)data_u8[BNO055_SENSOR_DATA_XYZ_Z_MSB])) << BNO055_SHIFT_EIGHT_BIT
 2172              		.loc 1 1262 20 view .LVU618
 2173 005c A380     		strh	r3, [r4, #4]	@ movhi
 2174              	.LVL221:
 2175              	.L162:
1265:Core/Src/bno055.c ****         }
1266:Core/Src/bno055.c ****         else
1267:Core/Src/bno055.c ****         {
1268:Core/Src/bno055.c ****             com_rslt = BNO055_ERROR;
1269:Core/Src/bno055.c ****         }
1270:Core/Src/bno055.c ****     }
ARM GAS  /tmp/ccOloYeZ.s 			page 64


1271:Core/Src/bno055.c **** 
1272:Core/Src/bno055.c ****     return com_rslt;
1273:Core/Src/bno055.c **** }
 2176              		.loc 1 1273 1 view .LVU619
 2177 005e 03B0     		add	sp, sp, #12
 2178              		.cfi_remember_state
 2179              		.cfi_def_cfa_offset 12
 2180              		@ sp needed
 2181 0060 30BD     		pop	{r4, r5, pc}
 2182              	.LVL222:
 2183              	.L168:
 2184              		.cfi_restore_state
1229:Core/Src/bno055.c ****         }
 2185              		.loc 1 1229 13 is_stmt 1 view .LVU620
1229:Core/Src/bno055.c ****         }
 2186              		.loc 1 1229 23 is_stmt 0 view .LVU621
 2187 0062 0020     		movs	r0, #0
 2188 0064 FFF7FEFF 		bl	bno055_write_page_id
 2189              	.LVL223:
1231:Core/Src/bno055.c ****         {
 2190              		.loc 1 1231 9 is_stmt 1 view .LVU622
1231:Core/Src/bno055.c ****         {
 2191              		.loc 1 1231 12 is_stmt 0 view .LVU623
 2192 0068 0028     		cmp	r0, #0
 2193 006a DBD0     		beq	.L164
 2194 006c D6E7     		b	.L163
 2195              	.LVL224:
 2196              	.L165:
1220:Core/Src/bno055.c ****     }
 2197              		.loc 1 1220 16 view .LVU624
 2198 006e 6FF07E00 		mvn	r0, #126
 2199 0072 F4E7     		b	.L162
 2200              	.LVL225:
 2201              	.L166:
1268:Core/Src/bno055.c ****         }
 2202              		.loc 1 1268 22 view .LVU625
 2203 0074 4FF0FF30 		mov	r0, #-1
 2204 0078 F1E7     		b	.L162
 2205              	.L170:
 2206 007a 00BF     		.align	2
 2207              	.L169:
 2208 007c 00000000 		.word	.LANCHOR0
 2209 0080 00000000 		.word	p_bno055
 2210              		.cfi_endproc
 2211              	.LFE18:
 2213              		.section	.text.bno055_read_gyro_x,"ax",%progbits
 2214              		.align	1
 2215              		.global	bno055_read_gyro_x
 2216              		.syntax unified
 2217              		.thumb
 2218              		.thumb_func
 2220              	bno055_read_gyro_x:
 2221              	.LVL226:
 2222              	.LFB19:
1274:Core/Src/bno055.c **** 
1275:Core/Src/bno055.c **** /*!
1276:Core/Src/bno055.c ****  *  @brief This API reads gyro data x values
ARM GAS  /tmp/ccOloYeZ.s 			page 65


1277:Core/Src/bno055.c ****  *  from register 0x14 and 0x15 it is a two byte data
1278:Core/Src/bno055.c ****  *
1279:Core/Src/bno055.c ****  *
1280:Core/Src/bno055.c ****  *
1281:Core/Src/bno055.c ****  *
1282:Core/Src/bno055.c ****  *  @param gyro_x_s16 : The x raw data
1283:Core/Src/bno055.c ****  *
1284:Core/Src/bno055.c ****  *
1285:Core/Src/bno055.c ****  *
1286:Core/Src/bno055.c ****  *  @return results of bus communication function
1287:Core/Src/bno055.c ****  *  @retval 0 -> BNO055_SUCCESS
1288:Core/Src/bno055.c ****  *  @retval 1 -> BNO055_ERROR
1289:Core/Src/bno055.c ****  *
1290:Core/Src/bno055.c ****  *
1291:Core/Src/bno055.c ****  */
1292:Core/Src/bno055.c **** BNO055_RETURN_FUNCTION_TYPE bno055_read_gyro_x(s16 *gyro_x_s16)
1293:Core/Src/bno055.c **** {
 2223              		.loc 1 1293 1 is_stmt 1 view -0
 2224              		.cfi_startproc
 2225              		@ args = 0, pretend = 0, frame = 8
 2226              		@ frame_needed = 0, uses_anonymous_args = 0
 2227              		.loc 1 1293 1 is_stmt 0 view .LVU627
 2228 0000 30B5     		push	{r4, r5, lr}
 2229              		.cfi_def_cfa_offset 12
 2230              		.cfi_offset 4, -12
 2231              		.cfi_offset 5, -8
 2232              		.cfi_offset 14, -4
 2233 0002 83B0     		sub	sp, sp, #12
 2234              		.cfi_def_cfa_offset 24
1294:Core/Src/bno055.c ****     /* Variable used to return value of
1295:Core/Src/bno055.c ****      * communication routine*/
1296:Core/Src/bno055.c ****     BNO055_RETURN_FUNCTION_TYPE com_rslt = BNO055_ERROR;
 2235              		.loc 1 1296 5 is_stmt 1 view .LVU628
 2236              	.LVL227:
1297:Core/Src/bno055.c ****     u8 data_u8[BNO055_GYRO_DATA_SIZE] = { BNO055_INIT_VALUE, BNO055_INIT_VALUE };
 2237              		.loc 1 1297 5 view .LVU629
 2238              		.loc 1 1297 8 is_stmt 0 view .LVU630
 2239 0004 0023     		movs	r3, #0
 2240 0006 ADF80430 		strh	r3, [sp, #4]	@ movhi
1298:Core/Src/bno055.c ****     s8 stat_s8 = BNO055_ERROR;
 2241              		.loc 1 1298 5 is_stmt 1 view .LVU631
 2242              	.LVL228:
1299:Core/Src/bno055.c **** 
1300:Core/Src/bno055.c ****     /* Check the struct p_bno055 is empty */
1301:Core/Src/bno055.c ****     if (p_bno055 == NULL)
 2243              		.loc 1 1301 5 view .LVU632
 2244              		.loc 1 1301 18 is_stmt 0 view .LVU633
 2245 000a 134B     		ldr	r3, .L179
 2246 000c 1B68     		ldr	r3, [r3]
 2247              		.loc 1 1301 8 view .LVU634
 2248 000e EBB1     		cbz	r3, .L175
 2249 0010 0446     		mov	r4, r0
1302:Core/Src/bno055.c ****     {
1303:Core/Src/bno055.c ****         return BNO055_E_NULL_PTR;
1304:Core/Src/bno055.c ****     }
1305:Core/Src/bno055.c ****     else
1306:Core/Src/bno055.c ****     {
ARM GAS  /tmp/ccOloYeZ.s 			page 66


1307:Core/Src/bno055.c ****         /*condition check for page, chip id is
1308:Core/Src/bno055.c ****          * available in the page zero*/
1309:Core/Src/bno055.c ****         if (p_bno055->page_id != BNO055_PAGE_ZERO)
 2250              		.loc 1 1309 9 is_stmt 1 view .LVU635
 2251              		.loc 1 1309 21 is_stmt 0 view .LVU636
 2252 0012 1B79     		ldrb	r3, [r3, #4]	@ zero_extendqisi2
 2253              		.loc 1 1309 12 view .LVU637
 2254 0014 A3B9     		cbnz	r3, .L178
 2255              	.LVL229:
 2256              	.L173:
1310:Core/Src/bno055.c ****         {
1311:Core/Src/bno055.c ****             /* Write the page zero*/
1312:Core/Src/bno055.c ****             stat_s8 = bno055_write_page_id(BNO055_PAGE_ZERO);
1313:Core/Src/bno055.c ****         }
1314:Core/Src/bno055.c ****         if ((stat_s8 == BNO055_SUCCESS) || (p_bno055->page_id == BNO055_PAGE_ZERO))
 2257              		.loc 1 1314 53 discriminator 1 view .LVU638
 2258 0016 104B     		ldr	r3, .L179
 2259 0018 1B68     		ldr	r3, [r3]
 2260 001a 1B79     		ldrb	r3, [r3, #4]	@ zero_extendqisi2
 2261              		.loc 1 1314 41 discriminator 1 view .LVU639
 2262 001c CBB9     		cbnz	r3, .L176
 2263              	.L174:
1315:Core/Src/bno055.c ****         {
1316:Core/Src/bno055.c ****             /* Read the gyro 16 bit x value*/
1317:Core/Src/bno055.c ****             com_rslt = p_bno055->BNO055_BUS_READ_FUNC(p_bno055->dev_addr,
 2264              		.loc 1 1317 13 is_stmt 1 view .LVU640
 2265              		.loc 1 1317 32 is_stmt 0 view .LVU641
 2266 001e 0E4B     		ldr	r3, .L179
 2267 0020 1868     		ldr	r0, [r3]
 2268 0022 0569     		ldr	r5, [r0, #16]
 2269              		.loc 1 1317 24 view .LVU642
 2270 0024 0223     		movs	r3, #2
 2271 0026 01AA     		add	r2, sp, #4
 2272 0028 1421     		movs	r1, #20
 2273 002a 407A     		ldrb	r0, [r0, #9]	@ zero_extendqisi2
 2274 002c A847     		blx	r5
 2275              	.LVL230:
1318:Core/Src/bno055.c ****                                                       BNO055_GYRO_DATA_X_LSB_VALUEX_REG,
1319:Core/Src/bno055.c ****                                                       data_u8,
1320:Core/Src/bno055.c ****                                                       BNO055_LSB_MSB_READ_LENGTH);
1321:Core/Src/bno055.c ****             data_u8[BNO055_SENSOR_DATA_LSB] = BNO055_GET_BITSLICE(data_u8[BNO055_SENSOR_DATA_LSB],
 2276              		.loc 1 1321 13 is_stmt 1 view .LVU643
1322:Core/Src/bno055.c ****                                                                   BNO055_GYRO_DATA_X_LSB_VALUEX);
1323:Core/Src/bno055.c ****             data_u8[BNO055_SENSOR_DATA_MSB] = BNO055_GET_BITSLICE(data_u8[BNO055_SENSOR_DATA_MSB],
 2277              		.loc 1 1323 13 view .LVU644
1324:Core/Src/bno055.c ****                                                                   BNO055_GYRO_DATA_X_MSB_VALUEX);
1325:Core/Src/bno055.c ****             *gyro_x_s16 =
 2278              		.loc 1 1325 13 view .LVU645
1326:Core/Src/bno055.c ****                 (s16)((((s32)((s8)data_u8[BNO055_SENSOR_DATA_MSB])) << BNO055_SHIFT_EIGHT_BITS) |
 2279              		.loc 1 1326 31 is_stmt 0 view .LVU646
 2280 002e 9DF90520 		ldrsb	r2, [sp, #5]
1327:Core/Src/bno055.c ****                       (data_u8[BNO055_SENSOR_DATA_LSB]));
 2281              		.loc 1 1327 31 view .LVU647
 2282 0032 9DF80430 		ldrb	r3, [sp, #4]	@ zero_extendqisi2
1326:Core/Src/bno055.c ****                 (s16)((((s32)((s8)data_u8[BNO055_SENSOR_DATA_MSB])) << BNO055_SHIFT_EIGHT_BITS) |
 2283              		.loc 1 1326 17 view .LVU648
 2284 0036 43EA0223 		orr	r3, r3, r2, lsl #8
ARM GAS  /tmp/ccOloYeZ.s 			page 67


1325:Core/Src/bno055.c ****                 (s16)((((s32)((s8)data_u8[BNO055_SENSOR_DATA_MSB])) << BNO055_SHIFT_EIGHT_BITS) |
 2285              		.loc 1 1325 25 view .LVU649
 2286 003a 2380     		strh	r3, [r4]	@ movhi
 2287              	.LVL231:
 2288              	.L172:
1328:Core/Src/bno055.c ****         }
1329:Core/Src/bno055.c ****         else
1330:Core/Src/bno055.c ****         {
1331:Core/Src/bno055.c ****             com_rslt = BNO055_ERROR;
1332:Core/Src/bno055.c ****         }
1333:Core/Src/bno055.c ****     }
1334:Core/Src/bno055.c **** 
1335:Core/Src/bno055.c ****     return com_rslt;
1336:Core/Src/bno055.c **** }
 2289              		.loc 1 1336 1 view .LVU650
 2290 003c 03B0     		add	sp, sp, #12
 2291              		.cfi_remember_state
 2292              		.cfi_def_cfa_offset 12
 2293              		@ sp needed
 2294 003e 30BD     		pop	{r4, r5, pc}
 2295              	.LVL232:
 2296              	.L178:
 2297              		.cfi_restore_state
1312:Core/Src/bno055.c ****         }
 2298              		.loc 1 1312 13 is_stmt 1 view .LVU651
1312:Core/Src/bno055.c ****         }
 2299              		.loc 1 1312 23 is_stmt 0 view .LVU652
 2300 0040 0020     		movs	r0, #0
 2301              	.LVL233:
1312:Core/Src/bno055.c ****         }
 2302              		.loc 1 1312 23 view .LVU653
 2303 0042 FFF7FEFF 		bl	bno055_write_page_id
 2304              	.LVL234:
1314:Core/Src/bno055.c ****         {
 2305              		.loc 1 1314 9 is_stmt 1 view .LVU654
1314:Core/Src/bno055.c ****         {
 2306              		.loc 1 1314 12 is_stmt 0 view .LVU655
 2307 0046 0028     		cmp	r0, #0
 2308 0048 E9D0     		beq	.L174
 2309 004a E4E7     		b	.L173
 2310              	.LVL235:
 2311              	.L175:
1303:Core/Src/bno055.c ****     }
 2312              		.loc 1 1303 16 view .LVU656
 2313 004c 6FF07E00 		mvn	r0, #126
 2314              	.LVL236:
1303:Core/Src/bno055.c ****     }
 2315              		.loc 1 1303 16 view .LVU657
 2316 0050 F4E7     		b	.L172
 2317              	.LVL237:
 2318              	.L176:
1331:Core/Src/bno055.c ****         }
 2319              		.loc 1 1331 22 view .LVU658
 2320 0052 4FF0FF30 		mov	r0, #-1
 2321 0056 F1E7     		b	.L172
 2322              	.L180:
 2323              		.align	2
ARM GAS  /tmp/ccOloYeZ.s 			page 68


 2324              	.L179:
 2325 0058 00000000 		.word	p_bno055
 2326              		.cfi_endproc
 2327              	.LFE19:
 2329              		.section	.text.bno055_read_gyro_y,"ax",%progbits
 2330              		.align	1
 2331              		.global	bno055_read_gyro_y
 2332              		.syntax unified
 2333              		.thumb
 2334              		.thumb_func
 2336              	bno055_read_gyro_y:
 2337              	.LVL238:
 2338              	.LFB20:
1337:Core/Src/bno055.c **** 
1338:Core/Src/bno055.c **** /*!
1339:Core/Src/bno055.c ****  *  @brief This API reads gyro data y values
1340:Core/Src/bno055.c ****  *  from register 0x16 and 0x17 it is a two byte data
1341:Core/Src/bno055.c ****  *
1342:Core/Src/bno055.c ****  *
1343:Core/Src/bno055.c ****  *
1344:Core/Src/bno055.c ****  *
1345:Core/Src/bno055.c ****  *  @param gyro_y_s16 : The y raw data
1346:Core/Src/bno055.c ****  *
1347:Core/Src/bno055.c ****  *
1348:Core/Src/bno055.c ****  *
1349:Core/Src/bno055.c ****  *  @return results of bus communication function
1350:Core/Src/bno055.c ****  *  @retval 0 -> BNO055_SUCCESS
1351:Core/Src/bno055.c ****  *  @retval 1 -> BNO055_ERROR
1352:Core/Src/bno055.c ****  *
1353:Core/Src/bno055.c ****  *
1354:Core/Src/bno055.c ****  */
1355:Core/Src/bno055.c **** BNO055_RETURN_FUNCTION_TYPE bno055_read_gyro_y(s16 *gyro_y_s16)
1356:Core/Src/bno055.c **** {
 2339              		.loc 1 1356 1 is_stmt 1 view -0
 2340              		.cfi_startproc
 2341              		@ args = 0, pretend = 0, frame = 8
 2342              		@ frame_needed = 0, uses_anonymous_args = 0
 2343              		.loc 1 1356 1 is_stmt 0 view .LVU660
 2344 0000 30B5     		push	{r4, r5, lr}
 2345              		.cfi_def_cfa_offset 12
 2346              		.cfi_offset 4, -12
 2347              		.cfi_offset 5, -8
 2348              		.cfi_offset 14, -4
 2349 0002 83B0     		sub	sp, sp, #12
 2350              		.cfi_def_cfa_offset 24
1357:Core/Src/bno055.c ****     /* Variable used to return value of
1358:Core/Src/bno055.c ****      * communication routine*/
1359:Core/Src/bno055.c ****     BNO055_RETURN_FUNCTION_TYPE com_rslt = BNO055_ERROR;
 2351              		.loc 1 1359 5 is_stmt 1 view .LVU661
 2352              	.LVL239:
1360:Core/Src/bno055.c ****     u8 data_u8[BNO055_GYRO_DATA_SIZE] = { BNO055_INIT_VALUE, BNO055_INIT_VALUE };
 2353              		.loc 1 1360 5 view .LVU662
 2354              		.loc 1 1360 8 is_stmt 0 view .LVU663
 2355 0004 0023     		movs	r3, #0
 2356 0006 ADF80430 		strh	r3, [sp, #4]	@ movhi
1361:Core/Src/bno055.c ****     s8 stat_s8 = BNO055_ERROR;
 2357              		.loc 1 1361 5 is_stmt 1 view .LVU664
ARM GAS  /tmp/ccOloYeZ.s 			page 69


 2358              	.LVL240:
1362:Core/Src/bno055.c **** 
1363:Core/Src/bno055.c ****     /* Check the struct p_bno055 is empty */
1364:Core/Src/bno055.c ****     if (p_bno055 == NULL)
 2359              		.loc 1 1364 5 view .LVU665
 2360              		.loc 1 1364 18 is_stmt 0 view .LVU666
 2361 000a 134B     		ldr	r3, .L189
 2362 000c 1B68     		ldr	r3, [r3]
 2363              		.loc 1 1364 8 view .LVU667
 2364 000e EBB1     		cbz	r3, .L185
 2365 0010 0446     		mov	r4, r0
1365:Core/Src/bno055.c ****     {
1366:Core/Src/bno055.c ****         return BNO055_E_NULL_PTR;
1367:Core/Src/bno055.c ****     }
1368:Core/Src/bno055.c ****     else
1369:Core/Src/bno055.c ****     {
1370:Core/Src/bno055.c ****         /*condition check for page, chip id is
1371:Core/Src/bno055.c ****          * available in the page zero*/
1372:Core/Src/bno055.c ****         if (p_bno055->page_id != BNO055_PAGE_ZERO)
 2366              		.loc 1 1372 9 is_stmt 1 view .LVU668
 2367              		.loc 1 1372 21 is_stmt 0 view .LVU669
 2368 0012 1B79     		ldrb	r3, [r3, #4]	@ zero_extendqisi2
 2369              		.loc 1 1372 12 view .LVU670
 2370 0014 A3B9     		cbnz	r3, .L188
 2371              	.LVL241:
 2372              	.L183:
1373:Core/Src/bno055.c ****         {
1374:Core/Src/bno055.c ****             /* Write the page zero*/
1375:Core/Src/bno055.c ****             stat_s8 = bno055_write_page_id(BNO055_PAGE_ZERO);
1376:Core/Src/bno055.c ****         }
1377:Core/Src/bno055.c ****         if ((stat_s8 == BNO055_SUCCESS) || (p_bno055->page_id == BNO055_PAGE_ZERO))
 2373              		.loc 1 1377 53 discriminator 1 view .LVU671
 2374 0016 104B     		ldr	r3, .L189
 2375 0018 1B68     		ldr	r3, [r3]
 2376 001a 1B79     		ldrb	r3, [r3, #4]	@ zero_extendqisi2
 2377              		.loc 1 1377 41 discriminator 1 view .LVU672
 2378 001c CBB9     		cbnz	r3, .L186
 2379              	.L184:
1378:Core/Src/bno055.c ****         {
1379:Core/Src/bno055.c ****             /* Read the value of gyro y */
1380:Core/Src/bno055.c ****             com_rslt = p_bno055->BNO055_BUS_READ_FUNC(p_bno055->dev_addr,
 2380              		.loc 1 1380 13 is_stmt 1 view .LVU673
 2381              		.loc 1 1380 32 is_stmt 0 view .LVU674
 2382 001e 0E4B     		ldr	r3, .L189
 2383 0020 1868     		ldr	r0, [r3]
 2384 0022 0569     		ldr	r5, [r0, #16]
 2385              		.loc 1 1380 24 view .LVU675
 2386 0024 0223     		movs	r3, #2
 2387 0026 01AA     		add	r2, sp, #4
 2388 0028 1621     		movs	r1, #22
 2389 002a 407A     		ldrb	r0, [r0, #9]	@ zero_extendqisi2
 2390 002c A847     		blx	r5
 2391              	.LVL242:
1381:Core/Src/bno055.c ****                                                       BNO055_GYRO_DATA_Y_LSB_VALUEY_REG,
1382:Core/Src/bno055.c ****                                                       data_u8,
1383:Core/Src/bno055.c ****                                                       BNO055_LSB_MSB_READ_LENGTH);
1384:Core/Src/bno055.c ****             data_u8[BNO055_SENSOR_DATA_LSB] = BNO055_GET_BITSLICE(data_u8[BNO055_SENSOR_DATA_LSB],
ARM GAS  /tmp/ccOloYeZ.s 			page 70


 2392              		.loc 1 1384 13 is_stmt 1 view .LVU676
1385:Core/Src/bno055.c ****                                                                   BNO055_GYRO_DATA_Y_LSB_VALUEY);
1386:Core/Src/bno055.c ****             data_u8[BNO055_SENSOR_DATA_MSB] = BNO055_GET_BITSLICE(data_u8[BNO055_SENSOR_DATA_MSB],
 2393              		.loc 1 1386 13 view .LVU677
1387:Core/Src/bno055.c ****                                                                   BNO055_GYRO_DATA_Y_MSB_VALUEY);
1388:Core/Src/bno055.c ****             *gyro_y_s16 =
 2394              		.loc 1 1388 13 view .LVU678
1389:Core/Src/bno055.c ****                 (s16)((((s32)((s8)data_u8[BNO055_SENSOR_DATA_MSB])) << BNO055_SHIFT_EIGHT_BITS) |
 2395              		.loc 1 1389 31 is_stmt 0 view .LVU679
 2396 002e 9DF90520 		ldrsb	r2, [sp, #5]
1390:Core/Src/bno055.c ****                       (data_u8[BNO055_SENSOR_DATA_LSB]));
 2397              		.loc 1 1390 31 view .LVU680
 2398 0032 9DF80430 		ldrb	r3, [sp, #4]	@ zero_extendqisi2
1389:Core/Src/bno055.c ****                 (s16)((((s32)((s8)data_u8[BNO055_SENSOR_DATA_MSB])) << BNO055_SHIFT_EIGHT_BITS) |
 2399              		.loc 1 1389 17 view .LVU681
 2400 0036 43EA0223 		orr	r3, r3, r2, lsl #8
1388:Core/Src/bno055.c ****                 (s16)((((s32)((s8)data_u8[BNO055_SENSOR_DATA_MSB])) << BNO055_SHIFT_EIGHT_BITS) |
 2401              		.loc 1 1388 25 view .LVU682
 2402 003a 2380     		strh	r3, [r4]	@ movhi
 2403              	.LVL243:
 2404              	.L182:
1391:Core/Src/bno055.c ****         }
1392:Core/Src/bno055.c ****         else
1393:Core/Src/bno055.c ****         {
1394:Core/Src/bno055.c ****             com_rslt = BNO055_ERROR;
1395:Core/Src/bno055.c ****         }
1396:Core/Src/bno055.c ****     }
1397:Core/Src/bno055.c **** 
1398:Core/Src/bno055.c ****     return com_rslt;
1399:Core/Src/bno055.c **** }
 2405              		.loc 1 1399 1 view .LVU683
 2406 003c 03B0     		add	sp, sp, #12
 2407              		.cfi_remember_state
 2408              		.cfi_def_cfa_offset 12
 2409              		@ sp needed
 2410 003e 30BD     		pop	{r4, r5, pc}
 2411              	.LVL244:
 2412              	.L188:
 2413              		.cfi_restore_state
1375:Core/Src/bno055.c ****         }
 2414              		.loc 1 1375 13 is_stmt 1 view .LVU684
1375:Core/Src/bno055.c ****         }
 2415              		.loc 1 1375 23 is_stmt 0 view .LVU685
 2416 0040 0020     		movs	r0, #0
 2417              	.LVL245:
1375:Core/Src/bno055.c ****         }
 2418              		.loc 1 1375 23 view .LVU686
 2419 0042 FFF7FEFF 		bl	bno055_write_page_id
 2420              	.LVL246:
1377:Core/Src/bno055.c ****         {
 2421              		.loc 1 1377 9 is_stmt 1 view .LVU687
1377:Core/Src/bno055.c ****         {
 2422              		.loc 1 1377 12 is_stmt 0 view .LVU688
 2423 0046 0028     		cmp	r0, #0
 2424 0048 E9D0     		beq	.L184
 2425 004a E4E7     		b	.L183
 2426              	.LVL247:
ARM GAS  /tmp/ccOloYeZ.s 			page 71


 2427              	.L185:
1366:Core/Src/bno055.c ****     }
 2428              		.loc 1 1366 16 view .LVU689
 2429 004c 6FF07E00 		mvn	r0, #126
 2430              	.LVL248:
1366:Core/Src/bno055.c ****     }
 2431              		.loc 1 1366 16 view .LVU690
 2432 0050 F4E7     		b	.L182
 2433              	.LVL249:
 2434              	.L186:
1394:Core/Src/bno055.c ****         }
 2435              		.loc 1 1394 22 view .LVU691
 2436 0052 4FF0FF30 		mov	r0, #-1
 2437 0056 F1E7     		b	.L182
 2438              	.L190:
 2439              		.align	2
 2440              	.L189:
 2441 0058 00000000 		.word	p_bno055
 2442              		.cfi_endproc
 2443              	.LFE20:
 2445              		.section	.text.bno055_read_gyro_z,"ax",%progbits
 2446              		.align	1
 2447              		.global	bno055_read_gyro_z
 2448              		.syntax unified
 2449              		.thumb
 2450              		.thumb_func
 2452              	bno055_read_gyro_z:
 2453              	.LVL250:
 2454              	.LFB21:
1400:Core/Src/bno055.c **** 
1401:Core/Src/bno055.c **** /*!
1402:Core/Src/bno055.c ****  *  @brief This API reads gyro data z values
1403:Core/Src/bno055.c ****  *  from register 0x18 and 0x19 it is a two byte data
1404:Core/Src/bno055.c ****  *
1405:Core/Src/bno055.c ****  *  @param gyro_z_s16 : The z raw data
1406:Core/Src/bno055.c ****  *
1407:Core/Src/bno055.c ****  *  @return results of bus communication function
1408:Core/Src/bno055.c ****  *  @retval 0 -> BNO055_SUCCESS
1409:Core/Src/bno055.c ****  *  @retval 1 -> BNO055_ERROR
1410:Core/Src/bno055.c ****  *
1411:Core/Src/bno055.c ****  *
1412:Core/Src/bno055.c ****  */
1413:Core/Src/bno055.c **** BNO055_RETURN_FUNCTION_TYPE bno055_read_gyro_z(s16 *gyro_z_s16)
1414:Core/Src/bno055.c **** {
 2455              		.loc 1 1414 1 is_stmt 1 view -0
 2456              		.cfi_startproc
 2457              		@ args = 0, pretend = 0, frame = 8
 2458              		@ frame_needed = 0, uses_anonymous_args = 0
 2459              		.loc 1 1414 1 is_stmt 0 view .LVU693
 2460 0000 30B5     		push	{r4, r5, lr}
 2461              		.cfi_def_cfa_offset 12
 2462              		.cfi_offset 4, -12
 2463              		.cfi_offset 5, -8
 2464              		.cfi_offset 14, -4
 2465 0002 83B0     		sub	sp, sp, #12
 2466              		.cfi_def_cfa_offset 24
1415:Core/Src/bno055.c ****     /* Variable used to return value of
ARM GAS  /tmp/ccOloYeZ.s 			page 72


1416:Core/Src/bno055.c ****      * communication routine*/
1417:Core/Src/bno055.c ****     BNO055_RETURN_FUNCTION_TYPE com_rslt = BNO055_ERROR;
 2467              		.loc 1 1417 5 is_stmt 1 view .LVU694
 2468              	.LVL251:
1418:Core/Src/bno055.c ****     u8 data_u8[BNO055_GYRO_DATA_SIZE] = { BNO055_INIT_VALUE, BNO055_INIT_VALUE };
 2469              		.loc 1 1418 5 view .LVU695
 2470              		.loc 1 1418 8 is_stmt 0 view .LVU696
 2471 0004 0023     		movs	r3, #0
 2472 0006 ADF80430 		strh	r3, [sp, #4]	@ movhi
1419:Core/Src/bno055.c ****     s8 stat_s8 = BNO055_ERROR;
 2473              		.loc 1 1419 5 is_stmt 1 view .LVU697
 2474              	.LVL252:
1420:Core/Src/bno055.c **** 
1421:Core/Src/bno055.c ****     /* Check the struct p_bno055 is empty */
1422:Core/Src/bno055.c ****     if (p_bno055 == NULL)
 2475              		.loc 1 1422 5 view .LVU698
 2476              		.loc 1 1422 18 is_stmt 0 view .LVU699
 2477 000a 134B     		ldr	r3, .L199
 2478 000c 1B68     		ldr	r3, [r3]
 2479              		.loc 1 1422 8 view .LVU700
 2480 000e EBB1     		cbz	r3, .L195
 2481 0010 0446     		mov	r4, r0
1423:Core/Src/bno055.c ****     {
1424:Core/Src/bno055.c ****         return BNO055_E_NULL_PTR;
1425:Core/Src/bno055.c ****     }
1426:Core/Src/bno055.c ****     else
1427:Core/Src/bno055.c ****     {
1428:Core/Src/bno055.c ****         /*condition check for page, chip id is
1429:Core/Src/bno055.c ****          * available in the page zero*/
1430:Core/Src/bno055.c ****         if (p_bno055->page_id != BNO055_PAGE_ZERO)
 2482              		.loc 1 1430 9 is_stmt 1 view .LVU701
 2483              		.loc 1 1430 21 is_stmt 0 view .LVU702
 2484 0012 1B79     		ldrb	r3, [r3, #4]	@ zero_extendqisi2
 2485              		.loc 1 1430 12 view .LVU703
 2486 0014 A3B9     		cbnz	r3, .L198
 2487              	.LVL253:
 2488              	.L193:
1431:Core/Src/bno055.c ****         {
1432:Core/Src/bno055.c ****             /* Write the page zero*/
1433:Core/Src/bno055.c ****             stat_s8 = bno055_write_page_id(BNO055_PAGE_ZERO);
1434:Core/Src/bno055.c ****         }
1435:Core/Src/bno055.c ****         if ((stat_s8 == BNO055_SUCCESS) || (p_bno055->page_id == BNO055_PAGE_ZERO))
 2489              		.loc 1 1435 53 discriminator 1 view .LVU704
 2490 0016 104B     		ldr	r3, .L199
 2491 0018 1B68     		ldr	r3, [r3]
 2492 001a 1B79     		ldrb	r3, [r3, #4]	@ zero_extendqisi2
 2493              		.loc 1 1435 41 discriminator 1 view .LVU705
 2494 001c CBB9     		cbnz	r3, .L196
 2495              	.L194:
1436:Core/Src/bno055.c ****         {
1437:Core/Src/bno055.c ****             /* Read the gyro z 16 bit value*/
1438:Core/Src/bno055.c ****             com_rslt = p_bno055->BNO055_BUS_READ_FUNC(p_bno055->dev_addr,
 2496              		.loc 1 1438 13 is_stmt 1 view .LVU706
 2497              		.loc 1 1438 32 is_stmt 0 view .LVU707
 2498 001e 0E4B     		ldr	r3, .L199
 2499 0020 1868     		ldr	r0, [r3]
 2500 0022 0569     		ldr	r5, [r0, #16]
ARM GAS  /tmp/ccOloYeZ.s 			page 73


 2501              		.loc 1 1438 24 view .LVU708
 2502 0024 0223     		movs	r3, #2
 2503 0026 01AA     		add	r2, sp, #4
 2504 0028 1821     		movs	r1, #24
 2505 002a 407A     		ldrb	r0, [r0, #9]	@ zero_extendqisi2
 2506 002c A847     		blx	r5
 2507              	.LVL254:
1439:Core/Src/bno055.c ****                                                       BNO055_GYRO_DATA_Z_LSB_VALUEZ_REG,
1440:Core/Src/bno055.c ****                                                       data_u8,
1441:Core/Src/bno055.c ****                                                       BNO055_LSB_MSB_READ_LENGTH);
1442:Core/Src/bno055.c ****             data_u8[BNO055_SENSOR_DATA_LSB] = BNO055_GET_BITSLICE(data_u8[BNO055_SENSOR_DATA_LSB],
 2508              		.loc 1 1442 13 is_stmt 1 view .LVU709
1443:Core/Src/bno055.c ****                                                                   BNO055_GYRO_DATA_Z_LSB_VALUEZ);
1444:Core/Src/bno055.c ****             data_u8[BNO055_SENSOR_DATA_MSB] = BNO055_GET_BITSLICE(data_u8[BNO055_SENSOR_DATA_MSB],
 2509              		.loc 1 1444 13 view .LVU710
1445:Core/Src/bno055.c ****                                                                   BNO055_GYRO_DATA_Z_MSB_VALUEZ);
1446:Core/Src/bno055.c ****             *gyro_z_s16 =
 2510              		.loc 1 1446 13 view .LVU711
1447:Core/Src/bno055.c ****                 (s16)((((s32)((s8)data_u8[BNO055_SENSOR_DATA_MSB])) << BNO055_SHIFT_EIGHT_BITS) |
 2511              		.loc 1 1447 31 is_stmt 0 view .LVU712
 2512 002e 9DF90520 		ldrsb	r2, [sp, #5]
1448:Core/Src/bno055.c ****                       (data_u8[BNO055_SENSOR_DATA_LSB]));
 2513              		.loc 1 1448 31 view .LVU713
 2514 0032 9DF80430 		ldrb	r3, [sp, #4]	@ zero_extendqisi2
1447:Core/Src/bno055.c ****                 (s16)((((s32)((s8)data_u8[BNO055_SENSOR_DATA_MSB])) << BNO055_SHIFT_EIGHT_BITS) |
 2515              		.loc 1 1447 17 view .LVU714
 2516 0036 43EA0223 		orr	r3, r3, r2, lsl #8
1446:Core/Src/bno055.c ****                 (s16)((((s32)((s8)data_u8[BNO055_SENSOR_DATA_MSB])) << BNO055_SHIFT_EIGHT_BITS) |
 2517              		.loc 1 1446 25 view .LVU715
 2518 003a 2380     		strh	r3, [r4]	@ movhi
 2519              	.LVL255:
 2520              	.L192:
1449:Core/Src/bno055.c ****         }
1450:Core/Src/bno055.c ****         else
1451:Core/Src/bno055.c ****         {
1452:Core/Src/bno055.c ****             com_rslt = BNO055_ERROR;
1453:Core/Src/bno055.c ****         }
1454:Core/Src/bno055.c ****     }
1455:Core/Src/bno055.c **** 
1456:Core/Src/bno055.c ****     return com_rslt;
1457:Core/Src/bno055.c **** }
 2521              		.loc 1 1457 1 view .LVU716
 2522 003c 03B0     		add	sp, sp, #12
 2523              		.cfi_remember_state
 2524              		.cfi_def_cfa_offset 12
 2525              		@ sp needed
 2526 003e 30BD     		pop	{r4, r5, pc}
 2527              	.LVL256:
 2528              	.L198:
 2529              		.cfi_restore_state
1433:Core/Src/bno055.c ****         }
 2530              		.loc 1 1433 13 is_stmt 1 view .LVU717
1433:Core/Src/bno055.c ****         }
 2531              		.loc 1 1433 23 is_stmt 0 view .LVU718
 2532 0040 0020     		movs	r0, #0
 2533              	.LVL257:
1433:Core/Src/bno055.c ****         }
ARM GAS  /tmp/ccOloYeZ.s 			page 74


 2534              		.loc 1 1433 23 view .LVU719
 2535 0042 FFF7FEFF 		bl	bno055_write_page_id
 2536              	.LVL258:
1435:Core/Src/bno055.c ****         {
 2537              		.loc 1 1435 9 is_stmt 1 view .LVU720
1435:Core/Src/bno055.c ****         {
 2538              		.loc 1 1435 12 is_stmt 0 view .LVU721
 2539 0046 0028     		cmp	r0, #0
 2540 0048 E9D0     		beq	.L194
 2541 004a E4E7     		b	.L193
 2542              	.LVL259:
 2543              	.L195:
1424:Core/Src/bno055.c ****     }
 2544              		.loc 1 1424 16 view .LVU722
 2545 004c 6FF07E00 		mvn	r0, #126
 2546              	.LVL260:
1424:Core/Src/bno055.c ****     }
 2547              		.loc 1 1424 16 view .LVU723
 2548 0050 F4E7     		b	.L192
 2549              	.LVL261:
 2550              	.L196:
1452:Core/Src/bno055.c ****         }
 2551              		.loc 1 1452 22 view .LVU724
 2552 0052 4FF0FF30 		mov	r0, #-1
 2553 0056 F1E7     		b	.L192
 2554              	.L200:
 2555              		.align	2
 2556              	.L199:
 2557 0058 00000000 		.word	p_bno055
 2558              		.cfi_endproc
 2559              	.LFE21:
 2561              		.section	.text.bno055_read_gyro_xyz,"ax",%progbits
 2562              		.align	1
 2563              		.global	bno055_read_gyro_xyz
 2564              		.syntax unified
 2565              		.thumb
 2566              		.thumb_func
 2568              	bno055_read_gyro_xyz:
 2569              	.LVL262:
 2570              	.LFB22:
1458:Core/Src/bno055.c **** 
1459:Core/Src/bno055.c **** /*!
1460:Core/Src/bno055.c ****  *  @brief This API reads gyro data xyz values
1461:Core/Src/bno055.c ****  *  from register 0x14 to 0x19 it is a six byte data
1462:Core/Src/bno055.c ****  *
1463:Core/Src/bno055.c ****  *
1464:Core/Src/bno055.c ****  *  @param gyro : The value of gyro xyz data's
1465:Core/Src/bno055.c ****  *
1466:Core/Src/bno055.c ****  *  Parameter |    result
1467:Core/Src/bno055.c ****  *  --------- | -----------------
1468:Core/Src/bno055.c ****  *   x        | The gyro x data
1469:Core/Src/bno055.c ****  *   y        | The gyro y data
1470:Core/Src/bno055.c ****  *   z        | The gyro z data
1471:Core/Src/bno055.c ****  *
1472:Core/Src/bno055.c ****  *
1473:Core/Src/bno055.c ****  *
1474:Core/Src/bno055.c ****  *  @return results of bus communication function
ARM GAS  /tmp/ccOloYeZ.s 			page 75


1475:Core/Src/bno055.c ****  *  @retval 0 -> BNO055_SUCCESS
1476:Core/Src/bno055.c ****  *  @retval 1 -> BNO055_ERROR
1477:Core/Src/bno055.c ****  *
1478:Core/Src/bno055.c ****  */
1479:Core/Src/bno055.c **** BNO055_RETURN_FUNCTION_TYPE bno055_read_gyro_xyz(struct bno055_gyro_t *gyro)
1480:Core/Src/bno055.c **** {
 2571              		.loc 1 1480 1 is_stmt 1 view -0
 2572              		.cfi_startproc
 2573              		@ args = 0, pretend = 0, frame = 8
 2574              		@ frame_needed = 0, uses_anonymous_args = 0
 2575              		.loc 1 1480 1 is_stmt 0 view .LVU726
 2576 0000 30B5     		push	{r4, r5, lr}
 2577              		.cfi_def_cfa_offset 12
 2578              		.cfi_offset 4, -12
 2579              		.cfi_offset 5, -8
 2580              		.cfi_offset 14, -4
 2581 0002 83B0     		sub	sp, sp, #12
 2582              		.cfi_def_cfa_offset 24
 2583 0004 0446     		mov	r4, r0
1481:Core/Src/bno055.c ****     /* Variable used to return value of
1482:Core/Src/bno055.c ****      * communication routine*/
1483:Core/Src/bno055.c ****     BNO055_RETURN_FUNCTION_TYPE com_rslt = BNO055_ERROR;
 2584              		.loc 1 1483 5 is_stmt 1 view .LVU727
 2585              	.LVL263:
1484:Core/Src/bno055.c **** 
1485:Core/Src/bno055.c ****     /* Array holding the gyro xyz value
1486:Core/Src/bno055.c ****      * data_u8[BNO055_SENSOR_DATA_XYZ_X_LSB] - x->LSB
1487:Core/Src/bno055.c ****      * data_u8[BNO055_SENSOR_DATA_XYZ_X_MSB] - x->MSB
1488:Core/Src/bno055.c ****      * data_u8[BNO055_SENSOR_DATA_XYZ_Y_LSB] - y->MSB
1489:Core/Src/bno055.c ****      * data_u8[BNO055_SENSOR_DATA_XYZ_Y_MSB] - y->MSB
1490:Core/Src/bno055.c ****      * data_u8[BNO055_SENSOR_DATA_XYZ_Z_LSB] - z->MSB
1491:Core/Src/bno055.c ****      * data_u8[BNO055_SENSOR_DATA_XYZ_Z_MSB] - z->MSB
1492:Core/Src/bno055.c ****      */
1493:Core/Src/bno055.c ****     u8 data_u8[BNO055_GYRO_XYZ_DATA_SIZE] = {
 2586              		.loc 1 1493 5 view .LVU728
 2587              		.loc 1 1493 8 is_stmt 0 view .LVU729
 2588 0006 1D4B     		ldr	r3, .L209
 2589 0008 93E80300 		ldm	r3, {r0, r1}
 2590              	.LVL264:
 2591              		.loc 1 1493 8 view .LVU730
 2592 000c 0090     		str	r0, [sp]
 2593 000e ADF80410 		strh	r1, [sp, #4]	@ movhi
1494:Core/Src/bno055.c ****         BNO055_INIT_VALUE, BNO055_INIT_VALUE, BNO055_INIT_VALUE, BNO055_INIT_VALUE, BNO055_INIT_VAL
1495:Core/Src/bno055.c ****     };
1496:Core/Src/bno055.c ****     s8 stat_s8 = BNO055_ERROR;
 2594              		.loc 1 1496 5 is_stmt 1 view .LVU731
 2595              	.LVL265:
1497:Core/Src/bno055.c **** 
1498:Core/Src/bno055.c ****     /* Check the struct p_bno055 is empty */
1499:Core/Src/bno055.c ****     if (p_bno055 == NULL)
 2596              		.loc 1 1499 5 view .LVU732
 2597              		.loc 1 1499 18 is_stmt 0 view .LVU733
 2598 0012 1B4B     		ldr	r3, .L209+4
 2599 0014 1B68     		ldr	r3, [r3]
 2600              		.loc 1 1499 8 view .LVU734
 2601 0016 53B3     		cbz	r3, .L205
1500:Core/Src/bno055.c ****     {
ARM GAS  /tmp/ccOloYeZ.s 			page 76


1501:Core/Src/bno055.c ****         return BNO055_E_NULL_PTR;
1502:Core/Src/bno055.c ****     }
1503:Core/Src/bno055.c ****     else
1504:Core/Src/bno055.c ****     {
1505:Core/Src/bno055.c ****         /*condition check for page, chip id is
1506:Core/Src/bno055.c ****          * available in the page zero*/
1507:Core/Src/bno055.c ****         if (p_bno055->page_id != BNO055_PAGE_ZERO)
 2602              		.loc 1 1507 9 is_stmt 1 view .LVU735
 2603              		.loc 1 1507 21 is_stmt 0 view .LVU736
 2604 0018 1B79     		ldrb	r3, [r3, #4]	@ zero_extendqisi2
 2605              		.loc 1 1507 12 view .LVU737
 2606 001a 13BB     		cbnz	r3, .L208
 2607              	.LVL266:
 2608              	.L203:
1508:Core/Src/bno055.c ****         {
1509:Core/Src/bno055.c ****             /* Write the page zero*/
1510:Core/Src/bno055.c ****             stat_s8 = bno055_write_page_id(BNO055_PAGE_ZERO);
1511:Core/Src/bno055.c ****         }
1512:Core/Src/bno055.c ****         if ((stat_s8 == BNO055_SUCCESS) || (p_bno055->page_id == BNO055_PAGE_ZERO))
 2609              		.loc 1 1512 53 discriminator 1 view .LVU738
 2610 001c 184B     		ldr	r3, .L209+4
 2611 001e 1B68     		ldr	r3, [r3]
 2612 0020 1B79     		ldrb	r3, [r3, #4]	@ zero_extendqisi2
 2613              		.loc 1 1512 41 discriminator 1 view .LVU739
 2614 0022 3BBB     		cbnz	r3, .L206
 2615              	.L204:
1513:Core/Src/bno055.c ****         {
1514:Core/Src/bno055.c ****             /* Read the six bytes data of gyro xyz*/
1515:Core/Src/bno055.c ****             com_rslt = p_bno055->BNO055_BUS_READ_FUNC(p_bno055->dev_addr,
 2616              		.loc 1 1515 13 is_stmt 1 view .LVU740
 2617              		.loc 1 1515 32 is_stmt 0 view .LVU741
 2618 0024 164B     		ldr	r3, .L209+4
 2619 0026 1868     		ldr	r0, [r3]
 2620 0028 0569     		ldr	r5, [r0, #16]
 2621              		.loc 1 1515 24 view .LVU742
 2622 002a 0623     		movs	r3, #6
 2623 002c 6A46     		mov	r2, sp
 2624 002e 1421     		movs	r1, #20
 2625 0030 407A     		ldrb	r0, [r0, #9]	@ zero_extendqisi2
 2626 0032 A847     		blx	r5
 2627              	.LVL267:
1516:Core/Src/bno055.c ****                                                       BNO055_GYRO_DATA_X_LSB_VALUEX_REG,
1517:Core/Src/bno055.c ****                                                       data_u8,
1518:Core/Src/bno055.c ****                                                       BNO055_GYRO_XYZ_DATA_SIZE);
1519:Core/Src/bno055.c **** 
1520:Core/Src/bno055.c ****             /* Data x*/
1521:Core/Src/bno055.c ****             data_u8[BNO055_SENSOR_DATA_XYZ_X_LSB] = BNO055_GET_BITSLICE(data_u8[BNO055_SENSOR_DATA_
 2628              		.loc 1 1521 13 is_stmt 1 view .LVU743
1522:Core/Src/bno055.c ****                                                                         BNO055_GYRO_DATA_X_LSB_VALU
1523:Core/Src/bno055.c ****             data_u8[BNO055_SENSOR_DATA_XYZ_X_MSB] = BNO055_GET_BITSLICE(data_u8[BNO055_SENSOR_DATA_
 2629              		.loc 1 1523 13 view .LVU744
1524:Core/Src/bno055.c ****                                                                         BNO055_GYRO_DATA_X_MSB_VALU
1525:Core/Src/bno055.c ****             gyro->x =
 2630              		.loc 1 1525 13 view .LVU745
1526:Core/Src/bno055.c ****                 (s16)((((s32)((s8)data_u8[BNO055_SENSOR_DATA_XYZ_X_MSB])) << BNO055_SHIFT_EIGHT_BIT
 2631              		.loc 1 1526 31 is_stmt 0 view .LVU746
 2632 0034 9DF90120 		ldrsb	r2, [sp, #1]
ARM GAS  /tmp/ccOloYeZ.s 			page 77


1527:Core/Src/bno055.c ****                       (data_u8[BNO055_SENSOR_DATA_XYZ_X_LSB]));
 2633              		.loc 1 1527 31 view .LVU747
 2634 0038 9DF80030 		ldrb	r3, [sp]	@ zero_extendqisi2
1526:Core/Src/bno055.c ****                 (s16)((((s32)((s8)data_u8[BNO055_SENSOR_DATA_XYZ_X_MSB])) << BNO055_SHIFT_EIGHT_BIT
 2635              		.loc 1 1526 17 view .LVU748
 2636 003c 43EA0223 		orr	r3, r3, r2, lsl #8
1525:Core/Src/bno055.c ****                 (s16)((((s32)((s8)data_u8[BNO055_SENSOR_DATA_XYZ_X_MSB])) << BNO055_SHIFT_EIGHT_BIT
 2637              		.loc 1 1525 21 view .LVU749
 2638 0040 2380     		strh	r3, [r4]	@ movhi
1528:Core/Src/bno055.c **** 
1529:Core/Src/bno055.c ****             /* Data y*/
1530:Core/Src/bno055.c ****             data_u8[BNO055_SENSOR_DATA_XYZ_Y_LSB] = BNO055_GET_BITSLICE(data_u8[BNO055_SENSOR_DATA_
 2639              		.loc 1 1530 13 is_stmt 1 view .LVU750
1531:Core/Src/bno055.c ****                                                                         BNO055_GYRO_DATA_Y_LSB_VALU
1532:Core/Src/bno055.c ****             data_u8[BNO055_SENSOR_DATA_XYZ_Y_MSB] = BNO055_GET_BITSLICE(data_u8[BNO055_SENSOR_DATA_
 2640              		.loc 1 1532 13 view .LVU751
1533:Core/Src/bno055.c ****                                                                         BNO055_GYRO_DATA_Y_MSB_VALU
1534:Core/Src/bno055.c ****             gyro->y =
 2641              		.loc 1 1534 13 view .LVU752
1535:Core/Src/bno055.c ****                 (s16)((((s32)((s8)data_u8[BNO055_SENSOR_DATA_XYZ_Y_MSB])) << BNO055_SHIFT_EIGHT_BIT
 2642              		.loc 1 1535 31 is_stmt 0 view .LVU753
 2643 0042 9DF90320 		ldrsb	r2, [sp, #3]
1536:Core/Src/bno055.c ****                       (data_u8[BNO055_SENSOR_DATA_XYZ_Y_LSB]));
 2644              		.loc 1 1536 31 view .LVU754
 2645 0046 9DF80230 		ldrb	r3, [sp, #2]	@ zero_extendqisi2
1535:Core/Src/bno055.c ****                 (s16)((((s32)((s8)data_u8[BNO055_SENSOR_DATA_XYZ_Y_MSB])) << BNO055_SHIFT_EIGHT_BIT
 2646              		.loc 1 1535 17 view .LVU755
 2647 004a 43EA0223 		orr	r3, r3, r2, lsl #8
1534:Core/Src/bno055.c ****                 (s16)((((s32)((s8)data_u8[BNO055_SENSOR_DATA_XYZ_Y_MSB])) << BNO055_SHIFT_EIGHT_BIT
 2648              		.loc 1 1534 21 view .LVU756
 2649 004e 6380     		strh	r3, [r4, #2]	@ movhi
1537:Core/Src/bno055.c **** 
1538:Core/Src/bno055.c ****             /* Data z*/
1539:Core/Src/bno055.c ****             data_u8[BNO055_SENSOR_DATA_XYZ_Z_LSB] = BNO055_GET_BITSLICE(data_u8[BNO055_SENSOR_DATA_
 2650              		.loc 1 1539 13 is_stmt 1 view .LVU757
1540:Core/Src/bno055.c ****                                                                         BNO055_GYRO_DATA_Z_LSB_VALU
1541:Core/Src/bno055.c ****             data_u8[BNO055_SENSOR_DATA_XYZ_Z_MSB] = BNO055_GET_BITSLICE(data_u8[BNO055_SENSOR_DATA_
 2651              		.loc 1 1541 13 view .LVU758
1542:Core/Src/bno055.c ****                                                                         BNO055_GYRO_DATA_Z_MSB_VALU
1543:Core/Src/bno055.c ****             gyro->z =
 2652              		.loc 1 1543 13 view .LVU759
1544:Core/Src/bno055.c ****                 (s16)((((s32)((s8)data_u8[BNO055_SENSOR_DATA_XYZ_Z_MSB])) << BNO055_SHIFT_EIGHT_BIT
 2653              		.loc 1 1544 31 is_stmt 0 view .LVU760
 2654 0050 9DF90520 		ldrsb	r2, [sp, #5]
1545:Core/Src/bno055.c ****                       (data_u8[BNO055_SENSOR_DATA_XYZ_Z_LSB]));
 2655              		.loc 1 1545 31 view .LVU761
 2656 0054 9DF80430 		ldrb	r3, [sp, #4]	@ zero_extendqisi2
1544:Core/Src/bno055.c ****                 (s16)((((s32)((s8)data_u8[BNO055_SENSOR_DATA_XYZ_Z_MSB])) << BNO055_SHIFT_EIGHT_BIT
 2657              		.loc 1 1544 17 view .LVU762
 2658 0058 43EA0223 		orr	r3, r3, r2, lsl #8
1543:Core/Src/bno055.c ****                 (s16)((((s32)((s8)data_u8[BNO055_SENSOR_DATA_XYZ_Z_MSB])) << BNO055_SHIFT_EIGHT_BIT
 2659              		.loc 1 1543 21 view .LVU763
 2660 005c A380     		strh	r3, [r4, #4]	@ movhi
 2661              	.LVL268:
 2662              	.L202:
1546:Core/Src/bno055.c ****         }
1547:Core/Src/bno055.c ****         else
ARM GAS  /tmp/ccOloYeZ.s 			page 78


1548:Core/Src/bno055.c ****         {
1549:Core/Src/bno055.c ****             com_rslt = BNO055_ERROR;
1550:Core/Src/bno055.c ****         }
1551:Core/Src/bno055.c ****     }
1552:Core/Src/bno055.c **** 
1553:Core/Src/bno055.c ****     return com_rslt;
1554:Core/Src/bno055.c **** }
 2663              		.loc 1 1554 1 view .LVU764
 2664 005e 03B0     		add	sp, sp, #12
 2665              		.cfi_remember_state
 2666              		.cfi_def_cfa_offset 12
 2667              		@ sp needed
 2668 0060 30BD     		pop	{r4, r5, pc}
 2669              	.LVL269:
 2670              	.L208:
 2671              		.cfi_restore_state
1510:Core/Src/bno055.c ****         }
 2672              		.loc 1 1510 13 is_stmt 1 view .LVU765
1510:Core/Src/bno055.c ****         }
 2673              		.loc 1 1510 23 is_stmt 0 view .LVU766
 2674 0062 0020     		movs	r0, #0
 2675 0064 FFF7FEFF 		bl	bno055_write_page_id
 2676              	.LVL270:
1512:Core/Src/bno055.c ****         {
 2677              		.loc 1 1512 9 is_stmt 1 view .LVU767
1512:Core/Src/bno055.c ****         {
 2678              		.loc 1 1512 12 is_stmt 0 view .LVU768
 2679 0068 0028     		cmp	r0, #0
 2680 006a DBD0     		beq	.L204
 2681 006c D6E7     		b	.L203
 2682              	.LVL271:
 2683              	.L205:
1501:Core/Src/bno055.c ****     }
 2684              		.loc 1 1501 16 view .LVU769
 2685 006e 6FF07E00 		mvn	r0, #126
 2686 0072 F4E7     		b	.L202
 2687              	.LVL272:
 2688              	.L206:
1549:Core/Src/bno055.c ****         }
 2689              		.loc 1 1549 22 view .LVU770
 2690 0074 4FF0FF30 		mov	r0, #-1
 2691 0078 F1E7     		b	.L202
 2692              	.L210:
 2693 007a 00BF     		.align	2
 2694              	.L209:
 2695 007c 00000000 		.word	.LANCHOR0
 2696 0080 00000000 		.word	p_bno055
 2697              		.cfi_endproc
 2698              	.LFE22:
 2700              		.section	.text.bno055_read_euler_h,"ax",%progbits
 2701              		.align	1
 2702              		.global	bno055_read_euler_h
 2703              		.syntax unified
 2704              		.thumb
 2705              		.thumb_func
 2707              	bno055_read_euler_h:
 2708              	.LVL273:
ARM GAS  /tmp/ccOloYeZ.s 			page 79


 2709              	.LFB23:
1555:Core/Src/bno055.c **** 
1556:Core/Src/bno055.c **** /*!
1557:Core/Src/bno055.c ****  *  @brief This API reads gyro data z values
1558:Core/Src/bno055.c ****  *  from register 0x1A and 0x1B it is a two byte data
1559:Core/Src/bno055.c ****  *
1560:Core/Src/bno055.c ****  *  @param euler_h_s16 : The raw h data
1561:Core/Src/bno055.c ****  *
1562:Core/Src/bno055.c ****  *  @return results of bus communication function
1563:Core/Src/bno055.c ****  *  @retval 0 -> BNO055_SUCCESS
1564:Core/Src/bno055.c ****  *  @retval 1 -> BNO055_ERROR
1565:Core/Src/bno055.c ****  *
1566:Core/Src/bno055.c ****  */
1567:Core/Src/bno055.c **** BNO055_RETURN_FUNCTION_TYPE bno055_read_euler_h(s16 *euler_h_s16)
1568:Core/Src/bno055.c **** {
 2710              		.loc 1 1568 1 is_stmt 1 view -0
 2711              		.cfi_startproc
 2712              		@ args = 0, pretend = 0, frame = 8
 2713              		@ frame_needed = 0, uses_anonymous_args = 0
 2714              		.loc 1 1568 1 is_stmt 0 view .LVU772
 2715 0000 30B5     		push	{r4, r5, lr}
 2716              		.cfi_def_cfa_offset 12
 2717              		.cfi_offset 4, -12
 2718              		.cfi_offset 5, -8
 2719              		.cfi_offset 14, -4
 2720 0002 83B0     		sub	sp, sp, #12
 2721              		.cfi_def_cfa_offset 24
1569:Core/Src/bno055.c ****     /* Variable used to return value of
1570:Core/Src/bno055.c ****      * communication routine*/
1571:Core/Src/bno055.c ****     BNO055_RETURN_FUNCTION_TYPE com_rslt = BNO055_ERROR;
 2722              		.loc 1 1571 5 is_stmt 1 view .LVU773
 2723              	.LVL274:
1572:Core/Src/bno055.c **** 
1573:Core/Src/bno055.c ****     /* Array holding the Euler h value
1574:Core/Src/bno055.c ****      * data_u8[BNO055_SENSOR_DATA_EULER_LSB] - h->LSB
1575:Core/Src/bno055.c ****      * data_u8[BNO055_SENSOR_DATA_EULER_MSB] - h->MSB
1576:Core/Src/bno055.c ****      */
1577:Core/Src/bno055.c ****     u8 data_u8[BNO055_EULER_DATA_SIZE] = { BNO055_INIT_VALUE, BNO055_INIT_VALUE };
 2724              		.loc 1 1577 5 view .LVU774
 2725              		.loc 1 1577 8 is_stmt 0 view .LVU775
 2726 0004 0023     		movs	r3, #0
 2727 0006 ADF80430 		strh	r3, [sp, #4]	@ movhi
1578:Core/Src/bno055.c ****     s8 stat_s8 = BNO055_ERROR;
 2728              		.loc 1 1578 5 is_stmt 1 view .LVU776
 2729              	.LVL275:
1579:Core/Src/bno055.c **** 
1580:Core/Src/bno055.c ****     /* Check the struct p_bno055 is empty */
1581:Core/Src/bno055.c ****     if (p_bno055 == NULL)
 2730              		.loc 1 1581 5 view .LVU777
 2731              		.loc 1 1581 18 is_stmt 0 view .LVU778
 2732 000a 134B     		ldr	r3, .L219
 2733 000c 1B68     		ldr	r3, [r3]
 2734              		.loc 1 1581 8 view .LVU779
 2735 000e EBB1     		cbz	r3, .L215
 2736 0010 0446     		mov	r4, r0
1582:Core/Src/bno055.c ****     {
1583:Core/Src/bno055.c ****         return BNO055_E_NULL_PTR;
ARM GAS  /tmp/ccOloYeZ.s 			page 80


1584:Core/Src/bno055.c ****     }
1585:Core/Src/bno055.c ****     else
1586:Core/Src/bno055.c ****     {
1587:Core/Src/bno055.c ****         /*condition check for page, chip id is
1588:Core/Src/bno055.c ****          * available in the page zero*/
1589:Core/Src/bno055.c ****         if (p_bno055->page_id != BNO055_PAGE_ZERO)
 2737              		.loc 1 1589 9 is_stmt 1 view .LVU780
 2738              		.loc 1 1589 21 is_stmt 0 view .LVU781
 2739 0012 1B79     		ldrb	r3, [r3, #4]	@ zero_extendqisi2
 2740              		.loc 1 1589 12 view .LVU782
 2741 0014 A3B9     		cbnz	r3, .L218
 2742              	.LVL276:
 2743              	.L213:
1590:Core/Src/bno055.c ****         {
1591:Core/Src/bno055.c ****             /* Write the page zero*/
1592:Core/Src/bno055.c ****             stat_s8 = bno055_write_page_id(BNO055_PAGE_ZERO);
1593:Core/Src/bno055.c ****         }
1594:Core/Src/bno055.c ****         if ((stat_s8 == BNO055_SUCCESS) || (p_bno055->page_id == BNO055_PAGE_ZERO))
 2744              		.loc 1 1594 53 discriminator 1 view .LVU783
 2745 0016 104B     		ldr	r3, .L219
 2746 0018 1B68     		ldr	r3, [r3]
 2747 001a 1B79     		ldrb	r3, [r3, #4]	@ zero_extendqisi2
 2748              		.loc 1 1594 41 discriminator 1 view .LVU784
 2749 001c CBB9     		cbnz	r3, .L216
 2750              	.L214:
1595:Core/Src/bno055.c ****         {
1596:Core/Src/bno055.c ****             /* Read the eulre heading data*/
1597:Core/Src/bno055.c ****             com_rslt = p_bno055->BNO055_BUS_READ_FUNC(p_bno055->dev_addr,
 2751              		.loc 1 1597 13 is_stmt 1 view .LVU785
 2752              		.loc 1 1597 32 is_stmt 0 view .LVU786
 2753 001e 0E4B     		ldr	r3, .L219
 2754 0020 1868     		ldr	r0, [r3]
 2755 0022 0569     		ldr	r5, [r0, #16]
 2756              		.loc 1 1597 24 view .LVU787
 2757 0024 0223     		movs	r3, #2
 2758 0026 01AA     		add	r2, sp, #4
 2759 0028 1A21     		movs	r1, #26
 2760 002a 407A     		ldrb	r0, [r0, #9]	@ zero_extendqisi2
 2761 002c A847     		blx	r5
 2762              	.LVL277:
1598:Core/Src/bno055.c ****                                                       BNO055_EULER_H_LSB_VALUEH_REG,
1599:Core/Src/bno055.c ****                                                       data_u8,
1600:Core/Src/bno055.c ****                                                       BNO055_LSB_MSB_READ_LENGTH);
1601:Core/Src/bno055.c ****             data_u8[BNO055_SENSOR_DATA_EULER_LSB] = BNO055_GET_BITSLICE(data_u8[BNO055_SENSOR_DATA_
 2763              		.loc 1 1601 13 is_stmt 1 view .LVU788
1602:Core/Src/bno055.c ****                                                                         BNO055_EULER_H_LSB_VALUEH);
1603:Core/Src/bno055.c ****             data_u8[BNO055_SENSOR_DATA_EULER_MSB] = BNO055_GET_BITSLICE(data_u8[BNO055_SENSOR_DATA_
 2764              		.loc 1 1603 13 view .LVU789
1604:Core/Src/bno055.c ****                                                                         BNO055_EULER_H_MSB_VALUEH);
1605:Core/Src/bno055.c ****             *euler_h_s16 =
 2765              		.loc 1 1605 13 view .LVU790
1606:Core/Src/bno055.c ****                 (s16)((((s32)((s8)data_u8[BNO055_SENSOR_DATA_EULER_MSB])) << BNO055_SHIFT_EIGHT_BIT
 2766              		.loc 1 1606 31 is_stmt 0 view .LVU791
 2767 002e 9DF90520 		ldrsb	r2, [sp, #5]
1607:Core/Src/bno055.c ****                       (data_u8[BNO055_SENSOR_DATA_EULER_LSB]));
 2768              		.loc 1 1607 31 view .LVU792
 2769 0032 9DF80430 		ldrb	r3, [sp, #4]	@ zero_extendqisi2
ARM GAS  /tmp/ccOloYeZ.s 			page 81


1606:Core/Src/bno055.c ****                 (s16)((((s32)((s8)data_u8[BNO055_SENSOR_DATA_EULER_MSB])) << BNO055_SHIFT_EIGHT_BIT
 2770              		.loc 1 1606 17 view .LVU793
 2771 0036 43EA0223 		orr	r3, r3, r2, lsl #8
1605:Core/Src/bno055.c ****                 (s16)((((s32)((s8)data_u8[BNO055_SENSOR_DATA_EULER_MSB])) << BNO055_SHIFT_EIGHT_BIT
 2772              		.loc 1 1605 26 view .LVU794
 2773 003a 2380     		strh	r3, [r4]	@ movhi
 2774              	.LVL278:
 2775              	.L212:
1608:Core/Src/bno055.c ****         }
1609:Core/Src/bno055.c ****         else
1610:Core/Src/bno055.c ****         {
1611:Core/Src/bno055.c ****             com_rslt = BNO055_ERROR;
1612:Core/Src/bno055.c ****         }
1613:Core/Src/bno055.c ****     }
1614:Core/Src/bno055.c **** 
1615:Core/Src/bno055.c ****     return com_rslt;
1616:Core/Src/bno055.c **** }
 2776              		.loc 1 1616 1 view .LVU795
 2777 003c 03B0     		add	sp, sp, #12
 2778              		.cfi_remember_state
 2779              		.cfi_def_cfa_offset 12
 2780              		@ sp needed
 2781 003e 30BD     		pop	{r4, r5, pc}
 2782              	.LVL279:
 2783              	.L218:
 2784              		.cfi_restore_state
1592:Core/Src/bno055.c ****         }
 2785              		.loc 1 1592 13 is_stmt 1 view .LVU796
1592:Core/Src/bno055.c ****         }
 2786              		.loc 1 1592 23 is_stmt 0 view .LVU797
 2787 0040 0020     		movs	r0, #0
 2788              	.LVL280:
1592:Core/Src/bno055.c ****         }
 2789              		.loc 1 1592 23 view .LVU798
 2790 0042 FFF7FEFF 		bl	bno055_write_page_id
 2791              	.LVL281:
1594:Core/Src/bno055.c ****         {
 2792              		.loc 1 1594 9 is_stmt 1 view .LVU799
1594:Core/Src/bno055.c ****         {
 2793              		.loc 1 1594 12 is_stmt 0 view .LVU800
 2794 0046 0028     		cmp	r0, #0
 2795 0048 E9D0     		beq	.L214
 2796 004a E4E7     		b	.L213
 2797              	.LVL282:
 2798              	.L215:
1583:Core/Src/bno055.c ****     }
 2799              		.loc 1 1583 16 view .LVU801
 2800 004c 6FF07E00 		mvn	r0, #126
 2801              	.LVL283:
1583:Core/Src/bno055.c ****     }
 2802              		.loc 1 1583 16 view .LVU802
 2803 0050 F4E7     		b	.L212
 2804              	.LVL284:
 2805              	.L216:
1611:Core/Src/bno055.c ****         }
 2806              		.loc 1 1611 22 view .LVU803
 2807 0052 4FF0FF30 		mov	r0, #-1
ARM GAS  /tmp/ccOloYeZ.s 			page 82


 2808 0056 F1E7     		b	.L212
 2809              	.L220:
 2810              		.align	2
 2811              	.L219:
 2812 0058 00000000 		.word	p_bno055
 2813              		.cfi_endproc
 2814              	.LFE23:
 2816              		.section	.text.bno055_read_euler_r,"ax",%progbits
 2817              		.align	1
 2818              		.global	bno055_read_euler_r
 2819              		.syntax unified
 2820              		.thumb
 2821              		.thumb_func
 2823              	bno055_read_euler_r:
 2824              	.LVL285:
 2825              	.LFB24:
1617:Core/Src/bno055.c **** 
1618:Core/Src/bno055.c **** /*!
1619:Core/Src/bno055.c ****  *  @brief This API reads Euler data r values
1620:Core/Src/bno055.c ****  *  from register 0x1C and 0x1D it is a two byte data
1621:Core/Src/bno055.c ****  *
1622:Core/Src/bno055.c ****  *  @param euler_r_s16 : The raw r data
1623:Core/Src/bno055.c ****  *
1624:Core/Src/bno055.c ****  *  @return results of bus communication function
1625:Core/Src/bno055.c ****  *  @retval 0 -> BNO055_SUCCESS
1626:Core/Src/bno055.c ****  *  @retval 1 -> BNO055_ERROR
1627:Core/Src/bno055.c ****  *
1628:Core/Src/bno055.c ****  */
1629:Core/Src/bno055.c **** BNO055_RETURN_FUNCTION_TYPE bno055_read_euler_r(s16 *euler_r_s16)
1630:Core/Src/bno055.c **** {
 2826              		.loc 1 1630 1 is_stmt 1 view -0
 2827              		.cfi_startproc
 2828              		@ args = 0, pretend = 0, frame = 8
 2829              		@ frame_needed = 0, uses_anonymous_args = 0
 2830              		.loc 1 1630 1 is_stmt 0 view .LVU805
 2831 0000 30B5     		push	{r4, r5, lr}
 2832              		.cfi_def_cfa_offset 12
 2833              		.cfi_offset 4, -12
 2834              		.cfi_offset 5, -8
 2835              		.cfi_offset 14, -4
 2836 0002 83B0     		sub	sp, sp, #12
 2837              		.cfi_def_cfa_offset 24
1631:Core/Src/bno055.c ****     /* Variable used to return value of
1632:Core/Src/bno055.c ****      * communication routine*/
1633:Core/Src/bno055.c ****     BNO055_RETURN_FUNCTION_TYPE com_rslt = BNO055_ERROR;
 2838              		.loc 1 1633 5 is_stmt 1 view .LVU806
 2839              	.LVL286:
1634:Core/Src/bno055.c **** 
1635:Core/Src/bno055.c ****     /* Array holding the Euler r value
1636:Core/Src/bno055.c ****      * data_u8[BNO055_SENSOR_DATA_EULER_LSB] - r->LSB
1637:Core/Src/bno055.c ****      * data_u8[BNO055_SENSOR_DATA_EULER_MSB] - r->MSB
1638:Core/Src/bno055.c ****      */
1639:Core/Src/bno055.c ****     u8 data_u8[BNO055_EULER_DATA_SIZE] = { BNO055_INIT_VALUE, BNO055_INIT_VALUE };
 2840              		.loc 1 1639 5 view .LVU807
 2841              		.loc 1 1639 8 is_stmt 0 view .LVU808
 2842 0004 0023     		movs	r3, #0
 2843 0006 ADF80430 		strh	r3, [sp, #4]	@ movhi
ARM GAS  /tmp/ccOloYeZ.s 			page 83


1640:Core/Src/bno055.c ****     s8 stat_s8 = BNO055_ERROR;
 2844              		.loc 1 1640 5 is_stmt 1 view .LVU809
 2845              	.LVL287:
1641:Core/Src/bno055.c **** 
1642:Core/Src/bno055.c ****     /* Check the struct p_bno055 is empty */
1643:Core/Src/bno055.c ****     if (p_bno055 == NULL)
 2846              		.loc 1 1643 5 view .LVU810
 2847              		.loc 1 1643 18 is_stmt 0 view .LVU811
 2848 000a 134B     		ldr	r3, .L229
 2849 000c 1B68     		ldr	r3, [r3]
 2850              		.loc 1 1643 8 view .LVU812
 2851 000e EBB1     		cbz	r3, .L225
 2852 0010 0446     		mov	r4, r0
1644:Core/Src/bno055.c ****     {
1645:Core/Src/bno055.c ****         return BNO055_E_NULL_PTR;
1646:Core/Src/bno055.c ****     }
1647:Core/Src/bno055.c ****     else
1648:Core/Src/bno055.c ****     {
1649:Core/Src/bno055.c ****         /*condition check for page, chip id is
1650:Core/Src/bno055.c ****          * available in the page zero*/
1651:Core/Src/bno055.c ****         if (p_bno055->page_id != BNO055_PAGE_ZERO)
 2853              		.loc 1 1651 9 is_stmt 1 view .LVU813
 2854              		.loc 1 1651 21 is_stmt 0 view .LVU814
 2855 0012 1B79     		ldrb	r3, [r3, #4]	@ zero_extendqisi2
 2856              		.loc 1 1651 12 view .LVU815
 2857 0014 A3B9     		cbnz	r3, .L228
 2858              	.LVL288:
 2859              	.L223:
1652:Core/Src/bno055.c ****         {
1653:Core/Src/bno055.c ****             /* Write the page zero*/
1654:Core/Src/bno055.c ****             stat_s8 = bno055_write_page_id(BNO055_PAGE_ZERO);
1655:Core/Src/bno055.c ****         }
1656:Core/Src/bno055.c ****         if ((stat_s8 == BNO055_SUCCESS) || (p_bno055->page_id == BNO055_PAGE_ZERO))
 2860              		.loc 1 1656 53 discriminator 1 view .LVU816
 2861 0016 104B     		ldr	r3, .L229
 2862 0018 1B68     		ldr	r3, [r3]
 2863 001a 1B79     		ldrb	r3, [r3, #4]	@ zero_extendqisi2
 2864              		.loc 1 1656 41 discriminator 1 view .LVU817
 2865 001c CBB9     		cbnz	r3, .L226
 2866              	.L224:
1657:Core/Src/bno055.c ****         {
1658:Core/Src/bno055.c ****             /* Read the Euler roll data*/
1659:Core/Src/bno055.c ****             com_rslt = p_bno055->BNO055_BUS_READ_FUNC(p_bno055->dev_addr,
 2867              		.loc 1 1659 13 is_stmt 1 view .LVU818
 2868              		.loc 1 1659 32 is_stmt 0 view .LVU819
 2869 001e 0E4B     		ldr	r3, .L229
 2870 0020 1868     		ldr	r0, [r3]
 2871 0022 0569     		ldr	r5, [r0, #16]
 2872              		.loc 1 1659 24 view .LVU820
 2873 0024 0223     		movs	r3, #2
 2874 0026 01AA     		add	r2, sp, #4
 2875 0028 1C21     		movs	r1, #28
 2876 002a 407A     		ldrb	r0, [r0, #9]	@ zero_extendqisi2
 2877 002c A847     		blx	r5
 2878              	.LVL289:
1660:Core/Src/bno055.c ****                                                       BNO055_EULER_R_LSB_VALUER_REG,
1661:Core/Src/bno055.c ****                                                       data_u8,
ARM GAS  /tmp/ccOloYeZ.s 			page 84


1662:Core/Src/bno055.c ****                                                       BNO055_LSB_MSB_READ_LENGTH);
1663:Core/Src/bno055.c ****             data_u8[BNO055_SENSOR_DATA_EULER_LSB] = BNO055_GET_BITSLICE(data_u8[BNO055_SENSOR_DATA_
 2879              		.loc 1 1663 13 is_stmt 1 view .LVU821
1664:Core/Src/bno055.c ****                                                                         BNO055_EULER_R_LSB_VALUER);
1665:Core/Src/bno055.c ****             data_u8[BNO055_SENSOR_DATA_EULER_MSB] = BNO055_GET_BITSLICE(data_u8[BNO055_SENSOR_DATA_
 2880              		.loc 1 1665 13 view .LVU822
1666:Core/Src/bno055.c ****                                                                         BNO055_EULER_R_MSB_VALUER);
1667:Core/Src/bno055.c ****             *euler_r_s16 =
 2881              		.loc 1 1667 13 view .LVU823
1668:Core/Src/bno055.c ****                 (s16)((((s32)((s8)data_u8[BNO055_SENSOR_DATA_EULER_MSB])) << BNO055_SHIFT_EIGHT_BIT
 2882              		.loc 1 1668 31 is_stmt 0 view .LVU824
 2883 002e 9DF90520 		ldrsb	r2, [sp, #5]
1669:Core/Src/bno055.c ****                       (data_u8[BNO055_SENSOR_DATA_EULER_LSB]));
 2884              		.loc 1 1669 31 view .LVU825
 2885 0032 9DF80430 		ldrb	r3, [sp, #4]	@ zero_extendqisi2
1668:Core/Src/bno055.c ****                 (s16)((((s32)((s8)data_u8[BNO055_SENSOR_DATA_EULER_MSB])) << BNO055_SHIFT_EIGHT_BIT
 2886              		.loc 1 1668 17 view .LVU826
 2887 0036 43EA0223 		orr	r3, r3, r2, lsl #8
1667:Core/Src/bno055.c ****                 (s16)((((s32)((s8)data_u8[BNO055_SENSOR_DATA_EULER_MSB])) << BNO055_SHIFT_EIGHT_BIT
 2888              		.loc 1 1667 26 view .LVU827
 2889 003a 2380     		strh	r3, [r4]	@ movhi
 2890              	.LVL290:
 2891              	.L222:
1670:Core/Src/bno055.c ****         }
1671:Core/Src/bno055.c ****         else
1672:Core/Src/bno055.c ****         {
1673:Core/Src/bno055.c ****             com_rslt = BNO055_ERROR;
1674:Core/Src/bno055.c ****         }
1675:Core/Src/bno055.c ****     }
1676:Core/Src/bno055.c **** 
1677:Core/Src/bno055.c ****     return com_rslt;
1678:Core/Src/bno055.c **** }
 2892              		.loc 1 1678 1 view .LVU828
 2893 003c 03B0     		add	sp, sp, #12
 2894              		.cfi_remember_state
 2895              		.cfi_def_cfa_offset 12
 2896              		@ sp needed
 2897 003e 30BD     		pop	{r4, r5, pc}
 2898              	.LVL291:
 2899              	.L228:
 2900              		.cfi_restore_state
1654:Core/Src/bno055.c ****         }
 2901              		.loc 1 1654 13 is_stmt 1 view .LVU829
1654:Core/Src/bno055.c ****         }
 2902              		.loc 1 1654 23 is_stmt 0 view .LVU830
 2903 0040 0020     		movs	r0, #0
 2904              	.LVL292:
1654:Core/Src/bno055.c ****         }
 2905              		.loc 1 1654 23 view .LVU831
 2906 0042 FFF7FEFF 		bl	bno055_write_page_id
 2907              	.LVL293:
1656:Core/Src/bno055.c ****         {
 2908              		.loc 1 1656 9 is_stmt 1 view .LVU832
1656:Core/Src/bno055.c ****         {
 2909              		.loc 1 1656 12 is_stmt 0 view .LVU833
 2910 0046 0028     		cmp	r0, #0
 2911 0048 E9D0     		beq	.L224
ARM GAS  /tmp/ccOloYeZ.s 			page 85


 2912 004a E4E7     		b	.L223
 2913              	.LVL294:
 2914              	.L225:
1645:Core/Src/bno055.c ****     }
 2915              		.loc 1 1645 16 view .LVU834
 2916 004c 6FF07E00 		mvn	r0, #126
 2917              	.LVL295:
1645:Core/Src/bno055.c ****     }
 2918              		.loc 1 1645 16 view .LVU835
 2919 0050 F4E7     		b	.L222
 2920              	.LVL296:
 2921              	.L226:
1673:Core/Src/bno055.c ****         }
 2922              		.loc 1 1673 22 view .LVU836
 2923 0052 4FF0FF30 		mov	r0, #-1
 2924 0056 F1E7     		b	.L222
 2925              	.L230:
 2926              		.align	2
 2927              	.L229:
 2928 0058 00000000 		.word	p_bno055
 2929              		.cfi_endproc
 2930              	.LFE24:
 2932              		.section	.text.bno055_read_euler_p,"ax",%progbits
 2933              		.align	1
 2934              		.global	bno055_read_euler_p
 2935              		.syntax unified
 2936              		.thumb
 2937              		.thumb_func
 2939              	bno055_read_euler_p:
 2940              	.LVL297:
 2941              	.LFB25:
1679:Core/Src/bno055.c **** 
1680:Core/Src/bno055.c **** /*!
1681:Core/Src/bno055.c ****  *  @brief This API reads Euler data p values
1682:Core/Src/bno055.c ****  *  from register 0x1E and 0x1F it is a two byte data
1683:Core/Src/bno055.c ****  *
1684:Core/Src/bno055.c ****  *  @param euler_p_s16 : The raw p data
1685:Core/Src/bno055.c ****  *
1686:Core/Src/bno055.c ****  *  @return results of bus communication function
1687:Core/Src/bno055.c ****  *  @retval 0 -> BNO055_SUCCESS
1688:Core/Src/bno055.c ****  *  @retval 1 -> BNO055_ERROR
1689:Core/Src/bno055.c ****  *
1690:Core/Src/bno055.c ****  *
1691:Core/Src/bno055.c ****  */
1692:Core/Src/bno055.c **** BNO055_RETURN_FUNCTION_TYPE bno055_read_euler_p(s16 *euler_p_s16)
1693:Core/Src/bno055.c **** {
 2942              		.loc 1 1693 1 is_stmt 1 view -0
 2943              		.cfi_startproc
 2944              		@ args = 0, pretend = 0, frame = 8
 2945              		@ frame_needed = 0, uses_anonymous_args = 0
 2946              		.loc 1 1693 1 is_stmt 0 view .LVU838
 2947 0000 30B5     		push	{r4, r5, lr}
 2948              		.cfi_def_cfa_offset 12
 2949              		.cfi_offset 4, -12
 2950              		.cfi_offset 5, -8
 2951              		.cfi_offset 14, -4
 2952 0002 83B0     		sub	sp, sp, #12
ARM GAS  /tmp/ccOloYeZ.s 			page 86


 2953              		.cfi_def_cfa_offset 24
1694:Core/Src/bno055.c ****     /* Variable used to return value of
1695:Core/Src/bno055.c ****      * communication routine*/
1696:Core/Src/bno055.c ****     BNO055_RETURN_FUNCTION_TYPE com_rslt = BNO055_ERROR;
 2954              		.loc 1 1696 5 is_stmt 1 view .LVU839
 2955              	.LVL298:
1697:Core/Src/bno055.c **** 
1698:Core/Src/bno055.c ****     /* Array holding the Euler p value
1699:Core/Src/bno055.c ****      * data_u8[BNO055_SENSOR_DATA_EULER_LSB] - p->LSB
1700:Core/Src/bno055.c ****      * data_u8[BNO055_SENSOR_DATA_EULER_MSB] - p->MSB
1701:Core/Src/bno055.c ****      */
1702:Core/Src/bno055.c ****     u8 data_u8[BNO055_EULER_DATA_SIZE] = { BNO055_INIT_VALUE, BNO055_INIT_VALUE };
 2956              		.loc 1 1702 5 view .LVU840
 2957              		.loc 1 1702 8 is_stmt 0 view .LVU841
 2958 0004 0023     		movs	r3, #0
 2959 0006 ADF80430 		strh	r3, [sp, #4]	@ movhi
1703:Core/Src/bno055.c ****     s8 stat_s8 = BNO055_ERROR;
 2960              		.loc 1 1703 5 is_stmt 1 view .LVU842
 2961              	.LVL299:
1704:Core/Src/bno055.c **** 
1705:Core/Src/bno055.c ****     /* Check the struct p_bno055 is empty */
1706:Core/Src/bno055.c ****     if (p_bno055 == NULL)
 2962              		.loc 1 1706 5 view .LVU843
 2963              		.loc 1 1706 18 is_stmt 0 view .LVU844
 2964 000a 134B     		ldr	r3, .L239
 2965 000c 1B68     		ldr	r3, [r3]
 2966              		.loc 1 1706 8 view .LVU845
 2967 000e EBB1     		cbz	r3, .L235
 2968 0010 0446     		mov	r4, r0
1707:Core/Src/bno055.c ****     {
1708:Core/Src/bno055.c ****         return BNO055_E_NULL_PTR;
1709:Core/Src/bno055.c ****     }
1710:Core/Src/bno055.c ****     else
1711:Core/Src/bno055.c ****     {
1712:Core/Src/bno055.c ****         /*condition check for page, chip id is
1713:Core/Src/bno055.c ****          * available in the page zero*/
1714:Core/Src/bno055.c ****         if (p_bno055->page_id != BNO055_PAGE_ZERO)
 2969              		.loc 1 1714 9 is_stmt 1 view .LVU846
 2970              		.loc 1 1714 21 is_stmt 0 view .LVU847
 2971 0012 1B79     		ldrb	r3, [r3, #4]	@ zero_extendqisi2
 2972              		.loc 1 1714 12 view .LVU848
 2973 0014 A3B9     		cbnz	r3, .L238
 2974              	.LVL300:
 2975              	.L233:
1715:Core/Src/bno055.c ****         {
1716:Core/Src/bno055.c ****             /* Write the page zero*/
1717:Core/Src/bno055.c ****             stat_s8 = bno055_write_page_id(BNO055_PAGE_ZERO);
1718:Core/Src/bno055.c ****         }
1719:Core/Src/bno055.c ****         if ((stat_s8 == BNO055_SUCCESS) || (p_bno055->page_id == BNO055_PAGE_ZERO))
 2976              		.loc 1 1719 53 discriminator 1 view .LVU849
 2977 0016 104B     		ldr	r3, .L239
 2978 0018 1B68     		ldr	r3, [r3]
 2979 001a 1B79     		ldrb	r3, [r3, #4]	@ zero_extendqisi2
 2980              		.loc 1 1719 41 discriminator 1 view .LVU850
 2981 001c CBB9     		cbnz	r3, .L236
 2982              	.L234:
1720:Core/Src/bno055.c ****         {
ARM GAS  /tmp/ccOloYeZ.s 			page 87


1721:Core/Src/bno055.c ****             /* Read the Euler p data*/
1722:Core/Src/bno055.c ****             com_rslt = p_bno055->BNO055_BUS_READ_FUNC(p_bno055->dev_addr,
 2983              		.loc 1 1722 13 is_stmt 1 view .LVU851
 2984              		.loc 1 1722 32 is_stmt 0 view .LVU852
 2985 001e 0E4B     		ldr	r3, .L239
 2986 0020 1868     		ldr	r0, [r3]
 2987 0022 0569     		ldr	r5, [r0, #16]
 2988              		.loc 1 1722 24 view .LVU853
 2989 0024 0223     		movs	r3, #2
 2990 0026 01AA     		add	r2, sp, #4
 2991 0028 1E21     		movs	r1, #30
 2992 002a 407A     		ldrb	r0, [r0, #9]	@ zero_extendqisi2
 2993 002c A847     		blx	r5
 2994              	.LVL301:
1723:Core/Src/bno055.c ****                                                       BNO055_EULER_P_LSB_VALUEP_REG,
1724:Core/Src/bno055.c ****                                                       data_u8,
1725:Core/Src/bno055.c ****                                                       BNO055_LSB_MSB_READ_LENGTH);
1726:Core/Src/bno055.c ****             data_u8[BNO055_SENSOR_DATA_EULER_LSB] = BNO055_GET_BITSLICE(data_u8[BNO055_SENSOR_DATA_
 2995              		.loc 1 1726 13 is_stmt 1 view .LVU854
1727:Core/Src/bno055.c ****                                                                         BNO055_EULER_P_LSB_VALUEP);
1728:Core/Src/bno055.c ****             data_u8[BNO055_SENSOR_DATA_EULER_MSB] = BNO055_GET_BITSLICE(data_u8[BNO055_SENSOR_DATA_
 2996              		.loc 1 1728 13 view .LVU855
1729:Core/Src/bno055.c ****                                                                         BNO055_EULER_P_MSB_VALUEP);
1730:Core/Src/bno055.c ****             *euler_p_s16 =
 2997              		.loc 1 1730 13 view .LVU856
1731:Core/Src/bno055.c ****                 (s16)((((s32)((s8)data_u8[BNO055_SENSOR_DATA_EULER_MSB])) << BNO055_SHIFT_EIGHT_BIT
 2998              		.loc 1 1731 31 is_stmt 0 view .LVU857
 2999 002e 9DF90520 		ldrsb	r2, [sp, #5]
1732:Core/Src/bno055.c ****                       (data_u8[BNO055_SENSOR_DATA_EULER_LSB]));
 3000              		.loc 1 1732 31 view .LVU858
 3001 0032 9DF80430 		ldrb	r3, [sp, #4]	@ zero_extendqisi2
1731:Core/Src/bno055.c ****                 (s16)((((s32)((s8)data_u8[BNO055_SENSOR_DATA_EULER_MSB])) << BNO055_SHIFT_EIGHT_BIT
 3002              		.loc 1 1731 17 view .LVU859
 3003 0036 43EA0223 		orr	r3, r3, r2, lsl #8
1730:Core/Src/bno055.c ****                 (s16)((((s32)((s8)data_u8[BNO055_SENSOR_DATA_EULER_MSB])) << BNO055_SHIFT_EIGHT_BIT
 3004              		.loc 1 1730 26 view .LVU860
 3005 003a 2380     		strh	r3, [r4]	@ movhi
 3006              	.LVL302:
 3007              	.L232:
1733:Core/Src/bno055.c ****         }
1734:Core/Src/bno055.c ****         else
1735:Core/Src/bno055.c ****         {
1736:Core/Src/bno055.c ****             com_rslt = BNO055_ERROR;
1737:Core/Src/bno055.c ****         }
1738:Core/Src/bno055.c ****     }
1739:Core/Src/bno055.c **** 
1740:Core/Src/bno055.c ****     return com_rslt;
1741:Core/Src/bno055.c **** }
 3008              		.loc 1 1741 1 view .LVU861
 3009 003c 03B0     		add	sp, sp, #12
 3010              		.cfi_remember_state
 3011              		.cfi_def_cfa_offset 12
 3012              		@ sp needed
 3013 003e 30BD     		pop	{r4, r5, pc}
 3014              	.LVL303:
 3015              	.L238:
 3016              		.cfi_restore_state
ARM GAS  /tmp/ccOloYeZ.s 			page 88


1717:Core/Src/bno055.c ****         }
 3017              		.loc 1 1717 13 is_stmt 1 view .LVU862
1717:Core/Src/bno055.c ****         }
 3018              		.loc 1 1717 23 is_stmt 0 view .LVU863
 3019 0040 0020     		movs	r0, #0
 3020              	.LVL304:
1717:Core/Src/bno055.c ****         }
 3021              		.loc 1 1717 23 view .LVU864
 3022 0042 FFF7FEFF 		bl	bno055_write_page_id
 3023              	.LVL305:
1719:Core/Src/bno055.c ****         {
 3024              		.loc 1 1719 9 is_stmt 1 view .LVU865
1719:Core/Src/bno055.c ****         {
 3025              		.loc 1 1719 12 is_stmt 0 view .LVU866
 3026 0046 0028     		cmp	r0, #0
 3027 0048 E9D0     		beq	.L234
 3028 004a E4E7     		b	.L233
 3029              	.LVL306:
 3030              	.L235:
1708:Core/Src/bno055.c ****     }
 3031              		.loc 1 1708 16 view .LVU867
 3032 004c 6FF07E00 		mvn	r0, #126
 3033              	.LVL307:
1708:Core/Src/bno055.c ****     }
 3034              		.loc 1 1708 16 view .LVU868
 3035 0050 F4E7     		b	.L232
 3036              	.LVL308:
 3037              	.L236:
1736:Core/Src/bno055.c ****         }
 3038              		.loc 1 1736 22 view .LVU869
 3039 0052 4FF0FF30 		mov	r0, #-1
 3040 0056 F1E7     		b	.L232
 3041              	.L240:
 3042              		.align	2
 3043              	.L239:
 3044 0058 00000000 		.word	p_bno055
 3045              		.cfi_endproc
 3046              	.LFE25:
