ARM GAS  /tmp/cc7jlMWm.s 			page 1


   1              		.cpu cortex-m4
   2              		.arch armv7e-m
   3              		.fpu fpv4-sp-d16
   4              		.eabi_attribute 27, 1
   5              		.eabi_attribute 28, 1
   6              		.eabi_attribute 20, 1
   7              		.eabi_attribute 21, 1
   8              		.eabi_attribute 23, 3
   9              		.eabi_attribute 24, 1
  10              		.eabi_attribute 25, 1
  11              		.eabi_attribute 26, 1
  12              		.eabi_attribute 30, 1
  13              		.eabi_attribute 34, 1
  14              		.eabi_attribute 18, 4
  15              		.file	"bno055_support.c"
  16              		.text
  17              	.Ltext0:
  18              		.cfi_sections	.debug_frame
  19              		.file 1 "Core/Src/bno055_support.c"
  20              		.section	.text.BNO055_I2C_bus_write,"ax",%progbits
  21              		.align	1
  22              		.global	BNO055_I2C_bus_write
  23              		.syntax unified
  24              		.thumb
  25              		.thumb_func
  27              	BNO055_I2C_bus_write:
  28              	.LVL0:
  29              	.LFB125:
   1:Core/Src/bno055_support.c **** /**
   2:Core/Src/bno055_support.c **** * Copyright (c) 2020 Bosch Sensortec GmbH. All rights reserved.
   3:Core/Src/bno055_support.c **** *
   4:Core/Src/bno055_support.c **** * BSD-3-Clause
   5:Core/Src/bno055_support.c **** *
   6:Core/Src/bno055_support.c **** * Redistribution and use in source and binary forms, with or without
   7:Core/Src/bno055_support.c **** * modification, are permitted provided that the following conditions are met:
   8:Core/Src/bno055_support.c **** *
   9:Core/Src/bno055_support.c **** * 1. Redistributions of source code must retain the above copyright
  10:Core/Src/bno055_support.c **** *    notice, this list of conditions and the following disclaimer.
  11:Core/Src/bno055_support.c **** *
  12:Core/Src/bno055_support.c **** * 2. Redistributions in binary form must reproduce the above copyright
  13:Core/Src/bno055_support.c **** *    notice, this list of conditions and the following disclaimer in the
  14:Core/Src/bno055_support.c **** *    documentation and/or other materials provided with the distribution.
  15:Core/Src/bno055_support.c **** *
  16:Core/Src/bno055_support.c **** * 3. Neither the name of the copyright holder nor the names of its
  17:Core/Src/bno055_support.c **** *    contributors may be used to endorse or promote products derived from
  18:Core/Src/bno055_support.c **** *    this software without specific prior written permission.
  19:Core/Src/bno055_support.c **** *
  20:Core/Src/bno055_support.c **** * THIS SOFTWARE IS PROVIDED BY THE COPYRIGHT HOLDERS AND CONTRIBUTORS
  21:Core/Src/bno055_support.c **** * "AS IS" AND ANY EXPRESS OR IMPLIED WARRANTIES, INCLUDING, BUT NOT
  22:Core/Src/bno055_support.c **** * LIMITED TO, THE IMPLIED WARRANTIES OF MERCHANTABILITY AND FITNESS
  23:Core/Src/bno055_support.c **** * FOR A PARTICULAR PURPOSE ARE DISCLAIMED. IN NO EVENT SHALL THE
  24:Core/Src/bno055_support.c **** * COPYRIGHT HOLDER OR CONTRIBUTORS BE LIABLE FOR ANY DIRECT, INDIRECT,
  25:Core/Src/bno055_support.c **** * INCIDENTAL, SPECIAL, EXEMPLARY, OR CONSEQUENTIAL DAMAGES
  26:Core/Src/bno055_support.c **** * (INCLUDING, BUT NOT LIMITED TO, PROCUREMENT OF SUBSTITUTE GOODS OR
  27:Core/Src/bno055_support.c **** * SERVICES; LOSS OF USE, DATA, OR PROFITS; OR BUSINESS INTERRUPTION)
  28:Core/Src/bno055_support.c **** * HOWEVER CAUSED AND ON ANY THEORY OF LIABILITY, WHETHER IN CONTRACT,
  29:Core/Src/bno055_support.c **** * STRICT LIABILITY, OR TORT (INCLUDING NEGLIGENCE OR OTHERWISE) ARISING
ARM GAS  /tmp/cc7jlMWm.s 			page 2


  30:Core/Src/bno055_support.c **** * IN ANY WAY OUT OF THE USE OF THIS SOFTWARE, EVEN IF ADVISED OF THE
  31:Core/Src/bno055_support.c **** * POSSIBILITY OF SUCH DAMAGE.
  32:Core/Src/bno055_support.c **** *
  33:Core/Src/bno055_support.c **** * @file bno055_support.c
  34:Core/Src/bno055_support.c **** * @date 10/01/2020
  35:Core/Src/bno055_support.c **** * @version  2.0.6
  36:Core/Src/bno055_support.c **** *
  37:Core/Src/bno055_support.c **** */
  38:Core/Src/bno055_support.c **** 
  39:Core/Src/bno055_support.c **** /*---------------------------------------------------------------------------*
  40:Core/Src/bno055_support.c **** *  Includes
  41:Core/Src/bno055_support.c **** *---------------------------------------------------------------------------*/
  42:Core/Src/bno055_support.c **** #include "bno055_support.h"
  43:Core/Src/bno055_support.c **** 
  44:Core/Src/bno055_support.c **** /*----------------------------------------------------------------------------*
  45:Core/Src/bno055_support.c **** *  The following APIs are used for reading and writing of
  46:Core/Src/bno055_support.c **** *   sensor data using I2C communication
  47:Core/Src/bno055_support.c **** *----------------------------------------------------------------------------*/
  48:Core/Src/bno055_support.c **** #ifdef  BNO055_API
  49:Core/Src/bno055_support.c **** #define BNO055_I2C_BUS_WRITE_ARRAY_INDEX ((u8)1)
  50:Core/Src/bno055_support.c **** 
  51:Core/Src/bno055_support.c **** /*  \Brief: The API is used as I2C bus read
  52:Core/Src/bno055_support.c ****  *  \Return : Status of the I2C read
  53:Core/Src/bno055_support.c ****  *  \param dev_addr : The device address of the sensor
  54:Core/Src/bno055_support.c ****  *  \param reg_addr : Address of the first register,
  55:Core/Src/bno055_support.c ****  *   will data is going to be read
  56:Core/Src/bno055_support.c ****  *  \param reg_data : This data read from the sensor,
  57:Core/Src/bno055_support.c ****  *   which is hold in an array
  58:Core/Src/bno055_support.c ****  *  \param cnt : The no of byte of data to be read
  59:Core/Src/bno055_support.c ****  */
  60:Core/Src/bno055_support.c **** s8 BNO055_I2C_bus_read(u8 dev_addr, u8 reg_addr, u8 *reg_data, u8 cnt);
  61:Core/Src/bno055_support.c **** 
  62:Core/Src/bno055_support.c **** /*  \Brief: The API is used as SPI bus write
  63:Core/Src/bno055_support.c ****  *  \Return : Status of the SPI write
  64:Core/Src/bno055_support.c ****  *  \param dev_addr : The device address of the sensor
  65:Core/Src/bno055_support.c ****  *  \param reg_addr : Address of the first register,
  66:Core/Src/bno055_support.c ****  *   will data is going to be written
  67:Core/Src/bno055_support.c ****  *  \param reg_data : It is a value hold in the array,
  68:Core/Src/bno055_support.c ****  *  will be used for write the value into the register
  69:Core/Src/bno055_support.c ****  *  \param cnt : The no of byte of data to be write
  70:Core/Src/bno055_support.c ****  */
  71:Core/Src/bno055_support.c **** s8 BNO055_I2C_bus_write(u8 dev_addr, u8 reg_addr, u8 *reg_data, u8 cnt);
  72:Core/Src/bno055_support.c **** 
  73:Core/Src/bno055_support.c **** /*
  74:Core/Src/bno055_support.c ****  * \Brief: I2C init routine
  75:Core/Src/bno055_support.c ****  */
  76:Core/Src/bno055_support.c **** s8 I2C_routine(void);
  77:Core/Src/bno055_support.c **** 
  78:Core/Src/bno055_support.c **** /*  Brief : The delay routine
  79:Core/Src/bno055_support.c ****  *  \param : delay in ms
  80:Core/Src/bno055_support.c ****  */
  81:Core/Src/bno055_support.c **** void BNO055_delay_msek(u32 msek);
  82:Core/Src/bno055_support.c **** 
  83:Core/Src/bno055_support.c **** #endif
  84:Core/Src/bno055_support.c **** 
  85:Core/Src/bno055_support.c **** /********************End of I2C APIs declarations***********************/
  86:Core/Src/bno055_support.c **** 
ARM GAS  /tmp/cc7jlMWm.s 			page 3


  87:Core/Src/bno055_support.c **** /* This API is an example for reading sensor data
  88:Core/Src/bno055_support.c ****  *  \param: None
  89:Core/Src/bno055_support.c ****  *  \return: communication result
  90:Core/Src/bno055_support.c ****  */
  91:Core/Src/bno055_support.c **** s32 bno055_data_readout_template(void);
  92:Core/Src/bno055_support.c **** 
  93:Core/Src/bno055_support.c **** /*----------------------------------------------------------------------------*
  94:Core/Src/bno055_support.c ****  *  struct bno055_t parameters can be accessed by using BNO055
  95:Core/Src/bno055_support.c ****  *  BNO055_t having the following parameters
  96:Core/Src/bno055_support.c ****  *  Bus write function pointer: BNO055_WR_FUNC_PTR
  97:Core/Src/bno055_support.c ****  *  Bus read function pointer: BNO055_RD_FUNC_PTR
  98:Core/Src/bno055_support.c ****  *  Burst read function pointer: BNO055_BRD_FUNC_PTR
  99:Core/Src/bno055_support.c ****  *  Delay function pointer: delay_msec
 100:Core/Src/bno055_support.c ****  *  I2C address: dev_addr
 101:Core/Src/bno055_support.c ****  *  Chip id of the sensor: chip_id
 102:Core/Src/bno055_support.c ****  *---------------------------------------------------------------------------*/
 103:Core/Src/bno055_support.c **** struct bno055_t bno055;
 104:Core/Src/bno055_support.c **** 
 105:Core/Src/bno055_support.c **** /* This API is an example for reading sensor data
 106:Core/Src/bno055_support.c ****  *  \param: None
 107:Core/Src/bno055_support.c ****  *  \return: communication result
 108:Core/Src/bno055_support.c ****  */
 109:Core/Src/bno055_support.c **** s32 bno055_data_readout_template(void)
 110:Core/Src/bno055_support.c **** {
 111:Core/Src/bno055_support.c ****     /* Variable used to return value of
 112:Core/Src/bno055_support.c ****      * communication routine*/
 113:Core/Src/bno055_support.c ****     s32 comres = BNO055_ERROR;
 114:Core/Src/bno055_support.c **** 
 115:Core/Src/bno055_support.c ****     /* variable used to set the power mode of the sensor*/
 116:Core/Src/bno055_support.c ****     u8 power_mode = BNO055_INIT_VALUE;
 117:Core/Src/bno055_support.c **** 
 118:Core/Src/bno055_support.c ****     /*********read raw accel data***********/
 119:Core/Src/bno055_support.c ****     /* variable used to read the accel x data */
 120:Core/Src/bno055_support.c ****     s16 accel_datax = BNO055_INIT_VALUE;
 121:Core/Src/bno055_support.c **** 
 122:Core/Src/bno055_support.c ****     /* variable used to read the accel y data */
 123:Core/Src/bno055_support.c ****     s16 accel_datay = BNO055_INIT_VALUE;
 124:Core/Src/bno055_support.c **** 
 125:Core/Src/bno055_support.c ****     /* variable used to read the accel z data */
 126:Core/Src/bno055_support.c ****     s16 accel_dataz = BNO055_INIT_VALUE;
 127:Core/Src/bno055_support.c **** 
 128:Core/Src/bno055_support.c ****     /* variable used to read the accel xyz data */
 129:Core/Src/bno055_support.c ****     struct bno055_accel_t accel_xyz;
 130:Core/Src/bno055_support.c **** 
 131:Core/Src/bno055_support.c ****     /*********read raw mag data***********/
 132:Core/Src/bno055_support.c ****     /* variable used to read the mag x data */
 133:Core/Src/bno055_support.c ****     s16 mag_datax = BNO055_INIT_VALUE;
 134:Core/Src/bno055_support.c **** 
 135:Core/Src/bno055_support.c ****     /* variable used to read the mag y data */
 136:Core/Src/bno055_support.c ****     s16 mag_datay = BNO055_INIT_VALUE;
 137:Core/Src/bno055_support.c **** 
 138:Core/Src/bno055_support.c ****     /* variable used to read the mag z data */
 139:Core/Src/bno055_support.c ****     s16 mag_dataz = BNO055_INIT_VALUE;
 140:Core/Src/bno055_support.c **** 
 141:Core/Src/bno055_support.c ****     /* structure used to read the mag xyz data */
 142:Core/Src/bno055_support.c ****     struct bno055_mag_t mag_xyz;
 143:Core/Src/bno055_support.c **** 
ARM GAS  /tmp/cc7jlMWm.s 			page 4


 144:Core/Src/bno055_support.c ****     /***********read raw gyro data***********/
 145:Core/Src/bno055_support.c ****     /* variable used to read the gyro x data */
 146:Core/Src/bno055_support.c ****     s16 gyro_datax = BNO055_INIT_VALUE;
 147:Core/Src/bno055_support.c **** 
 148:Core/Src/bno055_support.c ****     /* variable used to read the gyro y data */
 149:Core/Src/bno055_support.c ****     s16 gyro_datay = BNO055_INIT_VALUE;
 150:Core/Src/bno055_support.c **** 
 151:Core/Src/bno055_support.c ****     /* variable used to read the gyro z data */
 152:Core/Src/bno055_support.c ****     s16 gyro_dataz = BNO055_INIT_VALUE;
 153:Core/Src/bno055_support.c **** 
 154:Core/Src/bno055_support.c ****     /* structure used to read the gyro xyz data */
 155:Core/Src/bno055_support.c ****     struct bno055_gyro_t gyro_xyz;
 156:Core/Src/bno055_support.c **** 
 157:Core/Src/bno055_support.c ****     /*************read raw Euler data************/
 158:Core/Src/bno055_support.c ****     /* variable used to read the euler h data */
 159:Core/Src/bno055_support.c ****     s16 euler_data_h = BNO055_INIT_VALUE;
 160:Core/Src/bno055_support.c **** 
 161:Core/Src/bno055_support.c ****     /* variable used to read the euler r data */
 162:Core/Src/bno055_support.c ****     s16 euler_data_r = BNO055_INIT_VALUE;
 163:Core/Src/bno055_support.c **** 
 164:Core/Src/bno055_support.c ****     /* variable used to read the euler p data */
 165:Core/Src/bno055_support.c ****     s16 euler_data_p = BNO055_INIT_VALUE;
 166:Core/Src/bno055_support.c **** 
 167:Core/Src/bno055_support.c ****     /* structure used to read the euler hrp data */
 168:Core/Src/bno055_support.c ****     struct bno055_euler_t euler_hrp;
 169:Core/Src/bno055_support.c **** 
 170:Core/Src/bno055_support.c ****     /************read raw quaternion data**************/
 171:Core/Src/bno055_support.c ****     /* variable used to read the quaternion w data */
 172:Core/Src/bno055_support.c ****     s16 quaternion_data_w = BNO055_INIT_VALUE;
 173:Core/Src/bno055_support.c **** 
 174:Core/Src/bno055_support.c ****     /* variable used to read the quaternion x data */
 175:Core/Src/bno055_support.c ****     s16 quaternion_data_x = BNO055_INIT_VALUE;
 176:Core/Src/bno055_support.c **** 
 177:Core/Src/bno055_support.c ****     /* variable used to read the quaternion y data */
 178:Core/Src/bno055_support.c ****     s16 quaternion_data_y = BNO055_INIT_VALUE;
 179:Core/Src/bno055_support.c **** 
 180:Core/Src/bno055_support.c ****     /* variable used to read the quaternion z data */
 181:Core/Src/bno055_support.c ****     s16 quaternion_data_z = BNO055_INIT_VALUE;
 182:Core/Src/bno055_support.c **** 
 183:Core/Src/bno055_support.c ****     /* structure used to read the quaternion wxyz data */
 184:Core/Src/bno055_support.c ****     struct bno055_quaternion_t quaternion_wxyz;
 185:Core/Src/bno055_support.c **** 
 186:Core/Src/bno055_support.c ****     /************read raw linear acceleration data***********/
 187:Core/Src/bno055_support.c ****     /* variable used to read the linear accel x data */
 188:Core/Src/bno055_support.c ****     s16 linear_accel_data_x = BNO055_INIT_VALUE;
 189:Core/Src/bno055_support.c **** 
 190:Core/Src/bno055_support.c ****     /* variable used to read the linear accel y data */
 191:Core/Src/bno055_support.c ****     s16 linear_accel_data_y = BNO055_INIT_VALUE;
 192:Core/Src/bno055_support.c **** 
 193:Core/Src/bno055_support.c ****     /* variable used to read the linear accel z data */
 194:Core/Src/bno055_support.c ****     s16 linear_accel_data_z = BNO055_INIT_VALUE;
 195:Core/Src/bno055_support.c **** 
 196:Core/Src/bno055_support.c ****     /* structure used to read the linear accel xyz data */
 197:Core/Src/bno055_support.c ****     struct bno055_linear_accel_t linear_acce_xyz;
 198:Core/Src/bno055_support.c **** 
 199:Core/Src/bno055_support.c ****     /*****************read raw gravity sensor data****************/
 200:Core/Src/bno055_support.c ****     /* variable used to read the gravity x data */
ARM GAS  /tmp/cc7jlMWm.s 			page 5


 201:Core/Src/bno055_support.c ****     s16 gravity_data_x = BNO055_INIT_VALUE;
 202:Core/Src/bno055_support.c **** 
 203:Core/Src/bno055_support.c ****     /* variable used to read the gravity y data */
 204:Core/Src/bno055_support.c ****     s16 gravity_data_y = BNO055_INIT_VALUE;
 205:Core/Src/bno055_support.c **** 
 206:Core/Src/bno055_support.c ****     /* variable used to read the gravity z data */
 207:Core/Src/bno055_support.c ****     s16 gravity_data_z = BNO055_INIT_VALUE;
 208:Core/Src/bno055_support.c **** 
 209:Core/Src/bno055_support.c ****     /* structure used to read the gravity xyz data */
 210:Core/Src/bno055_support.c ****     struct bno055_gravity_t gravity_xyz;
 211:Core/Src/bno055_support.c **** 
 212:Core/Src/bno055_support.c ****     /*************read accel converted data***************/
 213:Core/Src/bno055_support.c ****     /* variable used to read the accel x data output as m/s2 or mg */
 214:Core/Src/bno055_support.c ****     double d_accel_datax = BNO055_INIT_VALUE;
 215:Core/Src/bno055_support.c **** 
 216:Core/Src/bno055_support.c ****     /* variable used to read the accel y data output as m/s2 or mg */
 217:Core/Src/bno055_support.c ****     double d_accel_datay = BNO055_INIT_VALUE;
 218:Core/Src/bno055_support.c **** 
 219:Core/Src/bno055_support.c ****     /* variable used to read the accel z data output as m/s2 or mg */
 220:Core/Src/bno055_support.c ****     double d_accel_dataz = BNO055_INIT_VALUE;
 221:Core/Src/bno055_support.c **** 
 222:Core/Src/bno055_support.c ****     /* structure used to read the accel xyz data output as m/s2 or mg */
 223:Core/Src/bno055_support.c ****     struct bno055_accel_double_t d_accel_xyz;
 224:Core/Src/bno055_support.c **** 
 225:Core/Src/bno055_support.c ****     /******************read mag converted data********************/
 226:Core/Src/bno055_support.c ****     /* variable used to read the mag x data output as uT*/
 227:Core/Src/bno055_support.c ****     double d_mag_datax = BNO055_INIT_VALUE;
 228:Core/Src/bno055_support.c **** 
 229:Core/Src/bno055_support.c ****     /* variable used to read the mag y data output as uT*/
 230:Core/Src/bno055_support.c ****     double d_mag_datay = BNO055_INIT_VALUE;
 231:Core/Src/bno055_support.c **** 
 232:Core/Src/bno055_support.c ****     /* variable used to read the mag z data output as uT*/
 233:Core/Src/bno055_support.c ****     double d_mag_dataz = BNO055_INIT_VALUE;
 234:Core/Src/bno055_support.c **** 
 235:Core/Src/bno055_support.c ****     /* structure used to read the mag xyz data output as uT*/
 236:Core/Src/bno055_support.c ****     struct bno055_mag_double_t d_mag_xyz;
 237:Core/Src/bno055_support.c **** 
 238:Core/Src/bno055_support.c ****     /*****************read gyro converted data************************/
 239:Core/Src/bno055_support.c ****     /* variable used to read the gyro x data output as dps or rps */
 240:Core/Src/bno055_support.c ****     double d_gyro_datax = BNO055_INIT_VALUE;
 241:Core/Src/bno055_support.c **** 
 242:Core/Src/bno055_support.c ****     /* variable used to read the gyro y data output as dps or rps */
 243:Core/Src/bno055_support.c ****     double d_gyro_datay = BNO055_INIT_VALUE;
 244:Core/Src/bno055_support.c **** 
 245:Core/Src/bno055_support.c ****     /* variable used to read the gyro z data output as dps or rps */
 246:Core/Src/bno055_support.c ****     double d_gyro_dataz = BNO055_INIT_VALUE;
 247:Core/Src/bno055_support.c **** 
 248:Core/Src/bno055_support.c ****     /* structure used to read the gyro xyz data output as dps or rps */
 249:Core/Src/bno055_support.c ****     struct bno055_gyro_double_t d_gyro_xyz;
 250:Core/Src/bno055_support.c **** 
 251:Core/Src/bno055_support.c ****     /*******************read euler converted data*******************/
 252:Core/Src/bno055_support.c **** 
 253:Core/Src/bno055_support.c ****     /* variable used to read the euler h data output
 254:Core/Src/bno055_support.c ****      * as degree or radians*/
 255:Core/Src/bno055_support.c ****     double d_euler_data_h = BNO055_INIT_VALUE;
 256:Core/Src/bno055_support.c **** 
 257:Core/Src/bno055_support.c ****     /* variable used to read the euler r data output
ARM GAS  /tmp/cc7jlMWm.s 			page 6


 258:Core/Src/bno055_support.c ****      * as degree or radians*/
 259:Core/Src/bno055_support.c ****     double d_euler_data_r = BNO055_INIT_VALUE;
 260:Core/Src/bno055_support.c **** 
 261:Core/Src/bno055_support.c ****     /* variable used to read the euler p data output
 262:Core/Src/bno055_support.c ****      * as degree or radians*/
 263:Core/Src/bno055_support.c ****     double d_euler_data_p = BNO055_INIT_VALUE;
 264:Core/Src/bno055_support.c **** 
 265:Core/Src/bno055_support.c ****     /* structure used to read the euler hrp data output
 266:Core/Src/bno055_support.c ****      * as as degree or radians */
 267:Core/Src/bno055_support.c ****     struct bno055_euler_double_t d_euler_hpr;
 268:Core/Src/bno055_support.c **** 
 269:Core/Src/bno055_support.c ****     /*********read linear acceleration converted data**********/
 270:Core/Src/bno055_support.c ****     /* variable used to read the linear accel x data output as m/s2*/
 271:Core/Src/bno055_support.c ****     double d_linear_accel_datax = BNO055_INIT_VALUE;
 272:Core/Src/bno055_support.c **** 
 273:Core/Src/bno055_support.c ****     /* variable used to read the linear accel y data output as m/s2*/
 274:Core/Src/bno055_support.c ****     double d_linear_accel_datay = BNO055_INIT_VALUE;
 275:Core/Src/bno055_support.c **** 
 276:Core/Src/bno055_support.c ****     /* variable used to read the linear accel z data output as m/s2*/
 277:Core/Src/bno055_support.c ****     double d_linear_accel_dataz = BNO055_INIT_VALUE;
 278:Core/Src/bno055_support.c **** 
 279:Core/Src/bno055_support.c ****     /* structure used to read the linear accel xyz data output as m/s2*/
 280:Core/Src/bno055_support.c ****     struct bno055_linear_accel_double_t d_linear_accel_xyz;
 281:Core/Src/bno055_support.c **** 
 282:Core/Src/bno055_support.c ****     /********************Gravity converted data**********************/
 283:Core/Src/bno055_support.c ****     /* variable used to read the gravity sensor x data output as m/s2*/
 284:Core/Src/bno055_support.c ****     double d_gravity_data_x = BNO055_INIT_VALUE;
 285:Core/Src/bno055_support.c **** 
 286:Core/Src/bno055_support.c ****     /* variable used to read the gravity sensor y data output as m/s2*/
 287:Core/Src/bno055_support.c ****     double d_gravity_data_y = BNO055_INIT_VALUE;
 288:Core/Src/bno055_support.c **** 
 289:Core/Src/bno055_support.c ****     /* variable used to read the gravity sensor z data output as m/s2*/
 290:Core/Src/bno055_support.c ****     double d_gravity_data_z = BNO055_INIT_VALUE;
 291:Core/Src/bno055_support.c **** 
 292:Core/Src/bno055_support.c ****     /* structure used to read the gravity xyz data output as m/s2*/
 293:Core/Src/bno055_support.c ****     struct bno055_gravity_double_t d_gravity_xyz;
 294:Core/Src/bno055_support.c **** 
 295:Core/Src/bno055_support.c ****     /*---------------------------------------------------------------------------*
 296:Core/Src/bno055_support.c ****      *********************** START INITIALIZATION ************************
 297:Core/Src/bno055_support.c ****      *--------------------------------------------------------------------------*/
 298:Core/Src/bno055_support.c **** #ifdef  BNO055_API
 299:Core/Src/bno055_support.c **** 
 300:Core/Src/bno055_support.c ****     /*  Based on the user need configure I2C interface.
 301:Core/Src/bno055_support.c ****      *  It is example code to explain how to use the bno055 API*/
 302:Core/Src/bno055_support.c ****     I2C_routine();
 303:Core/Src/bno055_support.c **** #endif
 304:Core/Src/bno055_support.c **** 
 305:Core/Src/bno055_support.c ****     /*--------------------------------------------------------------------------*
 306:Core/Src/bno055_support.c ****      *  This API used to assign the value/reference of
 307:Core/Src/bno055_support.c ****      *  the following parameters
 308:Core/Src/bno055_support.c ****      *  I2C address
 309:Core/Src/bno055_support.c ****      *  Bus Write
 310:Core/Src/bno055_support.c ****      *  Bus read
 311:Core/Src/bno055_support.c ****      *  Chip id
 312:Core/Src/bno055_support.c ****      *  Page id
 313:Core/Src/bno055_support.c ****      *  Accel revision id
 314:Core/Src/bno055_support.c ****      *  Mag revision id
ARM GAS  /tmp/cc7jlMWm.s 			page 7


 315:Core/Src/bno055_support.c ****      *  Gyro revision id
 316:Core/Src/bno055_support.c ****      *  Boot loader revision id
 317:Core/Src/bno055_support.c ****      *  Software revision id
 318:Core/Src/bno055_support.c ****      *-------------------------------------------------------------------------*/
 319:Core/Src/bno055_support.c ****     comres = bno055_init(&bno055);
 320:Core/Src/bno055_support.c **** 
 321:Core/Src/bno055_support.c ****     /*  For initializing the BNO sensor it is required to the operation mode
 322:Core/Src/bno055_support.c ****      * of the sensor as NORMAL
 323:Core/Src/bno055_support.c ****      * Normal mode can set from the register
 324:Core/Src/bno055_support.c ****      * Page - page0
 325:Core/Src/bno055_support.c ****      * register - 0x3E
 326:Core/Src/bno055_support.c ****      * bit positions - 0 and 1*/
 327:Core/Src/bno055_support.c ****     power_mode = BNO055_POWER_MODE_NORMAL;
 328:Core/Src/bno055_support.c **** 
 329:Core/Src/bno055_support.c ****     /* set the power mode as NORMAL*/
 330:Core/Src/bno055_support.c ****     comres += bno055_set_power_mode(power_mode);
 331:Core/Src/bno055_support.c **** 
 332:Core/Src/bno055_support.c ****     /*----------------------------------------------------------------*
 333:Core/Src/bno055_support.c ****      ************************* END INITIALIZATION *************************
 334:Core/Src/bno055_support.c ****      *-----------------------------------------------------------------*/
 335:Core/Src/bno055_support.c **** 
 336:Core/Src/bno055_support.c ****     /************************* START READ RAW SENSOR DATA****************/
 337:Core/Src/bno055_support.c **** 
 338:Core/Src/bno055_support.c ****     /*  Using BNO055 sensor we can read the following sensor data and
 339:Core/Src/bno055_support.c ****      * virtual sensor data
 340:Core/Src/bno055_support.c ****      * Sensor data:
 341:Core/Src/bno055_support.c ****      * Accel
 342:Core/Src/bno055_support.c ****      * Mag
 343:Core/Src/bno055_support.c ****      * Gyro
 344:Core/Src/bno055_support.c ****      * Virtual sensor data
 345:Core/Src/bno055_support.c ****      * Euler
 346:Core/Src/bno055_support.c ****      * Quaternion
 347:Core/Src/bno055_support.c ****      * Linear acceleration
 348:Core/Src/bno055_support.c ****      * Gravity sensor */
 349:Core/Src/bno055_support.c **** 
 350:Core/Src/bno055_support.c ****     /*  For reading sensor raw data it is required to set the
 351:Core/Src/bno055_support.c ****      * operation modes of the sensor
 352:Core/Src/bno055_support.c ****      * operation mode can set from the register
 353:Core/Src/bno055_support.c ****      * page - page0
 354:Core/Src/bno055_support.c ****      * register - 0x3D
 355:Core/Src/bno055_support.c ****      * bit - 0 to 3
 356:Core/Src/bno055_support.c ****      * for sensor data read following operation mode have to set
 357:Core/Src/bno055_support.c ****      * SENSOR MODE
 358:Core/Src/bno055_support.c ****      * 0x01 - BNO055_OPERATION_MODE_ACCONLY
 359:Core/Src/bno055_support.c ****      * 0x02 - BNO055_OPERATION_MODE_MAGONLY
 360:Core/Src/bno055_support.c ****      * 0x03 - BNO055_OPERATION_MODE_GYRONLY
 361:Core/Src/bno055_support.c ****      * 0x04 - BNO055_OPERATION_MODE_ACCMAG
 362:Core/Src/bno055_support.c ****      * 0x05 - BNO055_OPERATION_MODE_ACCGYRO
 363:Core/Src/bno055_support.c ****      * 0x06 - BNO055_OPERATION_MODE_MAGGYRO
 364:Core/Src/bno055_support.c ****      * 0x07 - BNO055_OPERATION_MODE_AMG
 365:Core/Src/bno055_support.c ****      * based on the user need configure the operation mode*/
 366:Core/Src/bno055_support.c ****     comres += bno055_set_operation_mode(BNO055_OPERATION_MODE_AMG);
 367:Core/Src/bno055_support.c **** 
 368:Core/Src/bno055_support.c ****     /*  Raw accel X, Y and Z data can read from the register
 369:Core/Src/bno055_support.c ****      * page - page 0
 370:Core/Src/bno055_support.c ****      * register - 0x08 to 0x0D*/
 371:Core/Src/bno055_support.c ****     comres += bno055_read_accel_x(&accel_datax);
ARM GAS  /tmp/cc7jlMWm.s 			page 8


 372:Core/Src/bno055_support.c ****     comres += bno055_read_accel_y(&accel_datay);
 373:Core/Src/bno055_support.c ****     comres += bno055_read_accel_z(&accel_dataz);
 374:Core/Src/bno055_support.c ****     comres += bno055_read_accel_xyz(&accel_xyz);
 375:Core/Src/bno055_support.c **** 
 376:Core/Src/bno055_support.c ****     /*  Raw mag X, Y and Z data can read from the register
 377:Core/Src/bno055_support.c ****      * page - page 0
 378:Core/Src/bno055_support.c ****      * register - 0x0E to 0x13*/
 379:Core/Src/bno055_support.c ****     comres += bno055_read_mag_x(&mag_datax);
 380:Core/Src/bno055_support.c ****     comres += bno055_read_mag_y(&mag_datay);
 381:Core/Src/bno055_support.c ****     comres += bno055_read_mag_z(&mag_dataz);
 382:Core/Src/bno055_support.c ****     comres += bno055_read_mag_xyz(&mag_xyz);
 383:Core/Src/bno055_support.c **** 
 384:Core/Src/bno055_support.c ****     /*  Raw gyro X, Y and Z data can read from the register
 385:Core/Src/bno055_support.c ****      * page - page 0
 386:Core/Src/bno055_support.c ****      * register - 0x14 to 0x19*/
 387:Core/Src/bno055_support.c ****     comres += bno055_read_gyro_x(&gyro_datax);
 388:Core/Src/bno055_support.c ****     comres += bno055_read_gyro_y(&gyro_datay);
 389:Core/Src/bno055_support.c ****     comres += bno055_read_gyro_z(&gyro_dataz);
 390:Core/Src/bno055_support.c ****     comres += bno055_read_gyro_xyz(&gyro_xyz);
 391:Core/Src/bno055_support.c **** 
 392:Core/Src/bno055_support.c ****     /************************* END READ RAW SENSOR DATA****************/
 393:Core/Src/bno055_support.c **** 
 394:Core/Src/bno055_support.c ****     /************************* START READ RAW FUSION DATA ********
 395:Core/Src/bno055_support.c ****      * For reading fusion data it is required to set the
 396:Core/Src/bno055_support.c ****      * operation modes of the sensor
 397:Core/Src/bno055_support.c ****      * operation mode can set from the register
 398:Core/Src/bno055_support.c ****      * page - page0
 399:Core/Src/bno055_support.c ****      * register - 0x3D
 400:Core/Src/bno055_support.c ****      * bit - 0 to 3
 401:Core/Src/bno055_support.c ****      * for sensor data read following operation mode have to set
 402:Core/Src/bno055_support.c ****      * FUSION MODE
 403:Core/Src/bno055_support.c ****      * 0x08 - BNO055_OPERATION_MODE_IMUPLUS
 404:Core/Src/bno055_support.c ****      * 0x09 - BNO055_OPERATION_MODE_COMPASS
 405:Core/Src/bno055_support.c ****      * 0x0A - BNO055_OPERATION_MODE_M4G
 406:Core/Src/bno055_support.c ****      * 0x0B - BNO055_OPERATION_MODE_NDOF_FMC_OFF
 407:Core/Src/bno055_support.c ****      * 0x0C - BNO055_OPERATION_MODE_NDOF
 408:Core/Src/bno055_support.c ****      * based on the user need configure the operation mode*/
 409:Core/Src/bno055_support.c ****     comres += bno055_set_operation_mode(BNO055_OPERATION_MODE_NDOF);
 410:Core/Src/bno055_support.c **** 
 411:Core/Src/bno055_support.c ****     /*  Raw Euler H, R and P data can read from the register
 412:Core/Src/bno055_support.c ****      * page - page 0
 413:Core/Src/bno055_support.c ****      * register - 0x1A to 0x1E */
 414:Core/Src/bno055_support.c ****     comres += bno055_read_euler_h(&euler_data_h);
 415:Core/Src/bno055_support.c ****     comres += bno055_read_euler_r(&euler_data_r);
 416:Core/Src/bno055_support.c ****     comres += bno055_read_euler_p(&euler_data_p);
 417:Core/Src/bno055_support.c ****     comres += bno055_read_euler_hrp(&euler_hrp);
 418:Core/Src/bno055_support.c **** 
 419:Core/Src/bno055_support.c ****     /*  Raw Quaternion W, X, Y and Z data can read from the register
 420:Core/Src/bno055_support.c ****      * page - page 0
 421:Core/Src/bno055_support.c ****      * register - 0x20 to 0x27 */
 422:Core/Src/bno055_support.c ****     comres += bno055_read_quaternion_w(&quaternion_data_w);
 423:Core/Src/bno055_support.c ****     comres += bno055_read_quaternion_x(&quaternion_data_x);
 424:Core/Src/bno055_support.c ****     comres += bno055_read_quaternion_y(&quaternion_data_y);
 425:Core/Src/bno055_support.c ****     comres += bno055_read_quaternion_z(&quaternion_data_z);
 426:Core/Src/bno055_support.c ****     comres += bno055_read_quaternion_wxyz(&quaternion_wxyz);
 427:Core/Src/bno055_support.c **** 
 428:Core/Src/bno055_support.c ****     /*  Raw Linear accel X, Y and Z data can read from the register
ARM GAS  /tmp/cc7jlMWm.s 			page 9


 429:Core/Src/bno055_support.c ****      * page - page 0
 430:Core/Src/bno055_support.c ****      * register - 0x28 to 0x2D */
 431:Core/Src/bno055_support.c ****     comres += bno055_read_linear_accel_x(&linear_accel_data_x);
 432:Core/Src/bno055_support.c ****     comres += bno055_read_linear_accel_y(&linear_accel_data_y);
 433:Core/Src/bno055_support.c ****     comres += bno055_read_linear_accel_z(&linear_accel_data_z);
 434:Core/Src/bno055_support.c ****     comres += bno055_read_linear_accel_xyz(&linear_acce_xyz);
 435:Core/Src/bno055_support.c **** 
 436:Core/Src/bno055_support.c ****     /*  Raw Gravity sensor X, Y and Z data can read from the register
 437:Core/Src/bno055_support.c ****      * page - page 0
 438:Core/Src/bno055_support.c ****      * register - 0x2E to 0x33 */
 439:Core/Src/bno055_support.c ****     comres += bno055_read_gravity_x(&gravity_data_x);
 440:Core/Src/bno055_support.c ****     comres += bno055_read_gravity_y(&gravity_data_y);
 441:Core/Src/bno055_support.c ****     comres += bno055_read_gravity_z(&gravity_data_z);
 442:Core/Src/bno055_support.c ****     comres += bno055_read_gravity_xyz(&gravity_xyz);
 443:Core/Src/bno055_support.c **** 
 444:Core/Src/bno055_support.c ****     /************************* END READ RAW FUSION DATA  ************/
 445:Core/Src/bno055_support.c ****     /******************START READ CONVERTED SENSOR DATA****************/
 446:Core/Src/bno055_support.c **** 
 447:Core/Src/bno055_support.c ****     /*  API used to read accel data output as double  - m/s2 and mg
 448:Core/Src/bno055_support.c ****      * float functions also available in the BNO055 API */
 449:Core/Src/bno055_support.c ****     comres += bno055_convert_double_accel_x_msq(&d_accel_datax);
 450:Core/Src/bno055_support.c ****     comres += bno055_convert_double_accel_x_mg(&d_accel_datax);
 451:Core/Src/bno055_support.c ****     comres += bno055_convert_double_accel_y_msq(&d_accel_datay);
 452:Core/Src/bno055_support.c ****     comres += bno055_convert_double_accel_y_mg(&d_accel_datay);
 453:Core/Src/bno055_support.c ****     comres += bno055_convert_double_accel_z_msq(&d_accel_dataz);
 454:Core/Src/bno055_support.c ****     comres += bno055_convert_double_accel_z_mg(&d_accel_dataz);
 455:Core/Src/bno055_support.c ****     comres += bno055_convert_double_accel_xyz_msq(&d_accel_xyz);
 456:Core/Src/bno055_support.c ****     comres += bno055_convert_double_accel_xyz_mg(&d_accel_xyz);
 457:Core/Src/bno055_support.c **** 
 458:Core/Src/bno055_support.c ****     /*  API used to read mag data output as double  - uT(micro Tesla)
 459:Core/Src/bno055_support.c ****      * float functions also available in the BNO055 API */
 460:Core/Src/bno055_support.c ****     comres += bno055_convert_double_mag_x_uT(&d_mag_datax);
 461:Core/Src/bno055_support.c ****     comres += bno055_convert_double_mag_y_uT(&d_mag_datay);
 462:Core/Src/bno055_support.c ****     comres += bno055_convert_double_mag_z_uT(&d_mag_dataz);
 463:Core/Src/bno055_support.c ****     comres += bno055_convert_double_mag_xyz_uT(&d_mag_xyz);
 464:Core/Src/bno055_support.c **** 
 465:Core/Src/bno055_support.c ****     /*  API used to read gyro data output as double  - dps and rps
 466:Core/Src/bno055_support.c ****      * float functions also available in the BNO055 API */
 467:Core/Src/bno055_support.c ****     comres += bno055_convert_double_gyro_x_dps(&d_gyro_datax);
 468:Core/Src/bno055_support.c ****     comres += bno055_convert_double_gyro_y_dps(&d_gyro_datay);
 469:Core/Src/bno055_support.c ****     comres += bno055_convert_double_gyro_z_dps(&d_gyro_dataz);
 470:Core/Src/bno055_support.c ****     comres += bno055_convert_double_gyro_x_rps(&d_gyro_datax);
 471:Core/Src/bno055_support.c ****     comres += bno055_convert_double_gyro_y_rps(&d_gyro_datay);
 472:Core/Src/bno055_support.c ****     comres += bno055_convert_double_gyro_z_rps(&d_gyro_dataz);
 473:Core/Src/bno055_support.c ****     comres += bno055_convert_double_gyro_xyz_dps(&d_gyro_xyz);
 474:Core/Src/bno055_support.c ****     comres += bno055_convert_double_gyro_xyz_rps(&d_gyro_xyz);
 475:Core/Src/bno055_support.c **** 
 476:Core/Src/bno055_support.c ****     /*  API used to read Euler data output as double  - degree and radians
 477:Core/Src/bno055_support.c ****      * float functions also available in the BNO055 API */
 478:Core/Src/bno055_support.c ****     comres += bno055_convert_double_euler_h_deg(&d_euler_data_h);
 479:Core/Src/bno055_support.c ****     comres += bno055_convert_double_euler_r_deg(&d_euler_data_r);
 480:Core/Src/bno055_support.c ****     comres += bno055_convert_double_euler_p_deg(&d_euler_data_p);
 481:Core/Src/bno055_support.c ****     comres += bno055_convert_double_euler_h_rad(&d_euler_data_h);
 482:Core/Src/bno055_support.c ****     comres += bno055_convert_double_euler_r_rad(&d_euler_data_r);
 483:Core/Src/bno055_support.c ****     comres += bno055_convert_double_euler_p_rad(&d_euler_data_p);
 484:Core/Src/bno055_support.c ****     comres += bno055_convert_double_euler_hpr_deg(&d_euler_hpr);
 485:Core/Src/bno055_support.c ****     comres += bno055_convert_double_euler_hpr_rad(&d_euler_hpr);
ARM GAS  /tmp/cc7jlMWm.s 			page 10


 486:Core/Src/bno055_support.c **** 
 487:Core/Src/bno055_support.c ****     /*  API used to read Linear acceleration data output as m/s2
 488:Core/Src/bno055_support.c ****      * float functions also available in the BNO055 API */
 489:Core/Src/bno055_support.c ****     comres += bno055_convert_double_linear_accel_x_msq(&d_linear_accel_datax);
 490:Core/Src/bno055_support.c ****     comres += bno055_convert_double_linear_accel_y_msq(&d_linear_accel_datay);
 491:Core/Src/bno055_support.c ****     comres += bno055_convert_double_linear_accel_z_msq(&d_linear_accel_dataz);
 492:Core/Src/bno055_support.c ****     comres += bno055_convert_double_linear_accel_xyz_msq(&d_linear_accel_xyz);
 493:Core/Src/bno055_support.c **** 
 494:Core/Src/bno055_support.c ****     /*  API used to read Gravity sensor data output as m/s2
 495:Core/Src/bno055_support.c ****      * float functions also available in the BNO055 API */
 496:Core/Src/bno055_support.c ****     comres += bno055_convert_gravity_double_x_msq(&d_gravity_data_x);
 497:Core/Src/bno055_support.c ****     comres += bno055_convert_gravity_double_y_msq(&d_gravity_data_y);
 498:Core/Src/bno055_support.c ****     comres += bno055_convert_gravity_double_z_msq(&d_gravity_data_z);
 499:Core/Src/bno055_support.c ****     comres += bno055_convert_double_gravity_xyz_msq(&d_gravity_xyz);
 500:Core/Src/bno055_support.c **** 
 501:Core/Src/bno055_support.c ****     /*-----------------------------------------------------------------------*
 502:Core/Src/bno055_support.c ****      ************************* START DE-INITIALIZATION ***********************
 503:Core/Src/bno055_support.c ****      *-------------------------------------------------------------------------*/
 504:Core/Src/bno055_support.c **** 
 505:Core/Src/bno055_support.c ****     /*  For de - initializing the BNO sensor it is required
 506:Core/Src/bno055_support.c ****      * to the operation mode of the sensor as SUSPEND
 507:Core/Src/bno055_support.c ****      * Suspend mode can set from the register
 508:Core/Src/bno055_support.c ****      * Page - page0
 509:Core/Src/bno055_support.c ****      * register - 0x3E
 510:Core/Src/bno055_support.c ****      * bit positions - 0 and 1*/
 511:Core/Src/bno055_support.c ****     power_mode = BNO055_POWER_MODE_SUSPEND;
 512:Core/Src/bno055_support.c **** 
 513:Core/Src/bno055_support.c ****     /* set the power mode as SUSPEND*/
 514:Core/Src/bno055_support.c ****     comres += bno055_set_power_mode(power_mode);
 515:Core/Src/bno055_support.c **** 
 516:Core/Src/bno055_support.c ****     /*---------------------------------------------------------------------*
 517:Core/Src/bno055_support.c ****     ************************* END DE-INITIALIZATION **********************
 518:Core/Src/bno055_support.c ****     *---------------------------------------------------------------------*/
 519:Core/Src/bno055_support.c ****     return comres;
 520:Core/Src/bno055_support.c **** }
 521:Core/Src/bno055_support.c **** 
 522:Core/Src/bno055_support.c **** #ifdef  BNO055_API
 523:Core/Src/bno055_support.c **** 
 524:Core/Src/bno055_support.c **** /*--------------------------------------------------------------------------*
 525:Core/Src/bno055_support.c ****  *  The following API is used to map the I2C bus read, write, delay and
 526:Core/Src/bno055_support.c ****  *  device address with global structure bno055_t
 527:Core/Src/bno055_support.c ****  *-------------------------------------------------------------------------*/
 528:Core/Src/bno055_support.c **** 
 529:Core/Src/bno055_support.c **** /*-------------------------------------------------------------------------*
 530:Core/Src/bno055_support.c ****  *  By using bno055 the following structure parameter can be accessed
 531:Core/Src/bno055_support.c ****  *  Bus write function pointer: BNO055_WR_FUNC_PTR
 532:Core/Src/bno055_support.c ****  *  Bus read function pointer: BNO055_RD_FUNC_PTR
 533:Core/Src/bno055_support.c ****  *  Delay function pointer: delay_msec
 534:Core/Src/bno055_support.c ****  *  I2C address: dev_addr
 535:Core/Src/bno055_support.c ****  *--------------------------------------------------------------------------*/
 536:Core/Src/bno055_support.c **** s8 I2C_routine(void)
 537:Core/Src/bno055_support.c **** {
 538:Core/Src/bno055_support.c ****     bno055.bus_write = BNO055_I2C_bus_write;
 539:Core/Src/bno055_support.c ****     bno055.bus_read = BNO055_I2C_bus_read;
 540:Core/Src/bno055_support.c ****     bno055.delay_msec = BNO055_delay_msek;
 541:Core/Src/bno055_support.c ****     bno055.dev_addr = BNO055_I2C_ADDR1;
 542:Core/Src/bno055_support.c **** 
ARM GAS  /tmp/cc7jlMWm.s 			page 11


 543:Core/Src/bno055_support.c ****     return BNO055_INIT_VALUE;
 544:Core/Src/bno055_support.c **** }
 545:Core/Src/bno055_support.c **** 
 546:Core/Src/bno055_support.c **** /************** I2C buffer length******/
 547:Core/Src/bno055_support.c **** 
 548:Core/Src/bno055_support.c **** #define I2C_BUFFER_LEN 8
 549:Core/Src/bno055_support.c **** #define I2C0           5
 550:Core/Src/bno055_support.c **** 
 551:Core/Src/bno055_support.c **** /*-------------------------------------------------------------------*
 552:Core/Src/bno055_support.c ****  *
 553:Core/Src/bno055_support.c ****  *  This is a sample code for read and write the data by using I2C
 554:Core/Src/bno055_support.c ****  *  Use either I2C  based on your need
 555:Core/Src/bno055_support.c ****  *  The device address defined in the bno055.h file
 556:Core/Src/bno055_support.c ****  *
 557:Core/Src/bno055_support.c ****  *--------------------------------------------------------------------*/
 558:Core/Src/bno055_support.c **** 
 559:Core/Src/bno055_support.c **** /*  \Brief: The API is used as I2C bus write
 560:Core/Src/bno055_support.c ****  *  \Return : Status of the I2C write
 561:Core/Src/bno055_support.c ****  *  \param dev_addr : The device address of the sensor
 562:Core/Src/bno055_support.c ****  *  \param reg_addr : Address of the first register,
 563:Core/Src/bno055_support.c ****  *   will data is going to be written
 564:Core/Src/bno055_support.c ****  *  \param reg_data : It is a value hold in the array,
 565:Core/Src/bno055_support.c ****  *      will be used for write the value into the register
 566:Core/Src/bno055_support.c ****  *  \param cnt : The no of byte of data to be write
 567:Core/Src/bno055_support.c ****  */
 568:Core/Src/bno055_support.c **** s8 BNO055_I2C_bus_write(u8 dev_addr, u8 reg_addr, u8 *reg_data, u8 cnt)
 569:Core/Src/bno055_support.c **** {
  30              		.loc 1 569 1 view -0
  31              		.cfi_startproc
  32              		@ args = 0, pretend = 0, frame = 8
  33              		@ frame_needed = 0, uses_anonymous_args = 0
  34              		.loc 1 569 1 is_stmt 0 view .LVU1
  35 0000 00B5     		push	{lr}
  36              		.cfi_def_cfa_offset 4
  37              		.cfi_offset 14, -4
  38 0002 85B0     		sub	sp, sp, #20
  39              		.cfi_def_cfa_offset 24
 570:Core/Src/bno055_support.c ****     s32 BNO055_iERROR = BNO055_INIT_VALUE;
  40              		.loc 1 570 5 is_stmt 1 view .LVU2
  41              	.LVL1:
 571:Core/Src/bno055_support.c ****     u8 array[I2C_BUFFER_LEN];
  42              		.loc 1 571 5 view .LVU3
 572:Core/Src/bno055_support.c ****     u8 stringpos = BNO055_INIT_VALUE;
  43              		.loc 1 572 5 view .LVU4
 573:Core/Src/bno055_support.c **** 
 574:Core/Src/bno055_support.c ****     array[BNO055_INIT_VALUE] = reg_addr;
  44              		.loc 1 574 5 view .LVU5
  45              		.loc 1 574 30 is_stmt 0 view .LVU6
  46 0004 8DF80810 		strb	r1, [sp, #8]
 575:Core/Src/bno055_support.c ****     for (stringpos = BNO055_INIT_VALUE; stringpos < cnt; stringpos++)
  47              		.loc 1 575 5 is_stmt 1 view .LVU7
  48              		.loc 1 575 20 is_stmt 0 view .LVU8
  49 0008 0021     		movs	r1, #0
  50              	.LVL2:
  51              		.loc 1 575 5 view .LVU9
  52 000a 09E0     		b	.L2
  53              	.LVL3:
ARM GAS  /tmp/cc7jlMWm.s 			page 12


  54              	.L3:
 576:Core/Src/bno055_support.c ****     {
 577:Core/Src/bno055_support.c ****         array[stringpos + BNO055_I2C_BUS_WRITE_ARRAY_INDEX] = *(reg_data + stringpos);
  55              		.loc 1 577 9 is_stmt 1 discriminator 3 view .LVU10
  56              		.loc 1 577 25 is_stmt 0 discriminator 3 view .LVU11
  57 000c 01F1010C 		add	ip, r1, #1
  58              		.loc 1 577 63 discriminator 3 view .LVU12
  59 0010 12F801E0 		ldrb	lr, [r2, r1]	@ zero_extendqisi2
  60              		.loc 1 577 61 discriminator 3 view .LVU13
  61 0014 1131     		adds	r1, r1, #17
  62              	.LVL4:
  63              		.loc 1 577 61 discriminator 3 view .LVU14
  64 0016 6944     		add	r1, sp, r1
  65 0018 01F808EC 		strb	lr, [r1, #-8]
 575:Core/Src/bno055_support.c ****     for (stringpos = BNO055_INIT_VALUE; stringpos < cnt; stringpos++)
  66              		.loc 1 575 67 is_stmt 1 discriminator 3 view .LVU15
  67 001c 5FFA8CF1 		uxtb	r1, ip
  68              	.LVL5:
  69              	.L2:
 575:Core/Src/bno055_support.c ****     for (stringpos = BNO055_INIT_VALUE; stringpos < cnt; stringpos++)
  70              		.loc 1 575 51 discriminator 1 view .LVU16
  71 0020 9942     		cmp	r1, r3
  72 0022 F3D3     		bcc	.L3
 578:Core/Src/bno055_support.c ****     }
 579:Core/Src/bno055_support.c **** 
 580:Core/Src/bno055_support.c **** /*
 581:Core/Src/bno055_support.c ****  * Please take the below APIs as your reference for
 582:Core/Src/bno055_support.c ****  * write the data using I2C communication
 583:Core/Src/bno055_support.c ****  * "BNO055_iERROR = I2C_WRITE_STRING(DEV_ADDR, ARRAY, CNT+1)"
 584:Core/Src/bno055_support.c ****  * add your I2C write APIs here
 585:Core/Src/bno055_support.c ****  * BNO055_iERROR is an return value of I2C read API
 586:Core/Src/bno055_support.c ****  * Please select your valid return value
 587:Core/Src/bno055_support.c ****  * In the driver BNO055_SUCCESS defined as 0
 588:Core/Src/bno055_support.c ****  * and FAILURE defined as -1
 589:Core/Src/bno055_support.c ****  * Note :
 590:Core/Src/bno055_support.c ****  * This is a full duplex operation,
 591:Core/Src/bno055_support.c ****  * The first read data is discarded, for that extra write operation
 592:Core/Src/bno055_support.c ****  * have to be initiated. For that cnt+1 operation done
 593:Core/Src/bno055_support.c ****  * in the I2C write string function
 594:Core/Src/bno055_support.c ****  * For more information please refer data sheet SPI communication:
 595:Core/Src/bno055_support.c ****  */
 596:Core/Src/bno055_support.c **** 
 597:Core/Src/bno055_support.c ****     BNO055_iERROR = HAL_I2C_Master_Transmit(&hi2c1, dev_addr << 1, array, cnt + 1, 10);
  73              		.loc 1 597 5 view .LVU17
  74              		.loc 1 597 21 is_stmt 0 view .LVU18
  75 0024 0A22     		movs	r2, #10
  76              	.LVL6:
  77              		.loc 1 597 21 view .LVU19
  78 0026 0092     		str	r2, [sp]
  79 0028 0133     		adds	r3, r3, #1
  80              	.LVL7:
  81              		.loc 1 597 21 view .LVU20
  82 002a 02AA     		add	r2, sp, #8
  83 002c 4100     		lsls	r1, r0, #1
  84              	.LVL8:
  85              		.loc 1 597 21 view .LVU21
  86 002e 0648     		ldr	r0, .L7
ARM GAS  /tmp/cc7jlMWm.s 			page 13


  87              	.LVL9:
  88              		.loc 1 597 21 view .LVU22
  89 0030 FFF7FEFF 		bl	HAL_I2C_Master_Transmit
  90              	.LVL10:
  91              		.loc 1 597 19 view .LVU23
  92 0034 0346     		mov	r3, r0
  93              	.LVL11:
 598:Core/Src/bno055_support.c **** 
 599:Core/Src/bno055_support.c ****     if (BNO055_iERROR > 0) {
  94              		.loc 1 599 5 is_stmt 1 view .LVU24
  95              		.loc 1 599 8 is_stmt 0 view .LVU25
  96 0036 0028     		cmp	r0, #0
  97 0038 01DD     		ble	.L4
 600:Core/Src/bno055_support.c ****     	BNO055_iERROR = -1;
  98              		.loc 1 600 20 view .LVU26
  99 003a 4FF0FF33 		mov	r3, #-1
 100              	.L4:
 101              	.LVL12:
 601:Core/Src/bno055_support.c ****     }
 602:Core/Src/bno055_support.c **** 
 603:Core/Src/bno055_support.c **** 	return (s8)BNO055_iERROR;
 102              		.loc 1 603 2 is_stmt 1 view .LVU27
 604:Core/Src/bno055_support.c **** }
 103              		.loc 1 604 1 is_stmt 0 view .LVU28
 104 003e 58B2     		sxtb	r0, r3
 105 0040 05B0     		add	sp, sp, #20
 106              		.cfi_def_cfa_offset 4
 107              		@ sp needed
 108 0042 5DF804FB 		ldr	pc, [sp], #4
 109              	.L8:
 110 0046 00BF     		.align	2
 111              	.L7:
 112 0048 00000000 		.word	hi2c1
 113              		.cfi_endproc
 114              	.LFE125:
 116              		.section	.text.BNO055_I2C_bus_read,"ax",%progbits
 117              		.align	1
 118              		.global	BNO055_I2C_bus_read
 119              		.syntax unified
 120              		.thumb
 121              		.thumb_func
 123              	BNO055_I2C_bus_read:
 124              	.LVL13:
 125              	.LFB126:
 605:Core/Src/bno055_support.c **** 
 606:Core/Src/bno055_support.c **** /*  \Brief: The API is used as I2C bus read
 607:Core/Src/bno055_support.c ****  *  \Return : Status of the I2C read
 608:Core/Src/bno055_support.c ****  *  \param dev_addr : The device address of the sensor
 609:Core/Src/bno055_support.c ****  *  \param reg_addr : Address of the first register,
 610:Core/Src/bno055_support.c ****  *  will data is going to be read
 611:Core/Src/bno055_support.c ****  *  \param reg_data : This data read from the sensor,
 612:Core/Src/bno055_support.c ****  *   which is hold in an array
 613:Core/Src/bno055_support.c ****  *  \param cnt : The no of byte of data to be read
 614:Core/Src/bno055_support.c ****  */
 615:Core/Src/bno055_support.c **** s8 BNO055_I2C_bus_read(u8 dev_addr, u8 reg_addr, u8 *reg_data, u8 cnt)
 616:Core/Src/bno055_support.c **** {
 126              		.loc 1 616 1 is_stmt 1 view -0
ARM GAS  /tmp/cc7jlMWm.s 			page 14


 127              		.cfi_startproc
 128              		@ args = 0, pretend = 0, frame = 8
 129              		@ frame_needed = 0, uses_anonymous_args = 0
 130              		.loc 1 616 1 is_stmt 0 view .LVU30
 131 0000 2DE9F041 		push	{r4, r5, r6, r7, r8, lr}
 132              		.cfi_def_cfa_offset 24
 133              		.cfi_offset 4, -24
 134              		.cfi_offset 5, -20
 135              		.cfi_offset 6, -16
 136              		.cfi_offset 7, -12
 137              		.cfi_offset 8, -8
 138              		.cfi_offset 14, -4
 139 0004 84B0     		sub	sp, sp, #16
 140              		.cfi_def_cfa_offset 40
 141 0006 1546     		mov	r5, r2
 142 0008 1C46     		mov	r4, r3
 617:Core/Src/bno055_support.c ****     s32 BNO055_iERROR = BNO055_INIT_VALUE;
 143              		.loc 1 617 5 is_stmt 1 view .LVU31
 144              	.LVL14:
 618:Core/Src/bno055_support.c ****     u8 array[I2C_BUFFER_LEN] = { BNO055_INIT_VALUE };
 145              		.loc 1 618 5 view .LVU32
 146              		.loc 1 618 8 is_stmt 0 view .LVU33
 147 000a 0023     		movs	r3, #0
 148              	.LVL15:
 149              		.loc 1 618 8 view .LVU34
 150 000c 0293     		str	r3, [sp, #8]
 151 000e 0393     		str	r3, [sp, #12]
 619:Core/Src/bno055_support.c ****     u8 stringpos = BNO055_INIT_VALUE;
 152              		.loc 1 619 5 is_stmt 1 view .LVU35
 153              	.LVL16:
 620:Core/Src/bno055_support.c **** 
 621:Core/Src/bno055_support.c ****     array[BNO055_INIT_VALUE] = reg_addr;
 154              		.loc 1 621 5 view .LVU36
 155              		.loc 1 621 30 is_stmt 0 view .LVU37
 156 0010 8DF80810 		strb	r1, [sp, #8]
 622:Core/Src/bno055_support.c **** 
 623:Core/Src/bno055_support.c ****     /* Please take the below API as your reference
 624:Core/Src/bno055_support.c ****      * for read the data using I2C communication
 625:Core/Src/bno055_support.c ****      * add your I2C read API here.
 626:Core/Src/bno055_support.c ****      * "BNO055_iERROR = I2C_WRITE_READ_STRING(DEV_ADDR,
 627:Core/Src/bno055_support.c ****      * ARRAY, ARRAY, 1, CNT)"
 628:Core/Src/bno055_support.c ****      * BNO055_iERROR is an return value of SPI write API
 629:Core/Src/bno055_support.c ****      * Please select your valid return value
 630:Core/Src/bno055_support.c ****      * In the driver BNO055_SUCCESS defined as 0
 631:Core/Src/bno055_support.c ****      * and FAILURE defined as -1
 632:Core/Src/bno055_support.c ****      */
 633:Core/Src/bno055_support.c ****     BNO055_iERROR = HAL_I2C_Master_Transmit(&hi2c1, dev_addr << 1, array, 1, 100);
 157              		.loc 1 633 5 is_stmt 1 view .LVU38
 158              		.loc 1 633 21 is_stmt 0 view .LVU39
 159 0014 4FEA4008 		lsl	r8, r0, #1
 160 0018 134E     		ldr	r6, .L15
 161 001a 6427     		movs	r7, #100
 162 001c 0097     		str	r7, [sp]
 163 001e 0123     		movs	r3, #1
 164 0020 02AA     		add	r2, sp, #8
 165              	.LVL17:
 166              		.loc 1 633 21 view .LVU40
ARM GAS  /tmp/cc7jlMWm.s 			page 15


 167 0022 4146     		mov	r1, r8
 168              	.LVL18:
 169              		.loc 1 633 21 view .LVU41
 170 0024 3046     		mov	r0, r6
 171              	.LVL19:
 172              		.loc 1 633 21 view .LVU42
 173 0026 FFF7FEFF 		bl	HAL_I2C_Master_Transmit
 174              	.LVL20:
 634:Core/Src/bno055_support.c **** 
 635:Core/Src/bno055_support.c ****     BNO055_iERROR = HAL_I2C_Master_Receive(&hi2c1, (dev_addr << 1) | 1, array, cnt, 100);
 175              		.loc 1 635 5 is_stmt 1 view .LVU43
 176              		.loc 1 635 21 is_stmt 0 view .LVU44
 177 002a 0097     		str	r7, [sp]
 178 002c 2346     		mov	r3, r4
 179 002e 02AA     		add	r2, sp, #8
 180 0030 48F00101 		orr	r1, r8, #1
 181 0034 3046     		mov	r0, r6
 182 0036 FFF7FEFF 		bl	HAL_I2C_Master_Receive
 183              	.LVL21:
 184              		.loc 1 635 19 view .LVU45
 185 003a 0346     		mov	r3, r0
 186              	.LVL22:
 636:Core/Src/bno055_support.c **** 
 637:Core/Src/bno055_support.c ****     if (BNO055_iERROR > 0) {
 187              		.loc 1 637 5 is_stmt 1 view .LVU46
 188              		.loc 1 637 8 is_stmt 0 view .LVU47
 189 003c 0028     		cmp	r0, #0
 190 003e 01DD     		ble	.L10
 638:Core/Src/bno055_support.c ****     	BNO055_iERROR = -1;
 191              		.loc 1 638 20 view .LVU48
 192 0040 4FF0FF33 		mov	r3, #-1
 193              	.L10:
 194              	.LVL23:
 639:Core/Src/bno055_support.c ****     }
 640:Core/Src/bno055_support.c **** 
 641:Core/Src/bno055_support.c ****     for (stringpos = BNO055_INIT_VALUE; stringpos < cnt; stringpos++)
 195              		.loc 1 641 5 is_stmt 1 view .LVU49
 196              		.loc 1 641 20 is_stmt 0 view .LVU50
 197 0044 0021     		movs	r1, #0
 198              		.loc 1 641 5 view .LVU51
 199 0046 09E0     		b	.L11
 200              	.LVL24:
 201              	.L12:
 642:Core/Src/bno055_support.c ****     {
 643:Core/Src/bno055_support.c ****         *(reg_data + stringpos) = array[stringpos];
 202              		.loc 1 643 9 is_stmt 1 discriminator 3 view .LVU52
 203              		.loc 1 643 40 is_stmt 0 discriminator 3 view .LVU53
 204 0048 01F11002 		add	r2, r1, #16
 205 004c 0DEB020C 		add	ip, sp, r2
 206 0050 1CF808CC 		ldrb	ip, [ip, #-8]	@ zero_extendqisi2
 207              		.loc 1 643 33 discriminator 3 view .LVU54
 208 0054 05F801C0 		strb	ip, [r5, r1]
 641:Core/Src/bno055_support.c ****     {
 209              		.loc 1 641 67 is_stmt 1 discriminator 3 view .LVU55
 210 0058 0131     		adds	r1, r1, #1
 211              	.LVL25:
 641:Core/Src/bno055_support.c ****     {
ARM GAS  /tmp/cc7jlMWm.s 			page 16


 212              		.loc 1 641 67 is_stmt 0 discriminator 3 view .LVU56
 213 005a C9B2     		uxtb	r1, r1
 214              	.LVL26:
 215              	.L11:
 641:Core/Src/bno055_support.c ****     {
 216              		.loc 1 641 51 is_stmt 1 discriminator 1 view .LVU57
 217 005c A142     		cmp	r1, r4
 218 005e F3D3     		bcc	.L12
 644:Core/Src/bno055_support.c ****     }
 645:Core/Src/bno055_support.c **** 
 646:Core/Src/bno055_support.c ****     return (s8)BNO055_iERROR;
 219              		.loc 1 646 5 view .LVU58
 647:Core/Src/bno055_support.c **** }
 220              		.loc 1 647 1 is_stmt 0 view .LVU59
 221 0060 58B2     		sxtb	r0, r3
 222 0062 04B0     		add	sp, sp, #16
 223              		.cfi_def_cfa_offset 24
 224              		@ sp needed
 225 0064 BDE8F081 		pop	{r4, r5, r6, r7, r8, pc}
 226              	.LVL27:
 227              	.L16:
 228              		.loc 1 647 1 view .LVU60
 229              		.align	2
 230              	.L15:
 231 0068 00000000 		.word	hi2c1
 232              		.cfi_endproc
 233              	.LFE126:
 235              		.section	.text.BNO055_delay_msek,"ax",%progbits
 236              		.align	1
 237              		.global	BNO055_delay_msek
 238              		.syntax unified
 239              		.thumb
 240              		.thumb_func
 242              	BNO055_delay_msek:
 243              	.LVL28:
 244              	.LFB127:
 648:Core/Src/bno055_support.c **** 
 649:Core/Src/bno055_support.c **** /*  Brief : The delay routine
 650:Core/Src/bno055_support.c ****  *  \param : delay in ms
 651:Core/Src/bno055_support.c ****  */
 652:Core/Src/bno055_support.c **** void BNO055_delay_msek(u32 msek)
 653:Core/Src/bno055_support.c **** {
 245              		.loc 1 653 1 is_stmt 1 view -0
 246              		.cfi_startproc
 247              		@ args = 0, pretend = 0, frame = 0
 248              		@ frame_needed = 0, uses_anonymous_args = 0
 249              		.loc 1 653 1 is_stmt 0 view .LVU62
 250 0000 08B5     		push	{r3, lr}
 251              		.cfi_def_cfa_offset 8
 252              		.cfi_offset 3, -8
 253              		.cfi_offset 14, -4
 654:Core/Src/bno055_support.c **** 	HAL_Delay(msek);
 254              		.loc 1 654 2 is_stmt 1 view .LVU63
 255 0002 FFF7FEFF 		bl	HAL_Delay
 256              	.LVL29:
 655:Core/Src/bno055_support.c **** }
 257              		.loc 1 655 1 is_stmt 0 view .LVU64
ARM GAS  /tmp/cc7jlMWm.s 			page 17


 258 0006 08BD     		pop	{r3, pc}
 259              		.cfi_endproc
 260              	.LFE127:
 262              		.section	.text.I2C_routine,"ax",%progbits
 263              		.align	1
 264              		.global	I2C_routine
 265              		.syntax unified
 266              		.thumb
 267              		.thumb_func
 269              	I2C_routine:
 270              	.LFB124:
 537:Core/Src/bno055_support.c ****     bno055.bus_write = BNO055_I2C_bus_write;
 271              		.loc 1 537 1 is_stmt 1 view -0
 272              		.cfi_startproc
 273              		@ args = 0, pretend = 0, frame = 0
 274              		@ frame_needed = 0, uses_anonymous_args = 0
 275              		@ link register save eliminated.
 538:Core/Src/bno055_support.c ****     bno055.bus_read = BNO055_I2C_bus_read;
 276              		.loc 1 538 5 view .LVU66
 538:Core/Src/bno055_support.c ****     bno055.bus_read = BNO055_I2C_bus_read;
 277              		.loc 1 538 22 is_stmt 0 view .LVU67
 278 0000 054B     		ldr	r3, .L20
 279 0002 064A     		ldr	r2, .L20+4
 280 0004 DA60     		str	r2, [r3, #12]
 539:Core/Src/bno055_support.c ****     bno055.delay_msec = BNO055_delay_msek;
 281              		.loc 1 539 5 is_stmt 1 view .LVU68
 539:Core/Src/bno055_support.c ****     bno055.delay_msec = BNO055_delay_msek;
 282              		.loc 1 539 21 is_stmt 0 view .LVU69
 283 0006 064A     		ldr	r2, .L20+8
 284 0008 1A61     		str	r2, [r3, #16]
 540:Core/Src/bno055_support.c ****     bno055.dev_addr = BNO055_I2C_ADDR1;
 285              		.loc 1 540 5 is_stmt 1 view .LVU70
 540:Core/Src/bno055_support.c ****     bno055.dev_addr = BNO055_I2C_ADDR1;
 286              		.loc 1 540 23 is_stmt 0 view .LVU71
 287 000a 064A     		ldr	r2, .L20+12
 288 000c 5A61     		str	r2, [r3, #20]
 541:Core/Src/bno055_support.c **** 
 289              		.loc 1 541 5 is_stmt 1 view .LVU72
 541:Core/Src/bno055_support.c **** 
 290              		.loc 1 541 21 is_stmt 0 view .LVU73
 291 000e 2822     		movs	r2, #40
 292 0010 5A72     		strb	r2, [r3, #9]
 543:Core/Src/bno055_support.c **** }
 293              		.loc 1 543 5 is_stmt 1 view .LVU74
 544:Core/Src/bno055_support.c **** 
 294              		.loc 1 544 1 is_stmt 0 view .LVU75
 295 0012 0020     		movs	r0, #0
 296 0014 7047     		bx	lr
 297              	.L21:
 298 0016 00BF     		.align	2
 299              	.L20:
 300 0018 00000000 		.word	bno055
 301 001c 00000000 		.word	BNO055_I2C_bus_write
 302 0020 00000000 		.word	BNO055_I2C_bus_read
 303 0024 00000000 		.word	BNO055_delay_msek
 304              		.cfi_endproc
 305              	.LFE124:
ARM GAS  /tmp/cc7jlMWm.s 			page 18


 307              		.section	.text.bno055_data_readout_template,"ax",%progbits
 308              		.align	1
 309              		.global	bno055_data_readout_template
 310              		.syntax unified
 311              		.thumb
 312              		.thumb_func
 314              	bno055_data_readout_template:
 315              	.LFB123:
 110:Core/Src/bno055_support.c ****     /* Variable used to return value of
 316              		.loc 1 110 1 is_stmt 1 view -0
 317              		.cfi_startproc
 318              		@ args = 0, pretend = 0, frame = 376
 319              		@ frame_needed = 0, uses_anonymous_args = 0
 320 0000 30B5     		push	{r4, r5, lr}
 321              		.cfi_def_cfa_offset 12
 322              		.cfi_offset 4, -12
 323              		.cfi_offset 5, -8
 324              		.cfi_offset 14, -4
 325 0002 DFB0     		sub	sp, sp, #380
 326              		.cfi_def_cfa_offset 392
 113:Core/Src/bno055_support.c **** 
 327              		.loc 1 113 5 view .LVU77
 328              	.LVL30:
 116:Core/Src/bno055_support.c **** 
 329              		.loc 1 116 5 view .LVU78
 120:Core/Src/bno055_support.c **** 
 330              		.loc 1 120 5 view .LVU79
 120:Core/Src/bno055_support.c **** 
 331              		.loc 1 120 9 is_stmt 0 view .LVU80
 332 0004 0024     		movs	r4, #0
 333 0006 ADF87641 		strh	r4, [sp, #374]	@ movhi
 123:Core/Src/bno055_support.c **** 
 334              		.loc 1 123 5 is_stmt 1 view .LVU81
 123:Core/Src/bno055_support.c **** 
 335              		.loc 1 123 9 is_stmt 0 view .LVU82
 336 000a ADF87441 		strh	r4, [sp, #372]	@ movhi
 126:Core/Src/bno055_support.c **** 
 337              		.loc 1 126 5 is_stmt 1 view .LVU83
 126:Core/Src/bno055_support.c **** 
 338              		.loc 1 126 9 is_stmt 0 view .LVU84
 339 000e ADF87241 		strh	r4, [sp, #370]	@ movhi
 129:Core/Src/bno055_support.c **** 
 340              		.loc 1 129 5 is_stmt 1 view .LVU85
 133:Core/Src/bno055_support.c **** 
 341              		.loc 1 133 5 view .LVU86
 133:Core/Src/bno055_support.c **** 
 342              		.loc 1 133 9 is_stmt 0 view .LVU87
 343 0012 ADF86A41 		strh	r4, [sp, #362]	@ movhi
 136:Core/Src/bno055_support.c **** 
 344              		.loc 1 136 5 is_stmt 1 view .LVU88
 136:Core/Src/bno055_support.c **** 
 345              		.loc 1 136 9 is_stmt 0 view .LVU89
 346 0016 ADF86841 		strh	r4, [sp, #360]	@ movhi
 139:Core/Src/bno055_support.c **** 
 347              		.loc 1 139 5 is_stmt 1 view .LVU90
 139:Core/Src/bno055_support.c **** 
 348              		.loc 1 139 9 is_stmt 0 view .LVU91
ARM GAS  /tmp/cc7jlMWm.s 			page 19


 349 001a ADF86641 		strh	r4, [sp, #358]	@ movhi
 142:Core/Src/bno055_support.c **** 
 350              		.loc 1 142 5 is_stmt 1 view .LVU92
 146:Core/Src/bno055_support.c **** 
 351              		.loc 1 146 5 view .LVU93
 146:Core/Src/bno055_support.c **** 
 352              		.loc 1 146 9 is_stmt 0 view .LVU94
 353 001e ADF85E41 		strh	r4, [sp, #350]	@ movhi
 149:Core/Src/bno055_support.c **** 
 354              		.loc 1 149 5 is_stmt 1 view .LVU95
 149:Core/Src/bno055_support.c **** 
 355              		.loc 1 149 9 is_stmt 0 view .LVU96
 356 0022 ADF85C41 		strh	r4, [sp, #348]	@ movhi
 152:Core/Src/bno055_support.c **** 
 357              		.loc 1 152 5 is_stmt 1 view .LVU97
 152:Core/Src/bno055_support.c **** 
 358              		.loc 1 152 9 is_stmt 0 view .LVU98
 359 0026 ADF85A41 		strh	r4, [sp, #346]	@ movhi
 155:Core/Src/bno055_support.c **** 
 360              		.loc 1 155 5 is_stmt 1 view .LVU99
 159:Core/Src/bno055_support.c **** 
 361              		.loc 1 159 5 view .LVU100
 159:Core/Src/bno055_support.c **** 
 362              		.loc 1 159 9 is_stmt 0 view .LVU101
 363 002a ADF85241 		strh	r4, [sp, #338]	@ movhi
 162:Core/Src/bno055_support.c **** 
 364              		.loc 1 162 5 is_stmt 1 view .LVU102
 162:Core/Src/bno055_support.c **** 
 365              		.loc 1 162 9 is_stmt 0 view .LVU103
 366 002e ADF85041 		strh	r4, [sp, #336]	@ movhi
 165:Core/Src/bno055_support.c **** 
 367              		.loc 1 165 5 is_stmt 1 view .LVU104
 165:Core/Src/bno055_support.c **** 
 368              		.loc 1 165 9 is_stmt 0 view .LVU105
 369 0032 ADF84E41 		strh	r4, [sp, #334]	@ movhi
 168:Core/Src/bno055_support.c **** 
 370              		.loc 1 168 5 is_stmt 1 view .LVU106
 172:Core/Src/bno055_support.c **** 
 371              		.loc 1 172 5 view .LVU107
 172:Core/Src/bno055_support.c **** 
 372              		.loc 1 172 9 is_stmt 0 view .LVU108
 373 0036 ADF84641 		strh	r4, [sp, #326]	@ movhi
 175:Core/Src/bno055_support.c **** 
 374              		.loc 1 175 5 is_stmt 1 view .LVU109
 175:Core/Src/bno055_support.c **** 
 375              		.loc 1 175 9 is_stmt 0 view .LVU110
 376 003a ADF84441 		strh	r4, [sp, #324]	@ movhi
 178:Core/Src/bno055_support.c **** 
 377              		.loc 1 178 5 is_stmt 1 view .LVU111
 178:Core/Src/bno055_support.c **** 
 378              		.loc 1 178 9 is_stmt 0 view .LVU112
 379 003e ADF84241 		strh	r4, [sp, #322]	@ movhi
 181:Core/Src/bno055_support.c **** 
 380              		.loc 1 181 5 is_stmt 1 view .LVU113
 181:Core/Src/bno055_support.c **** 
 381              		.loc 1 181 9 is_stmt 0 view .LVU114
 382 0042 ADF84041 		strh	r4, [sp, #320]	@ movhi
ARM GAS  /tmp/cc7jlMWm.s 			page 20


 184:Core/Src/bno055_support.c **** 
 383              		.loc 1 184 5 is_stmt 1 view .LVU115
 188:Core/Src/bno055_support.c **** 
 384              		.loc 1 188 5 view .LVU116
 188:Core/Src/bno055_support.c **** 
 385              		.loc 1 188 9 is_stmt 0 view .LVU117
 386 0046 ADF83641 		strh	r4, [sp, #310]	@ movhi
 191:Core/Src/bno055_support.c **** 
 387              		.loc 1 191 5 is_stmt 1 view .LVU118
 191:Core/Src/bno055_support.c **** 
 388              		.loc 1 191 9 is_stmt 0 view .LVU119
 389 004a ADF83441 		strh	r4, [sp, #308]	@ movhi
 194:Core/Src/bno055_support.c **** 
 390              		.loc 1 194 5 is_stmt 1 view .LVU120
 194:Core/Src/bno055_support.c **** 
 391              		.loc 1 194 9 is_stmt 0 view .LVU121
 392 004e ADF83241 		strh	r4, [sp, #306]	@ movhi
 197:Core/Src/bno055_support.c **** 
 393              		.loc 1 197 5 is_stmt 1 view .LVU122
 201:Core/Src/bno055_support.c **** 
 394              		.loc 1 201 5 view .LVU123
 201:Core/Src/bno055_support.c **** 
 395              		.loc 1 201 9 is_stmt 0 view .LVU124
 396 0052 ADF82A41 		strh	r4, [sp, #298]	@ movhi
 204:Core/Src/bno055_support.c **** 
 397              		.loc 1 204 5 is_stmt 1 view .LVU125
 204:Core/Src/bno055_support.c **** 
 398              		.loc 1 204 9 is_stmt 0 view .LVU126
 399 0056 ADF82841 		strh	r4, [sp, #296]	@ movhi
 207:Core/Src/bno055_support.c **** 
 400              		.loc 1 207 5 is_stmt 1 view .LVU127
 207:Core/Src/bno055_support.c **** 
 401              		.loc 1 207 9 is_stmt 0 view .LVU128
 402 005a ADF82641 		strh	r4, [sp, #294]	@ movhi
 210:Core/Src/bno055_support.c **** 
 403              		.loc 1 210 5 is_stmt 1 view .LVU129
 214:Core/Src/bno055_support.c **** 
 404              		.loc 1 214 5 view .LVU130
 214:Core/Src/bno055_support.c **** 
 405              		.loc 1 214 12 is_stmt 0 view .LVU131
 406 005e 0022     		movs	r2, #0
 407 0060 0023     		movs	r3, #0
 408 0062 CDE94623 		strd	r2, [sp, #280]
 217:Core/Src/bno055_support.c **** 
 409              		.loc 1 217 5 is_stmt 1 view .LVU132
 217:Core/Src/bno055_support.c **** 
 410              		.loc 1 217 12 is_stmt 0 view .LVU133
 411 0066 CDE94423 		strd	r2, [sp, #272]
 220:Core/Src/bno055_support.c **** 
 412              		.loc 1 220 5 is_stmt 1 view .LVU134
 220:Core/Src/bno055_support.c **** 
 413              		.loc 1 220 12 is_stmt 0 view .LVU135
 414 006a CDE94223 		strd	r2, [sp, #264]
 223:Core/Src/bno055_support.c **** 
 415              		.loc 1 223 5 is_stmt 1 view .LVU136
 227:Core/Src/bno055_support.c **** 
 416              		.loc 1 227 5 view .LVU137
ARM GAS  /tmp/cc7jlMWm.s 			page 21


 227:Core/Src/bno055_support.c **** 
 417              		.loc 1 227 12 is_stmt 0 view .LVU138
 418 006e CDE93A23 		strd	r2, [sp, #232]
 230:Core/Src/bno055_support.c **** 
 419              		.loc 1 230 5 is_stmt 1 view .LVU139
 230:Core/Src/bno055_support.c **** 
 420              		.loc 1 230 12 is_stmt 0 view .LVU140
 421 0072 CDE93823 		strd	r2, [sp, #224]
 233:Core/Src/bno055_support.c **** 
 422              		.loc 1 233 5 is_stmt 1 view .LVU141
 233:Core/Src/bno055_support.c **** 
 423              		.loc 1 233 12 is_stmt 0 view .LVU142
 424 0076 CDE93623 		strd	r2, [sp, #216]
 236:Core/Src/bno055_support.c **** 
 425              		.loc 1 236 5 is_stmt 1 view .LVU143
 240:Core/Src/bno055_support.c **** 
 426              		.loc 1 240 5 view .LVU144
 240:Core/Src/bno055_support.c **** 
 427              		.loc 1 240 12 is_stmt 0 view .LVU145
 428 007a CDE92E23 		strd	r2, [sp, #184]
 243:Core/Src/bno055_support.c **** 
 429              		.loc 1 243 5 is_stmt 1 view .LVU146
 243:Core/Src/bno055_support.c **** 
 430              		.loc 1 243 12 is_stmt 0 view .LVU147
 431 007e CDE92C23 		strd	r2, [sp, #176]
 246:Core/Src/bno055_support.c **** 
 432              		.loc 1 246 5 is_stmt 1 view .LVU148
 246:Core/Src/bno055_support.c **** 
 433              		.loc 1 246 12 is_stmt 0 view .LVU149
 434 0082 CDE92A23 		strd	r2, [sp, #168]
 249:Core/Src/bno055_support.c **** 
 435              		.loc 1 249 5 is_stmt 1 view .LVU150
 255:Core/Src/bno055_support.c **** 
 436              		.loc 1 255 5 view .LVU151
 255:Core/Src/bno055_support.c **** 
 437              		.loc 1 255 12 is_stmt 0 view .LVU152
 438 0086 CDE92223 		strd	r2, [sp, #136]
 259:Core/Src/bno055_support.c **** 
 439              		.loc 1 259 5 is_stmt 1 view .LVU153
 259:Core/Src/bno055_support.c **** 
 440              		.loc 1 259 12 is_stmt 0 view .LVU154
 441 008a CDE92023 		strd	r2, [sp, #128]
 263:Core/Src/bno055_support.c **** 
 442              		.loc 1 263 5 is_stmt 1 view .LVU155
 263:Core/Src/bno055_support.c **** 
 443              		.loc 1 263 12 is_stmt 0 view .LVU156
 444 008e CDE91E23 		strd	r2, [sp, #120]
 267:Core/Src/bno055_support.c **** 
 445              		.loc 1 267 5 is_stmt 1 view .LVU157
 271:Core/Src/bno055_support.c **** 
 446              		.loc 1 271 5 view .LVU158
 271:Core/Src/bno055_support.c **** 
 447              		.loc 1 271 12 is_stmt 0 view .LVU159
 448 0092 CDE91623 		strd	r2, [sp, #88]
 274:Core/Src/bno055_support.c **** 
 449              		.loc 1 274 5 is_stmt 1 view .LVU160
 274:Core/Src/bno055_support.c **** 
ARM GAS  /tmp/cc7jlMWm.s 			page 22


 450              		.loc 1 274 12 is_stmt 0 view .LVU161
 451 0096 CDE91423 		strd	r2, [sp, #80]
 277:Core/Src/bno055_support.c **** 
 452              		.loc 1 277 5 is_stmt 1 view .LVU162
 277:Core/Src/bno055_support.c **** 
 453              		.loc 1 277 12 is_stmt 0 view .LVU163
 454 009a CDE91223 		strd	r2, [sp, #72]
 280:Core/Src/bno055_support.c **** 
 455              		.loc 1 280 5 is_stmt 1 view .LVU164
 284:Core/Src/bno055_support.c **** 
 456              		.loc 1 284 5 view .LVU165
 284:Core/Src/bno055_support.c **** 
 457              		.loc 1 284 12 is_stmt 0 view .LVU166
 458 009e CDE90A23 		strd	r2, [sp, #40]
 287:Core/Src/bno055_support.c **** 
 459              		.loc 1 287 5 is_stmt 1 view .LVU167
 287:Core/Src/bno055_support.c **** 
 460              		.loc 1 287 12 is_stmt 0 view .LVU168
 461 00a2 CDE90823 		strd	r2, [sp, #32]
 290:Core/Src/bno055_support.c **** 
 462              		.loc 1 290 5 is_stmt 1 view .LVU169
 290:Core/Src/bno055_support.c **** 
 463              		.loc 1 290 12 is_stmt 0 view .LVU170
 464 00a6 CDE90623 		strd	r2, [sp, #24]
 293:Core/Src/bno055_support.c **** 
 465              		.loc 1 293 5 is_stmt 1 view .LVU171
 302:Core/Src/bno055_support.c **** #endif
 466              		.loc 1 302 5 view .LVU172
 467 00aa FFF7FEFF 		bl	I2C_routine
 468              	.LVL31:
 319:Core/Src/bno055_support.c **** 
 469              		.loc 1 319 5 view .LVU173
 319:Core/Src/bno055_support.c **** 
 470              		.loc 1 319 14 is_stmt 0 view .LVU174
 471 00ae 9448     		ldr	r0, .L24
 472 00b0 FFF7FEFF 		bl	bno055_init
 473              	.LVL32:
 474 00b4 0546     		mov	r5, r0
 475              	.LVL33:
 327:Core/Src/bno055_support.c **** 
 476              		.loc 1 327 5 is_stmt 1 view .LVU175
 330:Core/Src/bno055_support.c **** 
 477              		.loc 1 330 5 view .LVU176
 330:Core/Src/bno055_support.c **** 
 478              		.loc 1 330 15 is_stmt 0 view .LVU177
 479 00b6 2046     		mov	r0, r4
 480              	.LVL34:
 330:Core/Src/bno055_support.c **** 
 481              		.loc 1 330 15 view .LVU178
 482 00b8 FFF7FEFF 		bl	bno055_set_power_mode
 483              	.LVL35:
 330:Core/Src/bno055_support.c **** 
 484              		.loc 1 330 12 view .LVU179
 485 00bc 4419     		adds	r4, r0, r5
 486              	.LVL36:
 366:Core/Src/bno055_support.c **** 
 487              		.loc 1 366 5 is_stmt 1 view .LVU180
ARM GAS  /tmp/cc7jlMWm.s 			page 23


 366:Core/Src/bno055_support.c **** 
 488              		.loc 1 366 15 is_stmt 0 view .LVU181
 489 00be 0720     		movs	r0, #7
 490 00c0 FFF7FEFF 		bl	bno055_set_operation_mode
 491              	.LVL37:
 366:Core/Src/bno055_support.c **** 
 492              		.loc 1 366 12 view .LVU182
 493 00c4 0444     		add	r4, r4, r0
 494              	.LVL38:
 371:Core/Src/bno055_support.c ****     comres += bno055_read_accel_y(&accel_datay);
 495              		.loc 1 371 5 is_stmt 1 view .LVU183
 371:Core/Src/bno055_support.c ****     comres += bno055_read_accel_y(&accel_datay);
 496              		.loc 1 371 15 is_stmt 0 view .LVU184
 497 00c6 0DF5BB70 		add	r0, sp, #374
 498 00ca FFF7FEFF 		bl	bno055_read_accel_x
 499              	.LVL39:
 371:Core/Src/bno055_support.c ****     comres += bno055_read_accel_y(&accel_datay);
 500              		.loc 1 371 12 view .LVU185
 501 00ce 0444     		add	r4, r4, r0
 502              	.LVL40:
 372:Core/Src/bno055_support.c ****     comres += bno055_read_accel_z(&accel_dataz);
 503              		.loc 1 372 5 is_stmt 1 view .LVU186
 372:Core/Src/bno055_support.c ****     comres += bno055_read_accel_z(&accel_dataz);
 504              		.loc 1 372 15 is_stmt 0 view .LVU187
 505 00d0 5DA8     		add	r0, sp, #372
 506 00d2 FFF7FEFF 		bl	bno055_read_accel_y
 507              	.LVL41:
 372:Core/Src/bno055_support.c ****     comres += bno055_read_accel_z(&accel_dataz);
 508              		.loc 1 372 12 view .LVU188
 509 00d6 0444     		add	r4, r4, r0
 510              	.LVL42:
 373:Core/Src/bno055_support.c ****     comres += bno055_read_accel_xyz(&accel_xyz);
 511              		.loc 1 373 5 is_stmt 1 view .LVU189
 373:Core/Src/bno055_support.c ****     comres += bno055_read_accel_xyz(&accel_xyz);
 512              		.loc 1 373 15 is_stmt 0 view .LVU190
 513 00d8 0DF5B970 		add	r0, sp, #370
 514 00dc FFF7FEFF 		bl	bno055_read_accel_z
 515              	.LVL43:
 373:Core/Src/bno055_support.c ****     comres += bno055_read_accel_xyz(&accel_xyz);
 516              		.loc 1 373 12 view .LVU191
 517 00e0 0444     		add	r4, r4, r0
 518              	.LVL44:
 374:Core/Src/bno055_support.c **** 
 519              		.loc 1 374 5 is_stmt 1 view .LVU192
 374:Core/Src/bno055_support.c **** 
 520              		.loc 1 374 15 is_stmt 0 view .LVU193
 521 00e2 5BA8     		add	r0, sp, #364
 522 00e4 FFF7FEFF 		bl	bno055_read_accel_xyz
 523              	.LVL45:
 374:Core/Src/bno055_support.c **** 
 524              		.loc 1 374 12 view .LVU194
 525 00e8 0444     		add	r4, r4, r0
 526              	.LVL46:
 379:Core/Src/bno055_support.c ****     comres += bno055_read_mag_y(&mag_datay);
 527              		.loc 1 379 5 is_stmt 1 view .LVU195
 379:Core/Src/bno055_support.c ****     comres += bno055_read_mag_y(&mag_datay);
 528              		.loc 1 379 15 is_stmt 0 view .LVU196
ARM GAS  /tmp/cc7jlMWm.s 			page 24


 529 00ea 0DF5B570 		add	r0, sp, #362
 530 00ee FFF7FEFF 		bl	bno055_read_mag_x
 531              	.LVL47:
 379:Core/Src/bno055_support.c ****     comres += bno055_read_mag_y(&mag_datay);
 532              		.loc 1 379 12 view .LVU197
 533 00f2 0444     		add	r4, r4, r0
 534              	.LVL48:
 380:Core/Src/bno055_support.c ****     comres += bno055_read_mag_z(&mag_dataz);
 535              		.loc 1 380 5 is_stmt 1 view .LVU198
 380:Core/Src/bno055_support.c ****     comres += bno055_read_mag_z(&mag_dataz);
 536              		.loc 1 380 15 is_stmt 0 view .LVU199
 537 00f4 5AA8     		add	r0, sp, #360
 538 00f6 FFF7FEFF 		bl	bno055_read_mag_y
 539              	.LVL49:
 380:Core/Src/bno055_support.c ****     comres += bno055_read_mag_z(&mag_dataz);
 540              		.loc 1 380 12 view .LVU200
 541 00fa 0444     		add	r4, r4, r0
 542              	.LVL50:
 381:Core/Src/bno055_support.c ****     comres += bno055_read_mag_xyz(&mag_xyz);
 543              		.loc 1 381 5 is_stmt 1 view .LVU201
 381:Core/Src/bno055_support.c ****     comres += bno055_read_mag_xyz(&mag_xyz);
 544              		.loc 1 381 15 is_stmt 0 view .LVU202
 545 00fc 0DF5B370 		add	r0, sp, #358
 546 0100 FFF7FEFF 		bl	bno055_read_mag_z
 547              	.LVL51:
 381:Core/Src/bno055_support.c ****     comres += bno055_read_mag_xyz(&mag_xyz);
 548              		.loc 1 381 12 view .LVU203
 549 0104 0444     		add	r4, r4, r0
 550              	.LVL52:
 382:Core/Src/bno055_support.c **** 
 551              		.loc 1 382 5 is_stmt 1 view .LVU204
 382:Core/Src/bno055_support.c **** 
 552              		.loc 1 382 15 is_stmt 0 view .LVU205
 553 0106 58A8     		add	r0, sp, #352
 554 0108 FFF7FEFF 		bl	bno055_read_mag_xyz
 555              	.LVL53:
 382:Core/Src/bno055_support.c **** 
 556              		.loc 1 382 12 view .LVU206
 557 010c 0444     		add	r4, r4, r0
 558              	.LVL54:
 387:Core/Src/bno055_support.c ****     comres += bno055_read_gyro_y(&gyro_datay);
 559              		.loc 1 387 5 is_stmt 1 view .LVU207
 387:Core/Src/bno055_support.c ****     comres += bno055_read_gyro_y(&gyro_datay);
 560              		.loc 1 387 15 is_stmt 0 view .LVU208
 561 010e 0DF5AF70 		add	r0, sp, #350
 562 0112 FFF7FEFF 		bl	bno055_read_gyro_x
 563              	.LVL55:
 387:Core/Src/bno055_support.c ****     comres += bno055_read_gyro_y(&gyro_datay);
 564              		.loc 1 387 12 view .LVU209
 565 0116 0444     		add	r4, r4, r0
 566              	.LVL56:
 388:Core/Src/bno055_support.c ****     comres += bno055_read_gyro_z(&gyro_dataz);
 567              		.loc 1 388 5 is_stmt 1 view .LVU210
 388:Core/Src/bno055_support.c ****     comres += bno055_read_gyro_z(&gyro_dataz);
 568              		.loc 1 388 15 is_stmt 0 view .LVU211
 569 0118 57A8     		add	r0, sp, #348
 570 011a FFF7FEFF 		bl	bno055_read_gyro_y
ARM GAS  /tmp/cc7jlMWm.s 			page 25


 571              	.LVL57:
 388:Core/Src/bno055_support.c ****     comres += bno055_read_gyro_z(&gyro_dataz);
 572              		.loc 1 388 12 view .LVU212
 573 011e 0444     		add	r4, r4, r0
 574              	.LVL58:
 389:Core/Src/bno055_support.c ****     comres += bno055_read_gyro_xyz(&gyro_xyz);
 575              		.loc 1 389 5 is_stmt 1 view .LVU213
 389:Core/Src/bno055_support.c ****     comres += bno055_read_gyro_xyz(&gyro_xyz);
 576              		.loc 1 389 15 is_stmt 0 view .LVU214
 577 0120 0DF5AD70 		add	r0, sp, #346
 578 0124 FFF7FEFF 		bl	bno055_read_gyro_z
 579              	.LVL59:
 389:Core/Src/bno055_support.c ****     comres += bno055_read_gyro_xyz(&gyro_xyz);
 580              		.loc 1 389 12 view .LVU215
 581 0128 0444     		add	r4, r4, r0
 582              	.LVL60:
 390:Core/Src/bno055_support.c **** 
 583              		.loc 1 390 5 is_stmt 1 view .LVU216
 390:Core/Src/bno055_support.c **** 
 584              		.loc 1 390 15 is_stmt 0 view .LVU217
 585 012a 55A8     		add	r0, sp, #340
 586 012c FFF7FEFF 		bl	bno055_read_gyro_xyz
 587              	.LVL61:
 390:Core/Src/bno055_support.c **** 
 588              		.loc 1 390 12 view .LVU218
 589 0130 0444     		add	r4, r4, r0
 590              	.LVL62:
 409:Core/Src/bno055_support.c **** 
 591              		.loc 1 409 5 is_stmt 1 view .LVU219
 409:Core/Src/bno055_support.c **** 
 592              		.loc 1 409 15 is_stmt 0 view .LVU220
 593 0132 0C20     		movs	r0, #12
 594 0134 FFF7FEFF 		bl	bno055_set_operation_mode
 595              	.LVL63:
 409:Core/Src/bno055_support.c **** 
 596              		.loc 1 409 12 view .LVU221
 597 0138 0444     		add	r4, r4, r0
 598              	.LVL64:
 414:Core/Src/bno055_support.c ****     comres += bno055_read_euler_r(&euler_data_r);
 599              		.loc 1 414 5 is_stmt 1 view .LVU222
 414:Core/Src/bno055_support.c ****     comres += bno055_read_euler_r(&euler_data_r);
 600              		.loc 1 414 15 is_stmt 0 view .LVU223
 601 013a 0DF5A970 		add	r0, sp, #338
 602 013e FFF7FEFF 		bl	bno055_read_euler_h
 603              	.LVL65:
 414:Core/Src/bno055_support.c ****     comres += bno055_read_euler_r(&euler_data_r);
 604              		.loc 1 414 12 view .LVU224
 605 0142 0444     		add	r4, r4, r0
 606              	.LVL66:
 415:Core/Src/bno055_support.c ****     comres += bno055_read_euler_p(&euler_data_p);
 607              		.loc 1 415 5 is_stmt 1 view .LVU225
 415:Core/Src/bno055_support.c ****     comres += bno055_read_euler_p(&euler_data_p);
 608              		.loc 1 415 15 is_stmt 0 view .LVU226
 609 0144 54A8     		add	r0, sp, #336
 610 0146 FFF7FEFF 		bl	bno055_read_euler_r
 611              	.LVL67:
 415:Core/Src/bno055_support.c ****     comres += bno055_read_euler_p(&euler_data_p);
ARM GAS  /tmp/cc7jlMWm.s 			page 26


 612              		.loc 1 415 12 view .LVU227
 613 014a 0444     		add	r4, r4, r0
 614              	.LVL68:
 416:Core/Src/bno055_support.c ****     comres += bno055_read_euler_hrp(&euler_hrp);
 615              		.loc 1 416 5 is_stmt 1 view .LVU228
 416:Core/Src/bno055_support.c ****     comres += bno055_read_euler_hrp(&euler_hrp);
 616              		.loc 1 416 15 is_stmt 0 view .LVU229
 617 014c 0DF5A770 		add	r0, sp, #334
 618 0150 FFF7FEFF 		bl	bno055_read_euler_p
 619              	.LVL69:
 416:Core/Src/bno055_support.c ****     comres += bno055_read_euler_hrp(&euler_hrp);
 620              		.loc 1 416 12 view .LVU230
 621 0154 0444     		add	r4, r4, r0
 622              	.LVL70:
 417:Core/Src/bno055_support.c **** 
 623              		.loc 1 417 5 is_stmt 1 view .LVU231
 417:Core/Src/bno055_support.c **** 
 624              		.loc 1 417 15 is_stmt 0 view .LVU232
 625 0156 52A8     		add	r0, sp, #328
 626 0158 FFF7FEFF 		bl	bno055_read_euler_hrp
 627              	.LVL71:
 417:Core/Src/bno055_support.c **** 
 628              		.loc 1 417 12 view .LVU233
 629 015c 0444     		add	r4, r4, r0
 630              	.LVL72:
 422:Core/Src/bno055_support.c ****     comres += bno055_read_quaternion_x(&quaternion_data_x);
 631              		.loc 1 422 5 is_stmt 1 view .LVU234
 422:Core/Src/bno055_support.c ****     comres += bno055_read_quaternion_x(&quaternion_data_x);
 632              		.loc 1 422 15 is_stmt 0 view .LVU235
 633 015e 0DF5A370 		add	r0, sp, #326
 634 0162 FFF7FEFF 		bl	bno055_read_quaternion_w
 635              	.LVL73:
 422:Core/Src/bno055_support.c ****     comres += bno055_read_quaternion_x(&quaternion_data_x);
 636              		.loc 1 422 12 view .LVU236
 637 0166 0444     		add	r4, r4, r0
 638              	.LVL74:
 423:Core/Src/bno055_support.c ****     comres += bno055_read_quaternion_y(&quaternion_data_y);
 639              		.loc 1 423 5 is_stmt 1 view .LVU237
 423:Core/Src/bno055_support.c ****     comres += bno055_read_quaternion_y(&quaternion_data_y);
 640              		.loc 1 423 15 is_stmt 0 view .LVU238
 641 0168 51A8     		add	r0, sp, #324
 642 016a FFF7FEFF 		bl	bno055_read_quaternion_x
 643              	.LVL75:
 423:Core/Src/bno055_support.c ****     comres += bno055_read_quaternion_y(&quaternion_data_y);
 644              		.loc 1 423 12 view .LVU239
 645 016e 0444     		add	r4, r4, r0
 646              	.LVL76:
 424:Core/Src/bno055_support.c ****     comres += bno055_read_quaternion_z(&quaternion_data_z);
 647              		.loc 1 424 5 is_stmt 1 view .LVU240
 424:Core/Src/bno055_support.c ****     comres += bno055_read_quaternion_z(&quaternion_data_z);
 648              		.loc 1 424 15 is_stmt 0 view .LVU241
 649 0170 0DF5A170 		add	r0, sp, #322
 650 0174 FFF7FEFF 		bl	bno055_read_quaternion_y
 651              	.LVL77:
 424:Core/Src/bno055_support.c ****     comres += bno055_read_quaternion_z(&quaternion_data_z);
 652              		.loc 1 424 12 view .LVU242
 653 0178 0444     		add	r4, r4, r0
ARM GAS  /tmp/cc7jlMWm.s 			page 27


 654              	.LVL78:
 425:Core/Src/bno055_support.c ****     comres += bno055_read_quaternion_wxyz(&quaternion_wxyz);
 655              		.loc 1 425 5 is_stmt 1 view .LVU243
 425:Core/Src/bno055_support.c ****     comres += bno055_read_quaternion_wxyz(&quaternion_wxyz);
 656              		.loc 1 425 15 is_stmt 0 view .LVU244
 657 017a 50A8     		add	r0, sp, #320
 658 017c FFF7FEFF 		bl	bno055_read_quaternion_z
 659              	.LVL79:
 425:Core/Src/bno055_support.c ****     comres += bno055_read_quaternion_wxyz(&quaternion_wxyz);
 660              		.loc 1 425 12 view .LVU245
 661 0180 0444     		add	r4, r4, r0
 662              	.LVL80:
 426:Core/Src/bno055_support.c **** 
 663              		.loc 1 426 5 is_stmt 1 view .LVU246
 426:Core/Src/bno055_support.c **** 
 664              		.loc 1 426 15 is_stmt 0 view .LVU247
 665 0182 4EA8     		add	r0, sp, #312
 666 0184 FFF7FEFF 		bl	bno055_read_quaternion_wxyz
 667              	.LVL81:
 426:Core/Src/bno055_support.c **** 
 668              		.loc 1 426 12 view .LVU248
 669 0188 0444     		add	r4, r4, r0
 670              	.LVL82:
 431:Core/Src/bno055_support.c ****     comres += bno055_read_linear_accel_y(&linear_accel_data_y);
 671              		.loc 1 431 5 is_stmt 1 view .LVU249
 431:Core/Src/bno055_support.c ****     comres += bno055_read_linear_accel_y(&linear_accel_data_y);
 672              		.loc 1 431 15 is_stmt 0 view .LVU250
 673 018a 0DF59B70 		add	r0, sp, #310
 674 018e FFF7FEFF 		bl	bno055_read_linear_accel_x
 675              	.LVL83:
 431:Core/Src/bno055_support.c ****     comres += bno055_read_linear_accel_y(&linear_accel_data_y);
 676              		.loc 1 431 12 view .LVU251
 677 0192 0444     		add	r4, r4, r0
 678              	.LVL84:
 432:Core/Src/bno055_support.c ****     comres += bno055_read_linear_accel_z(&linear_accel_data_z);
 679              		.loc 1 432 5 is_stmt 1 view .LVU252
 432:Core/Src/bno055_support.c ****     comres += bno055_read_linear_accel_z(&linear_accel_data_z);
 680              		.loc 1 432 15 is_stmt 0 view .LVU253
 681 0194 4DA8     		add	r0, sp, #308
 682 0196 FFF7FEFF 		bl	bno055_read_linear_accel_y
 683              	.LVL85:
 432:Core/Src/bno055_support.c ****     comres += bno055_read_linear_accel_z(&linear_accel_data_z);
 684              		.loc 1 432 12 view .LVU254
 685 019a 0444     		add	r4, r4, r0
 686              	.LVL86:
 433:Core/Src/bno055_support.c ****     comres += bno055_read_linear_accel_xyz(&linear_acce_xyz);
 687              		.loc 1 433 5 is_stmt 1 view .LVU255
 433:Core/Src/bno055_support.c ****     comres += bno055_read_linear_accel_xyz(&linear_acce_xyz);
 688              		.loc 1 433 15 is_stmt 0 view .LVU256
 689 019c 0DF59970 		add	r0, sp, #306
 690 01a0 FFF7FEFF 		bl	bno055_read_linear_accel_z
 691              	.LVL87:
 433:Core/Src/bno055_support.c ****     comres += bno055_read_linear_accel_xyz(&linear_acce_xyz);
 692              		.loc 1 433 12 view .LVU257
 693 01a4 0444     		add	r4, r4, r0
 694              	.LVL88:
 434:Core/Src/bno055_support.c **** 
ARM GAS  /tmp/cc7jlMWm.s 			page 28


 695              		.loc 1 434 5 is_stmt 1 view .LVU258
 434:Core/Src/bno055_support.c **** 
 696              		.loc 1 434 15 is_stmt 0 view .LVU259
 697 01a6 4BA8     		add	r0, sp, #300
 698 01a8 FFF7FEFF 		bl	bno055_read_linear_accel_xyz
 699              	.LVL89:
 434:Core/Src/bno055_support.c **** 
 700              		.loc 1 434 12 view .LVU260
 701 01ac 0444     		add	r4, r4, r0
 702              	.LVL90:
 439:Core/Src/bno055_support.c ****     comres += bno055_read_gravity_y(&gravity_data_y);
 703              		.loc 1 439 5 is_stmt 1 view .LVU261
 439:Core/Src/bno055_support.c ****     comres += bno055_read_gravity_y(&gravity_data_y);
 704              		.loc 1 439 15 is_stmt 0 view .LVU262
 705 01ae 0DF59570 		add	r0, sp, #298
 706 01b2 FFF7FEFF 		bl	bno055_read_gravity_x
 707              	.LVL91:
 439:Core/Src/bno055_support.c ****     comres += bno055_read_gravity_y(&gravity_data_y);
 708              		.loc 1 439 12 view .LVU263
 709 01b6 0444     		add	r4, r4, r0
 710              	.LVL92:
 440:Core/Src/bno055_support.c ****     comres += bno055_read_gravity_z(&gravity_data_z);
 711              		.loc 1 440 5 is_stmt 1 view .LVU264
 440:Core/Src/bno055_support.c ****     comres += bno055_read_gravity_z(&gravity_data_z);
 712              		.loc 1 440 15 is_stmt 0 view .LVU265
 713 01b8 4AA8     		add	r0, sp, #296
 714 01ba FFF7FEFF 		bl	bno055_read_gravity_y
 715              	.LVL93:
 440:Core/Src/bno055_support.c ****     comres += bno055_read_gravity_z(&gravity_data_z);
 716              		.loc 1 440 12 view .LVU266
 717 01be 0444     		add	r4, r4, r0
 718              	.LVL94:
 441:Core/Src/bno055_support.c ****     comres += bno055_read_gravity_xyz(&gravity_xyz);
 719              		.loc 1 441 5 is_stmt 1 view .LVU267
 441:Core/Src/bno055_support.c ****     comres += bno055_read_gravity_xyz(&gravity_xyz);
 720              		.loc 1 441 15 is_stmt 0 view .LVU268
 721 01c0 0DF59370 		add	r0, sp, #294
 722 01c4 FFF7FEFF 		bl	bno055_read_gravity_z
 723              	.LVL95:
 441:Core/Src/bno055_support.c ****     comres += bno055_read_gravity_xyz(&gravity_xyz);
 724              		.loc 1 441 12 view .LVU269
 725 01c8 0444     		add	r4, r4, r0
 726              	.LVL96:
 442:Core/Src/bno055_support.c **** 
 727              		.loc 1 442 5 is_stmt 1 view .LVU270
 442:Core/Src/bno055_support.c **** 
 728              		.loc 1 442 15 is_stmt 0 view .LVU271
 729 01ca 48A8     		add	r0, sp, #288
 730 01cc FFF7FEFF 		bl	bno055_read_gravity_xyz
 731              	.LVL97:
 442:Core/Src/bno055_support.c **** 
 732              		.loc 1 442 12 view .LVU272
 733 01d0 0444     		add	r4, r4, r0
 734              	.LVL98:
 449:Core/Src/bno055_support.c ****     comres += bno055_convert_double_accel_x_mg(&d_accel_datax);
 735              		.loc 1 449 5 is_stmt 1 view .LVU273
 449:Core/Src/bno055_support.c ****     comres += bno055_convert_double_accel_x_mg(&d_accel_datax);
ARM GAS  /tmp/cc7jlMWm.s 			page 29


 736              		.loc 1 449 15 is_stmt 0 view .LVU274
 737 01d2 46A8     		add	r0, sp, #280
 738 01d4 FFF7FEFF 		bl	bno055_convert_double_accel_x_msq
 739              	.LVL99:
 449:Core/Src/bno055_support.c ****     comres += bno055_convert_double_accel_x_mg(&d_accel_datax);
 740              		.loc 1 449 12 view .LVU275
 741 01d8 0444     		add	r4, r4, r0
 742              	.LVL100:
 450:Core/Src/bno055_support.c ****     comres += bno055_convert_double_accel_y_msq(&d_accel_datay);
 743              		.loc 1 450 5 is_stmt 1 view .LVU276
 450:Core/Src/bno055_support.c ****     comres += bno055_convert_double_accel_y_msq(&d_accel_datay);
 744              		.loc 1 450 15 is_stmt 0 view .LVU277
 745 01da 46A8     		add	r0, sp, #280
 746 01dc FFF7FEFF 		bl	bno055_convert_double_accel_x_mg
 747              	.LVL101:
 450:Core/Src/bno055_support.c ****     comres += bno055_convert_double_accel_y_msq(&d_accel_datay);
 748              		.loc 1 450 12 view .LVU278
 749 01e0 0444     		add	r4, r4, r0
 750              	.LVL102:
 451:Core/Src/bno055_support.c ****     comres += bno055_convert_double_accel_y_mg(&d_accel_datay);
 751              		.loc 1 451 5 is_stmt 1 view .LVU279
 451:Core/Src/bno055_support.c ****     comres += bno055_convert_double_accel_y_mg(&d_accel_datay);
 752              		.loc 1 451 15 is_stmt 0 view .LVU280
 753 01e2 44A8     		add	r0, sp, #272
 754 01e4 FFF7FEFF 		bl	bno055_convert_double_accel_y_msq
 755              	.LVL103:
 451:Core/Src/bno055_support.c ****     comres += bno055_convert_double_accel_y_mg(&d_accel_datay);
 756              		.loc 1 451 12 view .LVU281
 757 01e8 0444     		add	r4, r4, r0
 758              	.LVL104:
 452:Core/Src/bno055_support.c ****     comres += bno055_convert_double_accel_z_msq(&d_accel_dataz);
 759              		.loc 1 452 5 is_stmt 1 view .LVU282
 452:Core/Src/bno055_support.c ****     comres += bno055_convert_double_accel_z_msq(&d_accel_dataz);
 760              		.loc 1 452 15 is_stmt 0 view .LVU283
 761 01ea 44A8     		add	r0, sp, #272
 762 01ec FFF7FEFF 		bl	bno055_convert_double_accel_y_mg
 763              	.LVL105:
 452:Core/Src/bno055_support.c ****     comres += bno055_convert_double_accel_z_msq(&d_accel_dataz);
 764              		.loc 1 452 12 view .LVU284
 765 01f0 0444     		add	r4, r4, r0
 766              	.LVL106:
 453:Core/Src/bno055_support.c ****     comres += bno055_convert_double_accel_z_mg(&d_accel_dataz);
 767              		.loc 1 453 5 is_stmt 1 view .LVU285
 453:Core/Src/bno055_support.c ****     comres += bno055_convert_double_accel_z_mg(&d_accel_dataz);
 768              		.loc 1 453 15 is_stmt 0 view .LVU286
 769 01f2 42A8     		add	r0, sp, #264
 770 01f4 FFF7FEFF 		bl	bno055_convert_double_accel_z_msq
 771              	.LVL107:
 453:Core/Src/bno055_support.c ****     comres += bno055_convert_double_accel_z_mg(&d_accel_dataz);
 772              		.loc 1 453 12 view .LVU287
 773 01f8 0444     		add	r4, r4, r0
 774              	.LVL108:
 454:Core/Src/bno055_support.c ****     comres += bno055_convert_double_accel_xyz_msq(&d_accel_xyz);
 775              		.loc 1 454 5 is_stmt 1 view .LVU288
 454:Core/Src/bno055_support.c ****     comres += bno055_convert_double_accel_xyz_msq(&d_accel_xyz);
 776              		.loc 1 454 15 is_stmt 0 view .LVU289
 777 01fa 42A8     		add	r0, sp, #264
ARM GAS  /tmp/cc7jlMWm.s 			page 30


 778 01fc FFF7FEFF 		bl	bno055_convert_double_accel_z_mg
 779              	.LVL109:
 454:Core/Src/bno055_support.c ****     comres += bno055_convert_double_accel_xyz_msq(&d_accel_xyz);
 780              		.loc 1 454 12 view .LVU290
 781 0200 0444     		add	r4, r4, r0
 782              	.LVL110:
 455:Core/Src/bno055_support.c ****     comres += bno055_convert_double_accel_xyz_mg(&d_accel_xyz);
 783              		.loc 1 455 5 is_stmt 1 view .LVU291
 455:Core/Src/bno055_support.c ****     comres += bno055_convert_double_accel_xyz_mg(&d_accel_xyz);
 784              		.loc 1 455 15 is_stmt 0 view .LVU292
 785 0202 3CA8     		add	r0, sp, #240
 786 0204 FFF7FEFF 		bl	bno055_convert_double_accel_xyz_msq
 787              	.LVL111:
 455:Core/Src/bno055_support.c ****     comres += bno055_convert_double_accel_xyz_mg(&d_accel_xyz);
 788              		.loc 1 455 12 view .LVU293
 789 0208 0444     		add	r4, r4, r0
 790              	.LVL112:
 456:Core/Src/bno055_support.c **** 
 791              		.loc 1 456 5 is_stmt 1 view .LVU294
 456:Core/Src/bno055_support.c **** 
 792              		.loc 1 456 15 is_stmt 0 view .LVU295
 793 020a 3CA8     		add	r0, sp, #240
 794 020c FFF7FEFF 		bl	bno055_convert_double_accel_xyz_mg
 795              	.LVL113:
 456:Core/Src/bno055_support.c **** 
 796              		.loc 1 456 12 view .LVU296
 797 0210 0444     		add	r4, r4, r0
 798              	.LVL114:
 460:Core/Src/bno055_support.c ****     comres += bno055_convert_double_mag_y_uT(&d_mag_datay);
 799              		.loc 1 460 5 is_stmt 1 view .LVU297
 460:Core/Src/bno055_support.c ****     comres += bno055_convert_double_mag_y_uT(&d_mag_datay);
 800              		.loc 1 460 15 is_stmt 0 view .LVU298
 801 0212 3AA8     		add	r0, sp, #232
 802 0214 FFF7FEFF 		bl	bno055_convert_double_mag_x_uT
 803              	.LVL115:
 460:Core/Src/bno055_support.c ****     comres += bno055_convert_double_mag_y_uT(&d_mag_datay);
 804              		.loc 1 460 12 view .LVU299
 805 0218 0444     		add	r4, r4, r0
 806              	.LVL116:
 461:Core/Src/bno055_support.c ****     comres += bno055_convert_double_mag_z_uT(&d_mag_dataz);
 807              		.loc 1 461 5 is_stmt 1 view .LVU300
 461:Core/Src/bno055_support.c ****     comres += bno055_convert_double_mag_z_uT(&d_mag_dataz);
 808              		.loc 1 461 15 is_stmt 0 view .LVU301
 809 021a 38A8     		add	r0, sp, #224
 810 021c FFF7FEFF 		bl	bno055_convert_double_mag_y_uT
 811              	.LVL117:
 461:Core/Src/bno055_support.c ****     comres += bno055_convert_double_mag_z_uT(&d_mag_dataz);
 812              		.loc 1 461 12 view .LVU302
 813 0220 0444     		add	r4, r4, r0
 814              	.LVL118:
 462:Core/Src/bno055_support.c ****     comres += bno055_convert_double_mag_xyz_uT(&d_mag_xyz);
 815              		.loc 1 462 5 is_stmt 1 view .LVU303
 462:Core/Src/bno055_support.c ****     comres += bno055_convert_double_mag_xyz_uT(&d_mag_xyz);
 816              		.loc 1 462 15 is_stmt 0 view .LVU304
 817 0222 36A8     		add	r0, sp, #216
 818 0224 FFF7FEFF 		bl	bno055_convert_double_mag_z_uT
 819              	.LVL119:
ARM GAS  /tmp/cc7jlMWm.s 			page 31


 462:Core/Src/bno055_support.c ****     comres += bno055_convert_double_mag_xyz_uT(&d_mag_xyz);
 820              		.loc 1 462 12 view .LVU305
 821 0228 0444     		add	r4, r4, r0
 822              	.LVL120:
 463:Core/Src/bno055_support.c **** 
 823              		.loc 1 463 5 is_stmt 1 view .LVU306
 463:Core/Src/bno055_support.c **** 
 824              		.loc 1 463 15 is_stmt 0 view .LVU307
 825 022a 30A8     		add	r0, sp, #192
 826 022c FFF7FEFF 		bl	bno055_convert_double_mag_xyz_uT
 827              	.LVL121:
 463:Core/Src/bno055_support.c **** 
 828              		.loc 1 463 12 view .LVU308
 829 0230 0444     		add	r4, r4, r0
 830              	.LVL122:
 467:Core/Src/bno055_support.c ****     comres += bno055_convert_double_gyro_y_dps(&d_gyro_datay);
 831              		.loc 1 467 5 is_stmt 1 view .LVU309
 467:Core/Src/bno055_support.c ****     comres += bno055_convert_double_gyro_y_dps(&d_gyro_datay);
 832              		.loc 1 467 15 is_stmt 0 view .LVU310
 833 0232 2EA8     		add	r0, sp, #184
 834 0234 FFF7FEFF 		bl	bno055_convert_double_gyro_x_dps
 835              	.LVL123:
 467:Core/Src/bno055_support.c ****     comres += bno055_convert_double_gyro_y_dps(&d_gyro_datay);
 836              		.loc 1 467 12 view .LVU311
 837 0238 0444     		add	r4, r4, r0
 838              	.LVL124:
 468:Core/Src/bno055_support.c ****     comres += bno055_convert_double_gyro_z_dps(&d_gyro_dataz);
 839              		.loc 1 468 5 is_stmt 1 view .LVU312
 468:Core/Src/bno055_support.c ****     comres += bno055_convert_double_gyro_z_dps(&d_gyro_dataz);
 840              		.loc 1 468 15 is_stmt 0 view .LVU313
 841 023a 2CA8     		add	r0, sp, #176
 842 023c FFF7FEFF 		bl	bno055_convert_double_gyro_y_dps
 843              	.LVL125:
 468:Core/Src/bno055_support.c ****     comres += bno055_convert_double_gyro_z_dps(&d_gyro_dataz);
 844              		.loc 1 468 12 view .LVU314
 845 0240 0444     		add	r4, r4, r0
 846              	.LVL126:
 469:Core/Src/bno055_support.c ****     comres += bno055_convert_double_gyro_x_rps(&d_gyro_datax);
 847              		.loc 1 469 5 is_stmt 1 view .LVU315
 469:Core/Src/bno055_support.c ****     comres += bno055_convert_double_gyro_x_rps(&d_gyro_datax);
 848              		.loc 1 469 15 is_stmt 0 view .LVU316
 849 0242 2AA8     		add	r0, sp, #168
 850 0244 FFF7FEFF 		bl	bno055_convert_double_gyro_z_dps
 851              	.LVL127:
 469:Core/Src/bno055_support.c ****     comres += bno055_convert_double_gyro_x_rps(&d_gyro_datax);
 852              		.loc 1 469 12 view .LVU317
 853 0248 0444     		add	r4, r4, r0
 854              	.LVL128:
 470:Core/Src/bno055_support.c ****     comres += bno055_convert_double_gyro_y_rps(&d_gyro_datay);
 855              		.loc 1 470 5 is_stmt 1 view .LVU318
 470:Core/Src/bno055_support.c ****     comres += bno055_convert_double_gyro_y_rps(&d_gyro_datay);
 856              		.loc 1 470 15 is_stmt 0 view .LVU319
 857 024a 2EA8     		add	r0, sp, #184
 858 024c FFF7FEFF 		bl	bno055_convert_double_gyro_x_rps
 859              	.LVL129:
 470:Core/Src/bno055_support.c ****     comres += bno055_convert_double_gyro_y_rps(&d_gyro_datay);
 860              		.loc 1 470 12 view .LVU320
ARM GAS  /tmp/cc7jlMWm.s 			page 32


 861 0250 0444     		add	r4, r4, r0
 862              	.LVL130:
 471:Core/Src/bno055_support.c ****     comres += bno055_convert_double_gyro_z_rps(&d_gyro_dataz);
 863              		.loc 1 471 5 is_stmt 1 view .LVU321
 471:Core/Src/bno055_support.c ****     comres += bno055_convert_double_gyro_z_rps(&d_gyro_dataz);
 864              		.loc 1 471 15 is_stmt 0 view .LVU322
 865 0252 2CA8     		add	r0, sp, #176
 866 0254 FFF7FEFF 		bl	bno055_convert_double_gyro_y_rps
 867              	.LVL131:
 471:Core/Src/bno055_support.c ****     comres += bno055_convert_double_gyro_z_rps(&d_gyro_dataz);
 868              		.loc 1 471 12 view .LVU323
 869 0258 0444     		add	r4, r4, r0
 870              	.LVL132:
 472:Core/Src/bno055_support.c ****     comres += bno055_convert_double_gyro_xyz_dps(&d_gyro_xyz);
 871              		.loc 1 472 5 is_stmt 1 view .LVU324
 472:Core/Src/bno055_support.c ****     comres += bno055_convert_double_gyro_xyz_dps(&d_gyro_xyz);
 872              		.loc 1 472 15 is_stmt 0 view .LVU325
 873 025a 2AA8     		add	r0, sp, #168
 874 025c FFF7FEFF 		bl	bno055_convert_double_gyro_z_rps
 875              	.LVL133:
 472:Core/Src/bno055_support.c ****     comres += bno055_convert_double_gyro_xyz_dps(&d_gyro_xyz);
 876              		.loc 1 472 12 view .LVU326
 877 0260 0444     		add	r4, r4, r0
 878              	.LVL134:
 473:Core/Src/bno055_support.c ****     comres += bno055_convert_double_gyro_xyz_rps(&d_gyro_xyz);
 879              		.loc 1 473 5 is_stmt 1 view .LVU327
 473:Core/Src/bno055_support.c ****     comres += bno055_convert_double_gyro_xyz_rps(&d_gyro_xyz);
 880              		.loc 1 473 15 is_stmt 0 view .LVU328
 881 0262 24A8     		add	r0, sp, #144
 882 0264 FFF7FEFF 		bl	bno055_convert_double_gyro_xyz_dps
 883              	.LVL135:
 473:Core/Src/bno055_support.c ****     comres += bno055_convert_double_gyro_xyz_rps(&d_gyro_xyz);
 884              		.loc 1 473 12 view .LVU329
 885 0268 0444     		add	r4, r4, r0
 886              	.LVL136:
 474:Core/Src/bno055_support.c **** 
 887              		.loc 1 474 5 is_stmt 1 view .LVU330
 474:Core/Src/bno055_support.c **** 
 888              		.loc 1 474 15 is_stmt 0 view .LVU331
 889 026a 24A8     		add	r0, sp, #144
 890 026c FFF7FEFF 		bl	bno055_convert_double_gyro_xyz_rps
 891              	.LVL137:
 474:Core/Src/bno055_support.c **** 
 892              		.loc 1 474 12 view .LVU332
 893 0270 0444     		add	r4, r4, r0
 894              	.LVL138:
 478:Core/Src/bno055_support.c ****     comres += bno055_convert_double_euler_r_deg(&d_euler_data_r);
 895              		.loc 1 478 5 is_stmt 1 view .LVU333
 478:Core/Src/bno055_support.c ****     comres += bno055_convert_double_euler_r_deg(&d_euler_data_r);
 896              		.loc 1 478 15 is_stmt 0 view .LVU334
 897 0272 22A8     		add	r0, sp, #136
 898 0274 FFF7FEFF 		bl	bno055_convert_double_euler_h_deg
 899              	.LVL139:
 478:Core/Src/bno055_support.c ****     comres += bno055_convert_double_euler_r_deg(&d_euler_data_r);
 900              		.loc 1 478 12 view .LVU335
 901 0278 0444     		add	r4, r4, r0
 902              	.LVL140:
ARM GAS  /tmp/cc7jlMWm.s 			page 33


 479:Core/Src/bno055_support.c ****     comres += bno055_convert_double_euler_p_deg(&d_euler_data_p);
 903              		.loc 1 479 5 is_stmt 1 view .LVU336
 479:Core/Src/bno055_support.c ****     comres += bno055_convert_double_euler_p_deg(&d_euler_data_p);
 904              		.loc 1 479 15 is_stmt 0 view .LVU337
 905 027a 20A8     		add	r0, sp, #128
 906 027c FFF7FEFF 		bl	bno055_convert_double_euler_r_deg
 907              	.LVL141:
 479:Core/Src/bno055_support.c ****     comres += bno055_convert_double_euler_p_deg(&d_euler_data_p);
 908              		.loc 1 479 12 view .LVU338
 909 0280 0444     		add	r4, r4, r0
 910              	.LVL142:
 480:Core/Src/bno055_support.c ****     comres += bno055_convert_double_euler_h_rad(&d_euler_data_h);
 911              		.loc 1 480 5 is_stmt 1 view .LVU339
 480:Core/Src/bno055_support.c ****     comres += bno055_convert_double_euler_h_rad(&d_euler_data_h);
 912              		.loc 1 480 15 is_stmt 0 view .LVU340
 913 0282 1EA8     		add	r0, sp, #120
 914 0284 FFF7FEFF 		bl	bno055_convert_double_euler_p_deg
 915              	.LVL143:
 480:Core/Src/bno055_support.c ****     comres += bno055_convert_double_euler_h_rad(&d_euler_data_h);
 916              		.loc 1 480 12 view .LVU341
 917 0288 0444     		add	r4, r4, r0
 918              	.LVL144:
 481:Core/Src/bno055_support.c ****     comres += bno055_convert_double_euler_r_rad(&d_euler_data_r);
 919              		.loc 1 481 5 is_stmt 1 view .LVU342
 481:Core/Src/bno055_support.c ****     comres += bno055_convert_double_euler_r_rad(&d_euler_data_r);
 920              		.loc 1 481 15 is_stmt 0 view .LVU343
 921 028a 22A8     		add	r0, sp, #136
 922 028c FFF7FEFF 		bl	bno055_convert_double_euler_h_rad
 923              	.LVL145:
 481:Core/Src/bno055_support.c ****     comres += bno055_convert_double_euler_r_rad(&d_euler_data_r);
 924              		.loc 1 481 12 view .LVU344
 925 0290 0444     		add	r4, r4, r0
 926              	.LVL146:
 482:Core/Src/bno055_support.c ****     comres += bno055_convert_double_euler_p_rad(&d_euler_data_p);
 927              		.loc 1 482 5 is_stmt 1 view .LVU345
 482:Core/Src/bno055_support.c ****     comres += bno055_convert_double_euler_p_rad(&d_euler_data_p);
 928              		.loc 1 482 15 is_stmt 0 view .LVU346
 929 0292 20A8     		add	r0, sp, #128
 930 0294 FFF7FEFF 		bl	bno055_convert_double_euler_r_rad
 931              	.LVL147:
 482:Core/Src/bno055_support.c ****     comres += bno055_convert_double_euler_p_rad(&d_euler_data_p);
 932              		.loc 1 482 12 view .LVU347
 933 0298 0444     		add	r4, r4, r0
 934              	.LVL148:
 483:Core/Src/bno055_support.c ****     comres += bno055_convert_double_euler_hpr_deg(&d_euler_hpr);
 935              		.loc 1 483 5 is_stmt 1 view .LVU348
 483:Core/Src/bno055_support.c ****     comres += bno055_convert_double_euler_hpr_deg(&d_euler_hpr);
 936              		.loc 1 483 15 is_stmt 0 view .LVU349
 937 029a 1EA8     		add	r0, sp, #120
 938 029c FFF7FEFF 		bl	bno055_convert_double_euler_p_rad
 939              	.LVL149:
 483:Core/Src/bno055_support.c ****     comres += bno055_convert_double_euler_hpr_deg(&d_euler_hpr);
 940              		.loc 1 483 12 view .LVU350
 941 02a0 0444     		add	r4, r4, r0
 942              	.LVL150:
 484:Core/Src/bno055_support.c ****     comres += bno055_convert_double_euler_hpr_rad(&d_euler_hpr);
 943              		.loc 1 484 5 is_stmt 1 view .LVU351
ARM GAS  /tmp/cc7jlMWm.s 			page 34


 484:Core/Src/bno055_support.c ****     comres += bno055_convert_double_euler_hpr_rad(&d_euler_hpr);
 944              		.loc 1 484 15 is_stmt 0 view .LVU352
 945 02a2 18A8     		add	r0, sp, #96
 946 02a4 FFF7FEFF 		bl	bno055_convert_double_euler_hpr_deg
 947              	.LVL151:
 484:Core/Src/bno055_support.c ****     comres += bno055_convert_double_euler_hpr_rad(&d_euler_hpr);
 948              		.loc 1 484 12 view .LVU353
 949 02a8 0444     		add	r4, r4, r0
 950              	.LVL152:
 485:Core/Src/bno055_support.c **** 
 951              		.loc 1 485 5 is_stmt 1 view .LVU354
 485:Core/Src/bno055_support.c **** 
 952              		.loc 1 485 15 is_stmt 0 view .LVU355
 953 02aa 18A8     		add	r0, sp, #96
 954 02ac FFF7FEFF 		bl	bno055_convert_double_euler_hpr_rad
 955              	.LVL153:
 485:Core/Src/bno055_support.c **** 
 956              		.loc 1 485 12 view .LVU356
 957 02b0 0444     		add	r4, r4, r0
 958              	.LVL154:
 489:Core/Src/bno055_support.c ****     comres += bno055_convert_double_linear_accel_y_msq(&d_linear_accel_datay);
 959              		.loc 1 489 5 is_stmt 1 view .LVU357
 489:Core/Src/bno055_support.c ****     comres += bno055_convert_double_linear_accel_y_msq(&d_linear_accel_datay);
 960              		.loc 1 489 15 is_stmt 0 view .LVU358
 961 02b2 16A8     		add	r0, sp, #88
 962 02b4 FFF7FEFF 		bl	bno055_convert_double_linear_accel_x_msq
 963              	.LVL155:
 489:Core/Src/bno055_support.c ****     comres += bno055_convert_double_linear_accel_y_msq(&d_linear_accel_datay);
 964              		.loc 1 489 12 view .LVU359
 965 02b8 0444     		add	r4, r4, r0
 966              	.LVL156:
 490:Core/Src/bno055_support.c ****     comres += bno055_convert_double_linear_accel_z_msq(&d_linear_accel_dataz);
 967              		.loc 1 490 5 is_stmt 1 view .LVU360
 490:Core/Src/bno055_support.c ****     comres += bno055_convert_double_linear_accel_z_msq(&d_linear_accel_dataz);
 968              		.loc 1 490 15 is_stmt 0 view .LVU361
 969 02ba 14A8     		add	r0, sp, #80
 970 02bc FFF7FEFF 		bl	bno055_convert_double_linear_accel_y_msq
 971              	.LVL157:
 490:Core/Src/bno055_support.c ****     comres += bno055_convert_double_linear_accel_z_msq(&d_linear_accel_dataz);
 972              		.loc 1 490 12 view .LVU362
 973 02c0 0444     		add	r4, r4, r0
 974              	.LVL158:
 491:Core/Src/bno055_support.c ****     comres += bno055_convert_double_linear_accel_xyz_msq(&d_linear_accel_xyz);
 975              		.loc 1 491 5 is_stmt 1 view .LVU363
 491:Core/Src/bno055_support.c ****     comres += bno055_convert_double_linear_accel_xyz_msq(&d_linear_accel_xyz);
 976              		.loc 1 491 15 is_stmt 0 view .LVU364
 977 02c2 12A8     		add	r0, sp, #72
 978 02c4 FFF7FEFF 		bl	bno055_convert_double_linear_accel_z_msq
 979              	.LVL159:
 491:Core/Src/bno055_support.c ****     comres += bno055_convert_double_linear_accel_xyz_msq(&d_linear_accel_xyz);
 980              		.loc 1 491 12 view .LVU365
 981 02c8 0444     		add	r4, r4, r0
 982              	.LVL160:
 492:Core/Src/bno055_support.c **** 
 983              		.loc 1 492 5 is_stmt 1 view .LVU366
 492:Core/Src/bno055_support.c **** 
 984              		.loc 1 492 15 is_stmt 0 view .LVU367
ARM GAS  /tmp/cc7jlMWm.s 			page 35


 985 02ca 0CA8     		add	r0, sp, #48
 986 02cc FFF7FEFF 		bl	bno055_convert_double_linear_accel_xyz_msq
 987              	.LVL161:
 492:Core/Src/bno055_support.c **** 
 988              		.loc 1 492 12 view .LVU368
 989 02d0 0444     		add	r4, r4, r0
 990              	.LVL162:
 496:Core/Src/bno055_support.c ****     comres += bno055_convert_gravity_double_y_msq(&d_gravity_data_y);
 991              		.loc 1 496 5 is_stmt 1 view .LVU369
 496:Core/Src/bno055_support.c ****     comres += bno055_convert_gravity_double_y_msq(&d_gravity_data_y);
 992              		.loc 1 496 15 is_stmt 0 view .LVU370
 993 02d2 0AA8     		add	r0, sp, #40
 994 02d4 FFF7FEFF 		bl	bno055_convert_gravity_double_x_msq
 995              	.LVL163:
 496:Core/Src/bno055_support.c ****     comres += bno055_convert_gravity_double_y_msq(&d_gravity_data_y);
 996              		.loc 1 496 12 view .LVU371
 997 02d8 0444     		add	r4, r4, r0
 998              	.LVL164:
 497:Core/Src/bno055_support.c ****     comres += bno055_convert_gravity_double_z_msq(&d_gravity_data_z);
 999              		.loc 1 497 5 is_stmt 1 view .LVU372
 497:Core/Src/bno055_support.c ****     comres += bno055_convert_gravity_double_z_msq(&d_gravity_data_z);
 1000              		.loc 1 497 15 is_stmt 0 view .LVU373
 1001 02da 08A8     		add	r0, sp, #32
 1002 02dc FFF7FEFF 		bl	bno055_convert_gravity_double_y_msq
 1003              	.LVL165:
 497:Core/Src/bno055_support.c ****     comres += bno055_convert_gravity_double_z_msq(&d_gravity_data_z);
 1004              		.loc 1 497 12 view .LVU374
 1005 02e0 0444     		add	r4, r4, r0
 1006              	.LVL166:
 498:Core/Src/bno055_support.c ****     comres += bno055_convert_double_gravity_xyz_msq(&d_gravity_xyz);
 1007              		.loc 1 498 5 is_stmt 1 view .LVU375
 498:Core/Src/bno055_support.c ****     comres += bno055_convert_double_gravity_xyz_msq(&d_gravity_xyz);
 1008              		.loc 1 498 15 is_stmt 0 view .LVU376
 1009 02e2 06A8     		add	r0, sp, #24
 1010 02e4 FFF7FEFF 		bl	bno055_convert_gravity_double_z_msq
 1011              	.LVL167:
 498:Core/Src/bno055_support.c ****     comres += bno055_convert_double_gravity_xyz_msq(&d_gravity_xyz);
 1012              		.loc 1 498 12 view .LVU377
 1013 02e8 0444     		add	r4, r4, r0
 1014              	.LVL168:
 499:Core/Src/bno055_support.c **** 
 1015              		.loc 1 499 5 is_stmt 1 view .LVU378
 499:Core/Src/bno055_support.c **** 
 1016              		.loc 1 499 15 is_stmt 0 view .LVU379
 1017 02ea 6846     		mov	r0, sp
 1018 02ec FFF7FEFF 		bl	bno055_convert_double_gravity_xyz_msq
 1019              	.LVL169:
 499:Core/Src/bno055_support.c **** 
 1020              		.loc 1 499 12 view .LVU380
 1021 02f0 0444     		add	r4, r4, r0
 1022              	.LVL170:
 511:Core/Src/bno055_support.c **** 
 1023              		.loc 1 511 5 is_stmt 1 view .LVU381
 514:Core/Src/bno055_support.c **** 
 1024              		.loc 1 514 5 view .LVU382
 514:Core/Src/bno055_support.c **** 
 1025              		.loc 1 514 15 is_stmt 0 view .LVU383
ARM GAS  /tmp/cc7jlMWm.s 			page 36


 1026 02f2 0220     		movs	r0, #2
 1027 02f4 FFF7FEFF 		bl	bno055_set_power_mode
 1028              	.LVL171:
 519:Core/Src/bno055_support.c **** }
 1029              		.loc 1 519 5 is_stmt 1 view .LVU384
 520:Core/Src/bno055_support.c **** 
 1030              		.loc 1 520 1 is_stmt 0 view .LVU385
 1031 02f8 2044     		add	r0, r0, r4
 1032              	.LVL172:
 520:Core/Src/bno055_support.c **** 
 1033              		.loc 1 520 1 view .LVU386
 1034 02fa 5FB0     		add	sp, sp, #380
 1035              		.cfi_def_cfa_offset 12
 1036              		@ sp needed
 1037 02fc 30BD     		pop	{r4, r5, pc}
 1038              	.L25:
 1039 02fe 00BF     		.align	2
 1040              	.L24:
 1041 0300 00000000 		.word	bno055
 1042              		.cfi_endproc
 1043              	.LFE123:
 1045              		.global	bno055
 1046              		.section	.bss.bno055,"aw",%nobits
 1047              		.align	2
 1050              	bno055:
 1051 0000 00000000 		.space	24
 1051      00000000 
 1051      00000000 
 1051      00000000 
 1051      00000000 
 1052              		.text
 1053              	.Letext0:
 1054              		.file 2 "Core/Inc/bno055.h"
 1055              		.file 3 "/usr/arm-none-eabi/include/machine/_default_types.h"
 1056              		.file 4 "/usr/arm-none-eabi/include/sys/_stdint.h"
 1057              		.file 5 "Drivers/CMSIS/Device/ST/STM32F3xx/Include/stm32f303x8.h"
 1058              		.file 6 "Drivers/STM32F3xx_HAL_Driver/Inc/stm32f3xx_hal_def.h"
 1059              		.file 7 "Drivers/STM32F3xx_HAL_Driver/Inc/stm32f3xx_hal_dma.h"
 1060              		.file 8 "Drivers/STM32F3xx_HAL_Driver/Inc/stm32f3xx_hal_i2c.h"
 1061              		.file 9 "Core/Inc/main.h"
 1062              		.file 10 "Drivers/STM32F3xx_HAL_Driver/Inc/stm32f3xx_hal.h"
ARM GAS  /tmp/cc7jlMWm.s 			page 37

