ARM GAS  /tmp/ccaSjaV7.s 			page 1


   1              		.cpu cortex-m4
   2              		.arch armv7e-m
   3              		.fpu fpv4-sp-d16
   4              		.eabi_attribute 27, 1
   5              		.eabi_attribute 28, 1
   6              		.eabi_attribute 20, 1
   7              		.eabi_attribute 21, 1
   8              		.eabi_attribute 23, 3
   9              		.eabi_attribute 24, 1
  10              		.eabi_attribute 25, 1
  11              		.eabi_attribute 26, 1
  12              		.eabi_attribute 30, 1
  13              		.eabi_attribute 34, 1
  14              		.eabi_attribute 18, 4
  15              		.file	"stm32f3xx_hal_gpio.c"
  16              		.text
  17              	.Ltext0:
  18              		.cfi_sections	.debug_frame
  19              		.section	.text.HAL_GPIO_Init,"ax",%progbits
  20              		.align	1
  21              		.global	HAL_GPIO_Init
  22              		.syntax unified
  23              		.thumb
  24              		.thumb_func
  26              	HAL_GPIO_Init:
  27              	.LVL0:
  28              	.LFB123:
  29              		.file 1 "Drivers/STM32F3xx_HAL_Driver/Src/stm32f3xx_hal_gpio.c"
   1:Drivers/STM32F3xx_HAL_Driver/Src/stm32f3xx_hal_gpio.c **** /**
   2:Drivers/STM32F3xx_HAL_Driver/Src/stm32f3xx_hal_gpio.c ****   ******************************************************************************
   3:Drivers/STM32F3xx_HAL_Driver/Src/stm32f3xx_hal_gpio.c ****   * @file    stm32f3xx_hal_gpio.c
   4:Drivers/STM32F3xx_HAL_Driver/Src/stm32f3xx_hal_gpio.c ****   * @author  MCD Application Team
   5:Drivers/STM32F3xx_HAL_Driver/Src/stm32f3xx_hal_gpio.c ****   * @brief   GPIO HAL module driver.
   6:Drivers/STM32F3xx_HAL_Driver/Src/stm32f3xx_hal_gpio.c ****   *          This file provides firmware functions to manage the following
   7:Drivers/STM32F3xx_HAL_Driver/Src/stm32f3xx_hal_gpio.c ****   *          functionalities of the General Purpose Input/Output (GPIO) peripheral:
   8:Drivers/STM32F3xx_HAL_Driver/Src/stm32f3xx_hal_gpio.c ****   *           + Initialization and de-initialization functions
   9:Drivers/STM32F3xx_HAL_Driver/Src/stm32f3xx_hal_gpio.c ****   *           + IO operation functions
  10:Drivers/STM32F3xx_HAL_Driver/Src/stm32f3xx_hal_gpio.c ****   *
  11:Drivers/STM32F3xx_HAL_Driver/Src/stm32f3xx_hal_gpio.c ****   @verbatim
  12:Drivers/STM32F3xx_HAL_Driver/Src/stm32f3xx_hal_gpio.c ****   ==============================================================================
  13:Drivers/STM32F3xx_HAL_Driver/Src/stm32f3xx_hal_gpio.c ****                     ##### GPIO Peripheral features #####
  14:Drivers/STM32F3xx_HAL_Driver/Src/stm32f3xx_hal_gpio.c ****   ==============================================================================
  15:Drivers/STM32F3xx_HAL_Driver/Src/stm32f3xx_hal_gpio.c ****   [..]
  16:Drivers/STM32F3xx_HAL_Driver/Src/stm32f3xx_hal_gpio.c ****     (+) Each port bit of the general-purpose I/O (GPIO) ports can be individually
  17:Drivers/STM32F3xx_HAL_Driver/Src/stm32f3xx_hal_gpio.c ****         configured by software in several modes:
  18:Drivers/STM32F3xx_HAL_Driver/Src/stm32f3xx_hal_gpio.c ****         (++) Input mode
  19:Drivers/STM32F3xx_HAL_Driver/Src/stm32f3xx_hal_gpio.c ****         (++) Analog mode
  20:Drivers/STM32F3xx_HAL_Driver/Src/stm32f3xx_hal_gpio.c ****         (++) Output mode
  21:Drivers/STM32F3xx_HAL_Driver/Src/stm32f3xx_hal_gpio.c ****         (++) Alternate function mode
  22:Drivers/STM32F3xx_HAL_Driver/Src/stm32f3xx_hal_gpio.c ****         (++) External interrupt/event lines
  23:Drivers/STM32F3xx_HAL_Driver/Src/stm32f3xx_hal_gpio.c **** 
  24:Drivers/STM32F3xx_HAL_Driver/Src/stm32f3xx_hal_gpio.c ****     (+) During and just after reset, the alternate functions and external interrupt
  25:Drivers/STM32F3xx_HAL_Driver/Src/stm32f3xx_hal_gpio.c ****         lines are not active and the I/O ports are configured in input floating mode.
  26:Drivers/STM32F3xx_HAL_Driver/Src/stm32f3xx_hal_gpio.c **** 
  27:Drivers/STM32F3xx_HAL_Driver/Src/stm32f3xx_hal_gpio.c ****     (+) All GPIO pins have weak internal pull-up and pull-down resistors, which can be
  28:Drivers/STM32F3xx_HAL_Driver/Src/stm32f3xx_hal_gpio.c ****         activated or not.
  29:Drivers/STM32F3xx_HAL_Driver/Src/stm32f3xx_hal_gpio.c **** 
ARM GAS  /tmp/ccaSjaV7.s 			page 2


  30:Drivers/STM32F3xx_HAL_Driver/Src/stm32f3xx_hal_gpio.c ****     (+) In Output or Alternate mode, each IO can be configured on open-drain or push-pull
  31:Drivers/STM32F3xx_HAL_Driver/Src/stm32f3xx_hal_gpio.c ****         type and the IO speed can be selected depending on the VDD value.
  32:Drivers/STM32F3xx_HAL_Driver/Src/stm32f3xx_hal_gpio.c **** 
  33:Drivers/STM32F3xx_HAL_Driver/Src/stm32f3xx_hal_gpio.c ****     (+) The microcontroller IO pins are connected to onboard peripherals/modules through a
  34:Drivers/STM32F3xx_HAL_Driver/Src/stm32f3xx_hal_gpio.c ****         multiplexer that allows only one peripheral alternate function (AF) connected
  35:Drivers/STM32F3xx_HAL_Driver/Src/stm32f3xx_hal_gpio.c ****        to an IO pin at a time. In this way, there can be no conflict between peripherals
  36:Drivers/STM32F3xx_HAL_Driver/Src/stm32f3xx_hal_gpio.c ****        sharing the same IO pin.
  37:Drivers/STM32F3xx_HAL_Driver/Src/stm32f3xx_hal_gpio.c **** 
  38:Drivers/STM32F3xx_HAL_Driver/Src/stm32f3xx_hal_gpio.c ****     (+) All ports have external interrupt/event capability. To use external interrupt
  39:Drivers/STM32F3xx_HAL_Driver/Src/stm32f3xx_hal_gpio.c ****         lines, the port must be configured in input mode. All available GPIO pins are
  40:Drivers/STM32F3xx_HAL_Driver/Src/stm32f3xx_hal_gpio.c ****         connected to the 16 external interrupt/event lines from EXTI0 to EXTI15.
  41:Drivers/STM32F3xx_HAL_Driver/Src/stm32f3xx_hal_gpio.c **** 
  42:Drivers/STM32F3xx_HAL_Driver/Src/stm32f3xx_hal_gpio.c ****     (+) The external interrupt/event controller consists of up to 23 edge detectors
  43:Drivers/STM32F3xx_HAL_Driver/Src/stm32f3xx_hal_gpio.c ****         (16 lines are connected to GPIO) for generating event/interrupt requests (each
  44:Drivers/STM32F3xx_HAL_Driver/Src/stm32f3xx_hal_gpio.c ****         input line can be independently configured to select the type (interrupt or event)
  45:Drivers/STM32F3xx_HAL_Driver/Src/stm32f3xx_hal_gpio.c ****         and the corresponding trigger event (rising or falling or both). Each line can
  46:Drivers/STM32F3xx_HAL_Driver/Src/stm32f3xx_hal_gpio.c ****         also be masked independently.
  47:Drivers/STM32F3xx_HAL_Driver/Src/stm32f3xx_hal_gpio.c **** 
  48:Drivers/STM32F3xx_HAL_Driver/Src/stm32f3xx_hal_gpio.c ****                      ##### How to use this driver #####
  49:Drivers/STM32F3xx_HAL_Driver/Src/stm32f3xx_hal_gpio.c ****   ==============================================================================
  50:Drivers/STM32F3xx_HAL_Driver/Src/stm32f3xx_hal_gpio.c ****   [..]
  51:Drivers/STM32F3xx_HAL_Driver/Src/stm32f3xx_hal_gpio.c ****     (#) Enable the GPIO AHB clock using the following function: __HAL_RCC_GPIOx_CLK_ENABLE().
  52:Drivers/STM32F3xx_HAL_Driver/Src/stm32f3xx_hal_gpio.c **** 
  53:Drivers/STM32F3xx_HAL_Driver/Src/stm32f3xx_hal_gpio.c ****     (#) Configure the GPIO pin(s) using HAL_GPIO_Init().
  54:Drivers/STM32F3xx_HAL_Driver/Src/stm32f3xx_hal_gpio.c ****         (++) Configure the IO mode using "Mode" member from GPIO_InitTypeDef structure
  55:Drivers/STM32F3xx_HAL_Driver/Src/stm32f3xx_hal_gpio.c ****         (++) Activate Pull-up, Pull-down resistor using "Pull" member from GPIO_InitTypeDef
  56:Drivers/STM32F3xx_HAL_Driver/Src/stm32f3xx_hal_gpio.c ****              structure.
  57:Drivers/STM32F3xx_HAL_Driver/Src/stm32f3xx_hal_gpio.c ****         (++) In case of Output or alternate function mode selection: the speed is
  58:Drivers/STM32F3xx_HAL_Driver/Src/stm32f3xx_hal_gpio.c ****              configured through "Speed" member from GPIO_InitTypeDef structure.
  59:Drivers/STM32F3xx_HAL_Driver/Src/stm32f3xx_hal_gpio.c ****         (++) In alternate mode is selection, the alternate function connected to the IO
  60:Drivers/STM32F3xx_HAL_Driver/Src/stm32f3xx_hal_gpio.c ****              is configured through "Alternate" member from GPIO_InitTypeDef structure.
  61:Drivers/STM32F3xx_HAL_Driver/Src/stm32f3xx_hal_gpio.c ****         (++) Analog mode is required when a pin is to be used as ADC channel
  62:Drivers/STM32F3xx_HAL_Driver/Src/stm32f3xx_hal_gpio.c ****              or DAC output.
  63:Drivers/STM32F3xx_HAL_Driver/Src/stm32f3xx_hal_gpio.c ****         (++) In case of external interrupt/event selection the "Mode" member from
  64:Drivers/STM32F3xx_HAL_Driver/Src/stm32f3xx_hal_gpio.c ****              GPIO_InitTypeDef structure select the type (interrupt or event) and
  65:Drivers/STM32F3xx_HAL_Driver/Src/stm32f3xx_hal_gpio.c ****              the corresponding trigger event (rising or falling or both).
  66:Drivers/STM32F3xx_HAL_Driver/Src/stm32f3xx_hal_gpio.c **** 
  67:Drivers/STM32F3xx_HAL_Driver/Src/stm32f3xx_hal_gpio.c ****     (#) In case of external interrupt/event mode selection, configure NVIC IRQ priority
  68:Drivers/STM32F3xx_HAL_Driver/Src/stm32f3xx_hal_gpio.c ****         mapped to the EXTI line using HAL_NVIC_SetPriority() and enable it using
  69:Drivers/STM32F3xx_HAL_Driver/Src/stm32f3xx_hal_gpio.c ****         HAL_NVIC_EnableIRQ().
  70:Drivers/STM32F3xx_HAL_Driver/Src/stm32f3xx_hal_gpio.c **** 
  71:Drivers/STM32F3xx_HAL_Driver/Src/stm32f3xx_hal_gpio.c ****     (#) To get the level of a pin configured in input mode use HAL_GPIO_ReadPin().
  72:Drivers/STM32F3xx_HAL_Driver/Src/stm32f3xx_hal_gpio.c **** 
  73:Drivers/STM32F3xx_HAL_Driver/Src/stm32f3xx_hal_gpio.c ****     (#) To set/reset the level of a pin configured in output mode use
  74:Drivers/STM32F3xx_HAL_Driver/Src/stm32f3xx_hal_gpio.c ****         HAL_GPIO_WritePin()/HAL_GPIO_TogglePin().
  75:Drivers/STM32F3xx_HAL_Driver/Src/stm32f3xx_hal_gpio.c **** 
  76:Drivers/STM32F3xx_HAL_Driver/Src/stm32f3xx_hal_gpio.c ****    (#) To lock pin configuration until next reset use HAL_GPIO_LockPin().
  77:Drivers/STM32F3xx_HAL_Driver/Src/stm32f3xx_hal_gpio.c ****   
  78:Drivers/STM32F3xx_HAL_Driver/Src/stm32f3xx_hal_gpio.c ****     (#) During and just after reset, the alternate functions are not
  79:Drivers/STM32F3xx_HAL_Driver/Src/stm32f3xx_hal_gpio.c ****         active and the GPIO pins are configured in input floating mode (except JTAG
  80:Drivers/STM32F3xx_HAL_Driver/Src/stm32f3xx_hal_gpio.c ****         pins).
  81:Drivers/STM32F3xx_HAL_Driver/Src/stm32f3xx_hal_gpio.c **** 
  82:Drivers/STM32F3xx_HAL_Driver/Src/stm32f3xx_hal_gpio.c ****     (#) The LSE oscillator pins OSC32_IN and OSC32_OUT can be used as general purpose
  83:Drivers/STM32F3xx_HAL_Driver/Src/stm32f3xx_hal_gpio.c ****         (PC14 and PC15U, respectively) when the LSE oscillator is off. The LSE has
  84:Drivers/STM32F3xx_HAL_Driver/Src/stm32f3xx_hal_gpio.c ****         priority over the GPIO function.
  85:Drivers/STM32F3xx_HAL_Driver/Src/stm32f3xx_hal_gpio.c **** 
  86:Drivers/STM32F3xx_HAL_Driver/Src/stm32f3xx_hal_gpio.c ****     (#) The HSE oscillator pins OSC_IN/OSC_OUT can be used as
ARM GAS  /tmp/ccaSjaV7.s 			page 3


  87:Drivers/STM32F3xx_HAL_Driver/Src/stm32f3xx_hal_gpio.c ****         general purpose PF0 and PF1, respectively, when the HSE oscillator is off.
  88:Drivers/STM32F3xx_HAL_Driver/Src/stm32f3xx_hal_gpio.c ****         The HSE has priority over the GPIO function.
  89:Drivers/STM32F3xx_HAL_Driver/Src/stm32f3xx_hal_gpio.c **** 
  90:Drivers/STM32F3xx_HAL_Driver/Src/stm32f3xx_hal_gpio.c ****   @endverbatim
  91:Drivers/STM32F3xx_HAL_Driver/Src/stm32f3xx_hal_gpio.c ****   ******************************************************************************
  92:Drivers/STM32F3xx_HAL_Driver/Src/stm32f3xx_hal_gpio.c ****   * @attention
  93:Drivers/STM32F3xx_HAL_Driver/Src/stm32f3xx_hal_gpio.c ****   *
  94:Drivers/STM32F3xx_HAL_Driver/Src/stm32f3xx_hal_gpio.c ****   * <h2><center>&copy; Copyright (c) 2016 STMicroelectronics.
  95:Drivers/STM32F3xx_HAL_Driver/Src/stm32f3xx_hal_gpio.c ****   * All rights reserved.</center></h2>
  96:Drivers/STM32F3xx_HAL_Driver/Src/stm32f3xx_hal_gpio.c ****   *
  97:Drivers/STM32F3xx_HAL_Driver/Src/stm32f3xx_hal_gpio.c ****   * This software component is licensed by ST under BSD 3-Clause license,
  98:Drivers/STM32F3xx_HAL_Driver/Src/stm32f3xx_hal_gpio.c ****   * the "License"; You may not use this file except in compliance with the
  99:Drivers/STM32F3xx_HAL_Driver/Src/stm32f3xx_hal_gpio.c ****   * License. You may obtain a copy of the License at:
 100:Drivers/STM32F3xx_HAL_Driver/Src/stm32f3xx_hal_gpio.c ****   *                        opensource.org/licenses/BSD-3-Clause
 101:Drivers/STM32F3xx_HAL_Driver/Src/stm32f3xx_hal_gpio.c ****   *
 102:Drivers/STM32F3xx_HAL_Driver/Src/stm32f3xx_hal_gpio.c ****   ******************************************************************************
 103:Drivers/STM32F3xx_HAL_Driver/Src/stm32f3xx_hal_gpio.c ****   */
 104:Drivers/STM32F3xx_HAL_Driver/Src/stm32f3xx_hal_gpio.c **** 
 105:Drivers/STM32F3xx_HAL_Driver/Src/stm32f3xx_hal_gpio.c **** /* Includes ------------------------------------------------------------------*/
 106:Drivers/STM32F3xx_HAL_Driver/Src/stm32f3xx_hal_gpio.c **** #include "stm32f3xx_hal.h"
 107:Drivers/STM32F3xx_HAL_Driver/Src/stm32f3xx_hal_gpio.c **** 
 108:Drivers/STM32F3xx_HAL_Driver/Src/stm32f3xx_hal_gpio.c **** /** @addtogroup STM32F3xx_HAL_Driver
 109:Drivers/STM32F3xx_HAL_Driver/Src/stm32f3xx_hal_gpio.c ****   * @{
 110:Drivers/STM32F3xx_HAL_Driver/Src/stm32f3xx_hal_gpio.c ****   */
 111:Drivers/STM32F3xx_HAL_Driver/Src/stm32f3xx_hal_gpio.c **** 
 112:Drivers/STM32F3xx_HAL_Driver/Src/stm32f3xx_hal_gpio.c **** /** @defgroup GPIO GPIO
 113:Drivers/STM32F3xx_HAL_Driver/Src/stm32f3xx_hal_gpio.c ****   * @brief GPIO HAL module driver
 114:Drivers/STM32F3xx_HAL_Driver/Src/stm32f3xx_hal_gpio.c ****   * @{
 115:Drivers/STM32F3xx_HAL_Driver/Src/stm32f3xx_hal_gpio.c ****   */
 116:Drivers/STM32F3xx_HAL_Driver/Src/stm32f3xx_hal_gpio.c **** 
 117:Drivers/STM32F3xx_HAL_Driver/Src/stm32f3xx_hal_gpio.c **** /** MISRA C:2012 deviation rule has been granted for following rules:
 118:Drivers/STM32F3xx_HAL_Driver/Src/stm32f3xx_hal_gpio.c ****   * Rule-18.1_d - Medium: Array pointer `GPIOx' is accessed with index [..,..]
 119:Drivers/STM32F3xx_HAL_Driver/Src/stm32f3xx_hal_gpio.c ****   * which may be out of array bounds [..,UNKNOWN] in following APIs:
 120:Drivers/STM32F3xx_HAL_Driver/Src/stm32f3xx_hal_gpio.c ****   * HAL_GPIO_Init
 121:Drivers/STM32F3xx_HAL_Driver/Src/stm32f3xx_hal_gpio.c ****   * HAL_GPIO_DeInit
 122:Drivers/STM32F3xx_HAL_Driver/Src/stm32f3xx_hal_gpio.c ****   */
 123:Drivers/STM32F3xx_HAL_Driver/Src/stm32f3xx_hal_gpio.c **** 
 124:Drivers/STM32F3xx_HAL_Driver/Src/stm32f3xx_hal_gpio.c **** #ifdef HAL_GPIO_MODULE_ENABLED
 125:Drivers/STM32F3xx_HAL_Driver/Src/stm32f3xx_hal_gpio.c **** 
 126:Drivers/STM32F3xx_HAL_Driver/Src/stm32f3xx_hal_gpio.c **** /* Private typedef -----------------------------------------------------------*/
 127:Drivers/STM32F3xx_HAL_Driver/Src/stm32f3xx_hal_gpio.c **** /* Private defines -----------------------------------------------------------*/
 128:Drivers/STM32F3xx_HAL_Driver/Src/stm32f3xx_hal_gpio.c **** /** @addtogroup GPIO_Private_Constants
 129:Drivers/STM32F3xx_HAL_Driver/Src/stm32f3xx_hal_gpio.c ****   * @{
 130:Drivers/STM32F3xx_HAL_Driver/Src/stm32f3xx_hal_gpio.c ****   */
 131:Drivers/STM32F3xx_HAL_Driver/Src/stm32f3xx_hal_gpio.c **** #define GPIO_NUMBER           (16U)
 132:Drivers/STM32F3xx_HAL_Driver/Src/stm32f3xx_hal_gpio.c **** /**
 133:Drivers/STM32F3xx_HAL_Driver/Src/stm32f3xx_hal_gpio.c ****   * @}
 134:Drivers/STM32F3xx_HAL_Driver/Src/stm32f3xx_hal_gpio.c ****   */
 135:Drivers/STM32F3xx_HAL_Driver/Src/stm32f3xx_hal_gpio.c ****   
 136:Drivers/STM32F3xx_HAL_Driver/Src/stm32f3xx_hal_gpio.c **** /* Private macros ------------------------------------------------------------*/
 137:Drivers/STM32F3xx_HAL_Driver/Src/stm32f3xx_hal_gpio.c **** /* Private macros ------------------------------------------------------------*/
 138:Drivers/STM32F3xx_HAL_Driver/Src/stm32f3xx_hal_gpio.c **** /** @defgroup GPIO_Private_Macros GPIO Private Macros
 139:Drivers/STM32F3xx_HAL_Driver/Src/stm32f3xx_hal_gpio.c ****   * @{
 140:Drivers/STM32F3xx_HAL_Driver/Src/stm32f3xx_hal_gpio.c ****   */
 141:Drivers/STM32F3xx_HAL_Driver/Src/stm32f3xx_hal_gpio.c **** /**
 142:Drivers/STM32F3xx_HAL_Driver/Src/stm32f3xx_hal_gpio.c ****   * @}
 143:Drivers/STM32F3xx_HAL_Driver/Src/stm32f3xx_hal_gpio.c ****   */
ARM GAS  /tmp/ccaSjaV7.s 			page 4


 144:Drivers/STM32F3xx_HAL_Driver/Src/stm32f3xx_hal_gpio.c **** /* Private variables ---------------------------------------------------------*/
 145:Drivers/STM32F3xx_HAL_Driver/Src/stm32f3xx_hal_gpio.c **** /* Private function prototypes -----------------------------------------------*/
 146:Drivers/STM32F3xx_HAL_Driver/Src/stm32f3xx_hal_gpio.c **** /* Exported functions --------------------------------------------------------*/
 147:Drivers/STM32F3xx_HAL_Driver/Src/stm32f3xx_hal_gpio.c **** 
 148:Drivers/STM32F3xx_HAL_Driver/Src/stm32f3xx_hal_gpio.c **** /** @defgroup GPIO_Exported_Functions GPIO Exported Functions
 149:Drivers/STM32F3xx_HAL_Driver/Src/stm32f3xx_hal_gpio.c ****   * @{
 150:Drivers/STM32F3xx_HAL_Driver/Src/stm32f3xx_hal_gpio.c ****   */
 151:Drivers/STM32F3xx_HAL_Driver/Src/stm32f3xx_hal_gpio.c **** 
 152:Drivers/STM32F3xx_HAL_Driver/Src/stm32f3xx_hal_gpio.c **** /** @defgroup GPIO_Exported_Functions_Group1 Initialization/de-initialization functions 
 153:Drivers/STM32F3xx_HAL_Driver/Src/stm32f3xx_hal_gpio.c ****  *  @brief    Initialization and Configuration functions
 154:Drivers/STM32F3xx_HAL_Driver/Src/stm32f3xx_hal_gpio.c ****  *
 155:Drivers/STM32F3xx_HAL_Driver/Src/stm32f3xx_hal_gpio.c **** @verbatim
 156:Drivers/STM32F3xx_HAL_Driver/Src/stm32f3xx_hal_gpio.c ****  ===============================================================================
 157:Drivers/STM32F3xx_HAL_Driver/Src/stm32f3xx_hal_gpio.c ****               ##### Initialization and de-initialization functions #####
 158:Drivers/STM32F3xx_HAL_Driver/Src/stm32f3xx_hal_gpio.c ****  ===============================================================================
 159:Drivers/STM32F3xx_HAL_Driver/Src/stm32f3xx_hal_gpio.c **** 
 160:Drivers/STM32F3xx_HAL_Driver/Src/stm32f3xx_hal_gpio.c **** @endverbatim
 161:Drivers/STM32F3xx_HAL_Driver/Src/stm32f3xx_hal_gpio.c ****   * @{
 162:Drivers/STM32F3xx_HAL_Driver/Src/stm32f3xx_hal_gpio.c ****   */
 163:Drivers/STM32F3xx_HAL_Driver/Src/stm32f3xx_hal_gpio.c **** 
 164:Drivers/STM32F3xx_HAL_Driver/Src/stm32f3xx_hal_gpio.c **** /**
 165:Drivers/STM32F3xx_HAL_Driver/Src/stm32f3xx_hal_gpio.c ****   * @brief  Initialize the GPIOx peripheral according to the specified parameters in the GPIO_Init.
 166:Drivers/STM32F3xx_HAL_Driver/Src/stm32f3xx_hal_gpio.c ****   * @param  GPIOx where x can be (A..F) to select the GPIO peripheral for STM32F3 family devices
 167:Drivers/STM32F3xx_HAL_Driver/Src/stm32f3xx_hal_gpio.c ****   * @param  GPIO_Init pointer to a GPIO_InitTypeDef structure that contains
 168:Drivers/STM32F3xx_HAL_Driver/Src/stm32f3xx_hal_gpio.c ****   *         the configuration information for the specified GPIO peripheral.
 169:Drivers/STM32F3xx_HAL_Driver/Src/stm32f3xx_hal_gpio.c ****   * @retval None
 170:Drivers/STM32F3xx_HAL_Driver/Src/stm32f3xx_hal_gpio.c ****   */
 171:Drivers/STM32F3xx_HAL_Driver/Src/stm32f3xx_hal_gpio.c **** void HAL_GPIO_Init(GPIO_TypeDef  *GPIOx, GPIO_InitTypeDef *GPIO_Init)
 172:Drivers/STM32F3xx_HAL_Driver/Src/stm32f3xx_hal_gpio.c **** {
  30              		.loc 1 172 1 view -0
  31              		.cfi_startproc
  32              		@ args = 0, pretend = 0, frame = 8
  33              		@ frame_needed = 0, uses_anonymous_args = 0
  34              		.loc 1 172 1 is_stmt 0 view .LVU1
  35 0000 F0B5     		push	{r4, r5, r6, r7, lr}
  36              	.LCFI0:
  37              		.cfi_def_cfa_offset 20
  38              		.cfi_offset 4, -20
  39              		.cfi_offset 5, -16
  40              		.cfi_offset 6, -12
  41              		.cfi_offset 7, -8
  42              		.cfi_offset 14, -4
  43 0002 83B0     		sub	sp, sp, #12
  44              	.LCFI1:
  45              		.cfi_def_cfa_offset 32
 173:Drivers/STM32F3xx_HAL_Driver/Src/stm32f3xx_hal_gpio.c ****   uint32_t position = 0x00u;
  46              		.loc 1 173 3 is_stmt 1 view .LVU2
  47              	.LVL1:
 174:Drivers/STM32F3xx_HAL_Driver/Src/stm32f3xx_hal_gpio.c ****   uint32_t iocurrent;
  48              		.loc 1 174 3 view .LVU3
 175:Drivers/STM32F3xx_HAL_Driver/Src/stm32f3xx_hal_gpio.c ****   uint32_t temp;
  49              		.loc 1 175 3 view .LVU4
 176:Drivers/STM32F3xx_HAL_Driver/Src/stm32f3xx_hal_gpio.c **** 
 177:Drivers/STM32F3xx_HAL_Driver/Src/stm32f3xx_hal_gpio.c ****   /* Check the parameters */
 178:Drivers/STM32F3xx_HAL_Driver/Src/stm32f3xx_hal_gpio.c ****   assert_param(IS_GPIO_ALL_INSTANCE(GPIOx));
  50              		.loc 1 178 3 view .LVU5
 179:Drivers/STM32F3xx_HAL_Driver/Src/stm32f3xx_hal_gpio.c ****   assert_param(IS_GPIO_PIN(GPIO_Init->Pin));
ARM GAS  /tmp/ccaSjaV7.s 			page 5


  51              		.loc 1 179 3 view .LVU6
 180:Drivers/STM32F3xx_HAL_Driver/Src/stm32f3xx_hal_gpio.c ****   assert_param(IS_GPIO_MODE(GPIO_Init->Mode));
  52              		.loc 1 180 3 view .LVU7
 181:Drivers/STM32F3xx_HAL_Driver/Src/stm32f3xx_hal_gpio.c **** 
 182:Drivers/STM32F3xx_HAL_Driver/Src/stm32f3xx_hal_gpio.c ****   /* Configure the port pins */
 183:Drivers/STM32F3xx_HAL_Driver/Src/stm32f3xx_hal_gpio.c ****   while (((GPIO_Init->Pin) >> position) != 0x00u)
  53              		.loc 1 183 3 view .LVU8
 173:Drivers/STM32F3xx_HAL_Driver/Src/stm32f3xx_hal_gpio.c ****   uint32_t iocurrent;
  54              		.loc 1 173 12 is_stmt 0 view .LVU9
  55 0004 0023     		movs	r3, #0
  56              		.loc 1 183 9 view .LVU10
  57 0006 62E0     		b	.L2
  58              	.LVL2:
  59              	.L19:
 184:Drivers/STM32F3xx_HAL_Driver/Src/stm32f3xx_hal_gpio.c ****   {
 185:Drivers/STM32F3xx_HAL_Driver/Src/stm32f3xx_hal_gpio.c ****     /* Get current io position */
 186:Drivers/STM32F3xx_HAL_Driver/Src/stm32f3xx_hal_gpio.c ****     iocurrent = (GPIO_Init->Pin) & (1uL << position);
 187:Drivers/STM32F3xx_HAL_Driver/Src/stm32f3xx_hal_gpio.c **** 
 188:Drivers/STM32F3xx_HAL_Driver/Src/stm32f3xx_hal_gpio.c ****     if (iocurrent != 0x00u)
 189:Drivers/STM32F3xx_HAL_Driver/Src/stm32f3xx_hal_gpio.c ****     {
 190:Drivers/STM32F3xx_HAL_Driver/Src/stm32f3xx_hal_gpio.c ****       /*--------------------- GPIO Mode Configuration ------------------------*/
 191:Drivers/STM32F3xx_HAL_Driver/Src/stm32f3xx_hal_gpio.c ****       /* In case of Output or Alternate function mode selection */
 192:Drivers/STM32F3xx_HAL_Driver/Src/stm32f3xx_hal_gpio.c ****       if(((GPIO_Init->Mode & GPIO_MODE) == MODE_OUTPUT) || ((GPIO_Init->Mode & GPIO_MODE) == MODE_A
 193:Drivers/STM32F3xx_HAL_Driver/Src/stm32f3xx_hal_gpio.c ****       {
 194:Drivers/STM32F3xx_HAL_Driver/Src/stm32f3xx_hal_gpio.c ****         /* Check the Speed parameter */
 195:Drivers/STM32F3xx_HAL_Driver/Src/stm32f3xx_hal_gpio.c ****         assert_param(IS_GPIO_SPEED(GPIO_Init->Speed));
  60              		.loc 1 195 9 is_stmt 1 view .LVU11
 196:Drivers/STM32F3xx_HAL_Driver/Src/stm32f3xx_hal_gpio.c ****         /* Configure the IO Speed */
 197:Drivers/STM32F3xx_HAL_Driver/Src/stm32f3xx_hal_gpio.c ****         temp = GPIOx->OSPEEDR;
  61              		.loc 1 197 9 view .LVU12
  62              		.loc 1 197 14 is_stmt 0 view .LVU13
  63 0008 8568     		ldr	r5, [r0, #8]
  64              	.LVL3:
 198:Drivers/STM32F3xx_HAL_Driver/Src/stm32f3xx_hal_gpio.c ****         temp &= ~(GPIO_OSPEEDER_OSPEEDR0 << (position * 2u));
  65              		.loc 1 198 9 is_stmt 1 view .LVU14
  66              		.loc 1 198 55 is_stmt 0 view .LVU15
  67 000a 5E00     		lsls	r6, r3, #1
  68              		.loc 1 198 42 view .LVU16
  69 000c 0324     		movs	r4, #3
  70 000e B440     		lsls	r4, r4, r6
  71              		.loc 1 198 14 view .LVU17
  72 0010 25EA0405 		bic	r5, r5, r4
  73              	.LVL4:
 199:Drivers/STM32F3xx_HAL_Driver/Src/stm32f3xx_hal_gpio.c ****         temp |= (GPIO_Init->Speed << (position * 2u));
  74              		.loc 1 199 9 is_stmt 1 view .LVU18
  75              		.loc 1 199 27 is_stmt 0 view .LVU19
  76 0014 CC68     		ldr	r4, [r1, #12]
  77              		.loc 1 199 35 view .LVU20
  78 0016 B440     		lsls	r4, r4, r6
  79              		.loc 1 199 14 view .LVU21
  80 0018 2C43     		orrs	r4, r4, r5
  81              	.LVL5:
 200:Drivers/STM32F3xx_HAL_Driver/Src/stm32f3xx_hal_gpio.c ****         GPIOx->OSPEEDR = temp;
  82              		.loc 1 200 9 is_stmt 1 view .LVU22
  83              		.loc 1 200 24 is_stmt 0 view .LVU23
  84 001a 8460     		str	r4, [r0, #8]
 201:Drivers/STM32F3xx_HAL_Driver/Src/stm32f3xx_hal_gpio.c **** 
ARM GAS  /tmp/ccaSjaV7.s 			page 6


 202:Drivers/STM32F3xx_HAL_Driver/Src/stm32f3xx_hal_gpio.c ****         /* Configure the IO Output Type */
 203:Drivers/STM32F3xx_HAL_Driver/Src/stm32f3xx_hal_gpio.c ****         temp = GPIOx->OTYPER;
  85              		.loc 1 203 9 is_stmt 1 view .LVU24
  86              		.loc 1 203 14 is_stmt 0 view .LVU25
  87 001c 4568     		ldr	r5, [r0, #4]
  88              	.LVL6:
 204:Drivers/STM32F3xx_HAL_Driver/Src/stm32f3xx_hal_gpio.c ****         temp &= ~(GPIO_OTYPER_OT_0 << position) ;
  89              		.loc 1 204 9 is_stmt 1 view .LVU26
  90              		.loc 1 204 14 is_stmt 0 view .LVU27
  91 001e 25EA0C05 		bic	r5, r5, ip
  92              	.LVL7:
 205:Drivers/STM32F3xx_HAL_Driver/Src/stm32f3xx_hal_gpio.c ****         temp |= (((GPIO_Init->Mode & OUTPUT_TYPE) >> OUTPUT_TYPE_Pos) << position);
  93              		.loc 1 205 9 is_stmt 1 view .LVU28
  94              		.loc 1 205 29 is_stmt 0 view .LVU29
  95 0022 4C68     		ldr	r4, [r1, #4]
  96              		.loc 1 205 51 view .LVU30
  97 0024 C4F30014 		ubfx	r4, r4, #4, #1
  98              		.loc 1 205 71 view .LVU31
  99 0028 9C40     		lsls	r4, r4, r3
 100              		.loc 1 205 14 view .LVU32
 101 002a 2C43     		orrs	r4, r4, r5
 102              	.LVL8:
 206:Drivers/STM32F3xx_HAL_Driver/Src/stm32f3xx_hal_gpio.c ****         GPIOx->OTYPER = temp;
 103              		.loc 1 206 9 is_stmt 1 view .LVU33
 104              		.loc 1 206 23 is_stmt 0 view .LVU34
 105 002c 4460     		str	r4, [r0, #4]
 106 002e 5FE0     		b	.L4
 107              	.LVL9:
 108              	.L20:
 207:Drivers/STM32F3xx_HAL_Driver/Src/stm32f3xx_hal_gpio.c ****       }
 208:Drivers/STM32F3xx_HAL_Driver/Src/stm32f3xx_hal_gpio.c **** 
 209:Drivers/STM32F3xx_HAL_Driver/Src/stm32f3xx_hal_gpio.c ****       if((GPIO_Init->Mode & GPIO_MODE) != MODE_ANALOG)
 210:Drivers/STM32F3xx_HAL_Driver/Src/stm32f3xx_hal_gpio.c ****       {
 211:Drivers/STM32F3xx_HAL_Driver/Src/stm32f3xx_hal_gpio.c ****         /* Check the Pull parameter */
 212:Drivers/STM32F3xx_HAL_Driver/Src/stm32f3xx_hal_gpio.c ****         assert_param(IS_GPIO_PULL(GPIO_Init->Pull));
 213:Drivers/STM32F3xx_HAL_Driver/Src/stm32f3xx_hal_gpio.c **** 
 214:Drivers/STM32F3xx_HAL_Driver/Src/stm32f3xx_hal_gpio.c ****         /* Activate the Pull-up or Pull down resistor for the current IO */
 215:Drivers/STM32F3xx_HAL_Driver/Src/stm32f3xx_hal_gpio.c ****         temp = GPIOx->PUPDR;
 216:Drivers/STM32F3xx_HAL_Driver/Src/stm32f3xx_hal_gpio.c ****         temp &= ~(GPIO_PUPDR_PUPDR0 << (position * 2u));
 217:Drivers/STM32F3xx_HAL_Driver/Src/stm32f3xx_hal_gpio.c ****         temp |= ((GPIO_Init->Pull) << (position * 2u));
 218:Drivers/STM32F3xx_HAL_Driver/Src/stm32f3xx_hal_gpio.c ****         GPIOx->PUPDR = temp;
 219:Drivers/STM32F3xx_HAL_Driver/Src/stm32f3xx_hal_gpio.c ****       }
 220:Drivers/STM32F3xx_HAL_Driver/Src/stm32f3xx_hal_gpio.c **** 
 221:Drivers/STM32F3xx_HAL_Driver/Src/stm32f3xx_hal_gpio.c ****       /*--------------------- GPIO Mode Configuration ------------------------*/
 222:Drivers/STM32F3xx_HAL_Driver/Src/stm32f3xx_hal_gpio.c ****       /* In case of Alternate function mode selection */
 223:Drivers/STM32F3xx_HAL_Driver/Src/stm32f3xx_hal_gpio.c ****       if((GPIO_Init->Mode & GPIO_MODE) == MODE_AF)
 224:Drivers/STM32F3xx_HAL_Driver/Src/stm32f3xx_hal_gpio.c ****       {
 225:Drivers/STM32F3xx_HAL_Driver/Src/stm32f3xx_hal_gpio.c ****         /* Check the Alternate function parameters */
 226:Drivers/STM32F3xx_HAL_Driver/Src/stm32f3xx_hal_gpio.c ****         assert_param(IS_GPIO_AF_INSTANCE(GPIOx));
 109              		.loc 1 226 9 is_stmt 1 view .LVU35
 227:Drivers/STM32F3xx_HAL_Driver/Src/stm32f3xx_hal_gpio.c ****         assert_param(IS_GPIO_AF(GPIO_Init->Alternate));
 110              		.loc 1 227 9 view .LVU36
 228:Drivers/STM32F3xx_HAL_Driver/Src/stm32f3xx_hal_gpio.c **** 
 229:Drivers/STM32F3xx_HAL_Driver/Src/stm32f3xx_hal_gpio.c ****         /* Configure Alternate function mapped with the current IO */
 230:Drivers/STM32F3xx_HAL_Driver/Src/stm32f3xx_hal_gpio.c ****         temp = GPIOx->AFR[position >> 3u];
 111              		.loc 1 230 9 view .LVU37
 112              		.loc 1 230 36 is_stmt 0 view .LVU38
ARM GAS  /tmp/ccaSjaV7.s 			page 7


 113 0030 DD08     		lsrs	r5, r3, #3
 114              		.loc 1 230 14 view .LVU39
 115 0032 0835     		adds	r5, r5, #8
 116 0034 50F82540 		ldr	r4, [r0, r5, lsl #2]
 117              	.LVL10:
 231:Drivers/STM32F3xx_HAL_Driver/Src/stm32f3xx_hal_gpio.c ****         temp &= ~(0xFu << ((position & 0x07u) * 4u));
 118              		.loc 1 231 9 is_stmt 1 view .LVU40
 119              		.loc 1 231 38 is_stmt 0 view .LVU41
 120 0038 03F0070C 		and	ip, r3, #7
 121              		.loc 1 231 47 view .LVU42
 122 003c 4FEA8C0C 		lsl	ip, ip, #2
 123              		.loc 1 231 24 view .LVU43
 124 0040 4FF00F0E 		mov	lr, #15
 125 0044 0EFA0CFE 		lsl	lr, lr, ip
 126              		.loc 1 231 14 view .LVU44
 127 0048 24EA0E0E 		bic	lr, r4, lr
 128              	.LVL11:
 232:Drivers/STM32F3xx_HAL_Driver/Src/stm32f3xx_hal_gpio.c ****         temp |= ((GPIO_Init->Alternate) << ((position & 0x07u) * 4u));
 129              		.loc 1 232 9 is_stmt 1 view .LVU45
 130              		.loc 1 232 28 is_stmt 0 view .LVU46
 131 004c 0C69     		ldr	r4, [r1, #16]
 132              		.loc 1 232 41 view .LVU47
 133 004e 04FA0CF4 		lsl	r4, r4, ip
 134              		.loc 1 232 14 view .LVU48
 135 0052 44EA0E04 		orr	r4, r4, lr
 136              	.LVL12:
 233:Drivers/STM32F3xx_HAL_Driver/Src/stm32f3xx_hal_gpio.c ****         GPIOx->AFR[position >> 3u] = temp;
 137              		.loc 1 233 9 is_stmt 1 view .LVU49
 138              		.loc 1 233 36 is_stmt 0 view .LVU50
 139 0056 40F82540 		str	r4, [r0, r5, lsl #2]
 140 005a 60E0     		b	.L6
 141              	.LVL13:
 142              	.L21:
 234:Drivers/STM32F3xx_HAL_Driver/Src/stm32f3xx_hal_gpio.c ****       }
 235:Drivers/STM32F3xx_HAL_Driver/Src/stm32f3xx_hal_gpio.c **** 
 236:Drivers/STM32F3xx_HAL_Driver/Src/stm32f3xx_hal_gpio.c ****       /* Configure IO Direction mode (Input, Output, Alternate or Analog) */
 237:Drivers/STM32F3xx_HAL_Driver/Src/stm32f3xx_hal_gpio.c ****       temp = GPIOx->MODER;
 238:Drivers/STM32F3xx_HAL_Driver/Src/stm32f3xx_hal_gpio.c ****       temp &= ~(GPIO_MODER_MODER0 << (position * 2u));
 239:Drivers/STM32F3xx_HAL_Driver/Src/stm32f3xx_hal_gpio.c ****       temp |= ((GPIO_Init->Mode & GPIO_MODE) << (position * 2u));
 240:Drivers/STM32F3xx_HAL_Driver/Src/stm32f3xx_hal_gpio.c ****       GPIOx->MODER = temp;
 241:Drivers/STM32F3xx_HAL_Driver/Src/stm32f3xx_hal_gpio.c **** 
 242:Drivers/STM32F3xx_HAL_Driver/Src/stm32f3xx_hal_gpio.c ****       /*--------------------- EXTI Mode Configuration ------------------------*/
 243:Drivers/STM32F3xx_HAL_Driver/Src/stm32f3xx_hal_gpio.c ****       /* Configure the External Interrupt or event for the current IO */
 244:Drivers/STM32F3xx_HAL_Driver/Src/stm32f3xx_hal_gpio.c ****       if((GPIO_Init->Mode & EXTI_MODE) != 0x00u)
 245:Drivers/STM32F3xx_HAL_Driver/Src/stm32f3xx_hal_gpio.c ****       {
 246:Drivers/STM32F3xx_HAL_Driver/Src/stm32f3xx_hal_gpio.c ****         /* Enable SYSCFG Clock */
 247:Drivers/STM32F3xx_HAL_Driver/Src/stm32f3xx_hal_gpio.c ****         __HAL_RCC_SYSCFG_CLK_ENABLE();
 248:Drivers/STM32F3xx_HAL_Driver/Src/stm32f3xx_hal_gpio.c **** 
 249:Drivers/STM32F3xx_HAL_Driver/Src/stm32f3xx_hal_gpio.c ****         temp = SYSCFG->EXTICR[position >> 2u];
 250:Drivers/STM32F3xx_HAL_Driver/Src/stm32f3xx_hal_gpio.c ****         temp &= ~(0x0FuL << (4u * (position & 0x03u)));
 251:Drivers/STM32F3xx_HAL_Driver/Src/stm32f3xx_hal_gpio.c ****         temp |= (GPIO_GET_INDEX(GPIOx) << (4u * (position & 0x03u)));
 143              		.loc 1 251 18 view .LVU51
 144 005c 0324     		movs	r4, #3
 145 005e 00E0     		b	.L7
 146              	.L13:
 147 0060 0024     		movs	r4, #0
 148              	.L7:
ARM GAS  /tmp/ccaSjaV7.s 			page 8


 149              		.loc 1 251 40 discriminator 16 view .LVU52
 150 0062 04FA0EF4 		lsl	r4, r4, lr
 151              		.loc 1 251 14 discriminator 16 view .LVU53
 152 0066 2C43     		orrs	r4, r4, r5
 153              	.LVL14:
 252:Drivers/STM32F3xx_HAL_Driver/Src/stm32f3xx_hal_gpio.c ****         SYSCFG->EXTICR[position >> 2u] = temp;
 154              		.loc 1 252 9 is_stmt 1 discriminator 16 view .LVU54
 155              		.loc 1 252 40 is_stmt 0 discriminator 16 view .LVU55
 156 0068 0CF1020C 		add	ip, ip, #2
 157 006c 4F4D     		ldr	r5, .L22
 158 006e 45F82C40 		str	r4, [r5, ip, lsl #2]
 253:Drivers/STM32F3xx_HAL_Driver/Src/stm32f3xx_hal_gpio.c **** 
 254:Drivers/STM32F3xx_HAL_Driver/Src/stm32f3xx_hal_gpio.c ****         /* Clear EXTI line configuration */
 255:Drivers/STM32F3xx_HAL_Driver/Src/stm32f3xx_hal_gpio.c ****         temp = EXTI->IMR;
 159              		.loc 1 255 9 is_stmt 1 discriminator 16 view .LVU56
 160              		.loc 1 255 14 is_stmt 0 discriminator 16 view .LVU57
 161 0072 4F4C     		ldr	r4, .L22+4
 162              	.LVL15:
 163              		.loc 1 255 14 discriminator 16 view .LVU58
 164 0074 2568     		ldr	r5, [r4]
 165              	.LVL16:
 256:Drivers/STM32F3xx_HAL_Driver/Src/stm32f3xx_hal_gpio.c ****         temp &= ~(iocurrent);
 166              		.loc 1 256 9 is_stmt 1 discriminator 16 view .LVU59
 167              		.loc 1 256 17 is_stmt 0 discriminator 16 view .LVU60
 168 0076 D443     		mvns	r4, r2
 169              		.loc 1 256 14 discriminator 16 view .LVU61
 170 0078 25EA0206 		bic	r6, r5, r2
 171              	.LVL17:
 257:Drivers/STM32F3xx_HAL_Driver/Src/stm32f3xx_hal_gpio.c ****         if((GPIO_Init->Mode & EXTI_IT) != 0x00u)
 172              		.loc 1 257 9 is_stmt 1 discriminator 16 view .LVU62
 173              		.loc 1 257 11 is_stmt 0 discriminator 16 view .LVU63
 174 007c 4F68     		ldr	r7, [r1, #4]
 175 007e 17F4803F 		tst	r7, #65536
 176 0082 01D0     		beq	.L8
 258:Drivers/STM32F3xx_HAL_Driver/Src/stm32f3xx_hal_gpio.c ****         {
 259:Drivers/STM32F3xx_HAL_Driver/Src/stm32f3xx_hal_gpio.c ****           temp |= iocurrent;
 177              		.loc 1 259 11 is_stmt 1 view .LVU64
 178              		.loc 1 259 16 is_stmt 0 view .LVU65
 179 0084 42EA0506 		orr	r6, r2, r5
 180              	.LVL18:
 181              	.L8:
 260:Drivers/STM32F3xx_HAL_Driver/Src/stm32f3xx_hal_gpio.c ****         }
 261:Drivers/STM32F3xx_HAL_Driver/Src/stm32f3xx_hal_gpio.c ****         EXTI->IMR = temp;
 182              		.loc 1 261 9 is_stmt 1 view .LVU66
 183              		.loc 1 261 19 is_stmt 0 view .LVU67
 184 0088 494D     		ldr	r5, .L22+4
 185 008a 2E60     		str	r6, [r5]
 262:Drivers/STM32F3xx_HAL_Driver/Src/stm32f3xx_hal_gpio.c **** 
 263:Drivers/STM32F3xx_HAL_Driver/Src/stm32f3xx_hal_gpio.c ****         temp = EXTI->EMR;
 186              		.loc 1 263 9 is_stmt 1 view .LVU68
 187              		.loc 1 263 14 is_stmt 0 view .LVU69
 188 008c 6D68     		ldr	r5, [r5, #4]
 189              	.LVL19:
 264:Drivers/STM32F3xx_HAL_Driver/Src/stm32f3xx_hal_gpio.c ****         temp &= ~(iocurrent);
 190              		.loc 1 264 9 is_stmt 1 view .LVU70
 191              		.loc 1 264 14 is_stmt 0 view .LVU71
 192 008e 04EA0506 		and	r6, r4, r5
ARM GAS  /tmp/ccaSjaV7.s 			page 9


 193              	.LVL20:
 265:Drivers/STM32F3xx_HAL_Driver/Src/stm32f3xx_hal_gpio.c ****         if((GPIO_Init->Mode & EXTI_EVT) != 0x00u)
 194              		.loc 1 265 9 is_stmt 1 view .LVU72
 195              		.loc 1 265 11 is_stmt 0 view .LVU73
 196 0092 4F68     		ldr	r7, [r1, #4]
 197 0094 17F4003F 		tst	r7, #131072
 198 0098 01D0     		beq	.L9
 266:Drivers/STM32F3xx_HAL_Driver/Src/stm32f3xx_hal_gpio.c ****         {
 267:Drivers/STM32F3xx_HAL_Driver/Src/stm32f3xx_hal_gpio.c ****           temp |= iocurrent;
 199              		.loc 1 267 11 is_stmt 1 view .LVU74
 200              		.loc 1 267 16 is_stmt 0 view .LVU75
 201 009a 42EA0506 		orr	r6, r2, r5
 202              	.LVL21:
 203              	.L9:
 268:Drivers/STM32F3xx_HAL_Driver/Src/stm32f3xx_hal_gpio.c ****         }
 269:Drivers/STM32F3xx_HAL_Driver/Src/stm32f3xx_hal_gpio.c ****         EXTI->EMR = temp;
 204              		.loc 1 269 9 is_stmt 1 view .LVU76
 205              		.loc 1 269 19 is_stmt 0 view .LVU77
 206 009e 444D     		ldr	r5, .L22+4
 207 00a0 6E60     		str	r6, [r5, #4]
 270:Drivers/STM32F3xx_HAL_Driver/Src/stm32f3xx_hal_gpio.c **** 
 271:Drivers/STM32F3xx_HAL_Driver/Src/stm32f3xx_hal_gpio.c ****         /* Clear Rising Falling edge configuration */
 272:Drivers/STM32F3xx_HAL_Driver/Src/stm32f3xx_hal_gpio.c ****         temp = EXTI->RTSR;
 208              		.loc 1 272 9 is_stmt 1 view .LVU78
 209              		.loc 1 272 14 is_stmt 0 view .LVU79
 210 00a2 AD68     		ldr	r5, [r5, #8]
 211              	.LVL22:
 273:Drivers/STM32F3xx_HAL_Driver/Src/stm32f3xx_hal_gpio.c ****         temp &= ~(iocurrent);
 212              		.loc 1 273 9 is_stmt 1 view .LVU80
 213              		.loc 1 273 14 is_stmt 0 view .LVU81
 214 00a4 04EA0506 		and	r6, r4, r5
 215              	.LVL23:
 274:Drivers/STM32F3xx_HAL_Driver/Src/stm32f3xx_hal_gpio.c ****         if((GPIO_Init->Mode & TRIGGER_RISING) != 0x00u)
 216              		.loc 1 274 9 is_stmt 1 view .LVU82
 217              		.loc 1 274 11 is_stmt 0 view .LVU83
 218 00a8 4F68     		ldr	r7, [r1, #4]
 219 00aa 17F4801F 		tst	r7, #1048576
 220 00ae 01D0     		beq	.L10
 275:Drivers/STM32F3xx_HAL_Driver/Src/stm32f3xx_hal_gpio.c ****         {
 276:Drivers/STM32F3xx_HAL_Driver/Src/stm32f3xx_hal_gpio.c ****           temp |= iocurrent;
 221              		.loc 1 276 11 is_stmt 1 view .LVU84
 222              		.loc 1 276 16 is_stmt 0 view .LVU85
 223 00b0 42EA0506 		orr	r6, r2, r5
 224              	.LVL24:
 225              	.L10:
 277:Drivers/STM32F3xx_HAL_Driver/Src/stm32f3xx_hal_gpio.c ****         }
 278:Drivers/STM32F3xx_HAL_Driver/Src/stm32f3xx_hal_gpio.c ****         EXTI->RTSR = temp;
 226              		.loc 1 278 9 is_stmt 1 view .LVU86
 227              		.loc 1 278 20 is_stmt 0 view .LVU87
 228 00b4 3E4D     		ldr	r5, .L22+4
 229 00b6 AE60     		str	r6, [r5, #8]
 279:Drivers/STM32F3xx_HAL_Driver/Src/stm32f3xx_hal_gpio.c **** 
 280:Drivers/STM32F3xx_HAL_Driver/Src/stm32f3xx_hal_gpio.c ****         temp = EXTI->FTSR;
 230              		.loc 1 280 9 is_stmt 1 view .LVU88
 231              		.loc 1 280 14 is_stmt 0 view .LVU89
 232 00b8 ED68     		ldr	r5, [r5, #12]
 233              	.LVL25:
ARM GAS  /tmp/ccaSjaV7.s 			page 10


 281:Drivers/STM32F3xx_HAL_Driver/Src/stm32f3xx_hal_gpio.c ****         temp &= ~(iocurrent);
 234              		.loc 1 281 9 is_stmt 1 view .LVU90
 235              		.loc 1 281 14 is_stmt 0 view .LVU91
 236 00ba 2C40     		ands	r4, r4, r5
 237              	.LVL26:
 282:Drivers/STM32F3xx_HAL_Driver/Src/stm32f3xx_hal_gpio.c ****         if((GPIO_Init->Mode & TRIGGER_FALLING) != 0x00u)
 238              		.loc 1 282 9 is_stmt 1 view .LVU92
 239              		.loc 1 282 22 is_stmt 0 view .LVU93
 240 00bc 4E68     		ldr	r6, [r1, #4]
 241              		.loc 1 282 11 view .LVU94
 242 00be 16F4001F 		tst	r6, #2097152
 243 00c2 01D0     		beq	.L11
 283:Drivers/STM32F3xx_HAL_Driver/Src/stm32f3xx_hal_gpio.c ****         {
 284:Drivers/STM32F3xx_HAL_Driver/Src/stm32f3xx_hal_gpio.c ****           temp |= iocurrent;
 244              		.loc 1 284 11 is_stmt 1 view .LVU95
 245              		.loc 1 284 16 is_stmt 0 view .LVU96
 246 00c4 42EA0504 		orr	r4, r2, r5
 247              	.LVL27:
 248              	.L11:
 285:Drivers/STM32F3xx_HAL_Driver/Src/stm32f3xx_hal_gpio.c ****         }
 286:Drivers/STM32F3xx_HAL_Driver/Src/stm32f3xx_hal_gpio.c ****         EXTI->FTSR = temp;
 249              		.loc 1 286 9 is_stmt 1 view .LVU97
 250              		.loc 1 286 20 is_stmt 0 view .LVU98
 251 00c8 394A     		ldr	r2, .L22+4
 252              	.LVL28:
 253              		.loc 1 286 20 view .LVU99
 254 00ca D460     		str	r4, [r2, #12]
 255              	.LVL29:
 256              	.L3:
 287:Drivers/STM32F3xx_HAL_Driver/Src/stm32f3xx_hal_gpio.c ****       }
 288:Drivers/STM32F3xx_HAL_Driver/Src/stm32f3xx_hal_gpio.c ****     }
 289:Drivers/STM32F3xx_HAL_Driver/Src/stm32f3xx_hal_gpio.c **** 
 290:Drivers/STM32F3xx_HAL_Driver/Src/stm32f3xx_hal_gpio.c ****     position++;
 257              		.loc 1 290 5 is_stmt 1 view .LVU100
 258              		.loc 1 290 13 is_stmt 0 view .LVU101
 259 00cc 0133     		adds	r3, r3, #1
 260              	.LVL30:
 261              	.L2:
 183:Drivers/STM32F3xx_HAL_Driver/Src/stm32f3xx_hal_gpio.c ****   {
 262              		.loc 1 183 41 is_stmt 1 view .LVU102
 183:Drivers/STM32F3xx_HAL_Driver/Src/stm32f3xx_hal_gpio.c ****   {
 263              		.loc 1 183 21 is_stmt 0 view .LVU103
 264 00ce 0A68     		ldr	r2, [r1]
 183:Drivers/STM32F3xx_HAL_Driver/Src/stm32f3xx_hal_gpio.c ****   {
 265              		.loc 1 183 41 view .LVU104
 266 00d0 32FA03F4 		lsrs	r4, r2, r3
 267 00d4 68D0     		beq	.L18
 186:Drivers/STM32F3xx_HAL_Driver/Src/stm32f3xx_hal_gpio.c **** 
 268              		.loc 1 186 5 is_stmt 1 view .LVU105
 186:Drivers/STM32F3xx_HAL_Driver/Src/stm32f3xx_hal_gpio.c **** 
 269              		.loc 1 186 41 is_stmt 0 view .LVU106
 270 00d6 4FF0010C 		mov	ip, #1
 271 00da 0CFA03FC 		lsl	ip, ip, r3
 272              	.LVL31:
 188:Drivers/STM32F3xx_HAL_Driver/Src/stm32f3xx_hal_gpio.c ****     {
 273              		.loc 1 188 5 is_stmt 1 view .LVU107
 188:Drivers/STM32F3xx_HAL_Driver/Src/stm32f3xx_hal_gpio.c ****     {
ARM GAS  /tmp/ccaSjaV7.s 			page 11


 274              		.loc 1 188 8 is_stmt 0 view .LVU108
 275 00de 1CEA0202 		ands	r2, ip, r2
 276              	.LVL32:
 188:Drivers/STM32F3xx_HAL_Driver/Src/stm32f3xx_hal_gpio.c ****     {
 277              		.loc 1 188 8 view .LVU109
 278 00e2 F3D0     		beq	.L3
 192:Drivers/STM32F3xx_HAL_Driver/Src/stm32f3xx_hal_gpio.c ****       {
 279              		.loc 1 192 7 is_stmt 1 view .LVU110
 192:Drivers/STM32F3xx_HAL_Driver/Src/stm32f3xx_hal_gpio.c ****       {
 280              		.loc 1 192 21 is_stmt 0 view .LVU111
 281 00e4 4C68     		ldr	r4, [r1, #4]
 192:Drivers/STM32F3xx_HAL_Driver/Src/stm32f3xx_hal_gpio.c ****       {
 282              		.loc 1 192 28 view .LVU112
 283 00e6 04F00304 		and	r4, r4, #3
 192:Drivers/STM32F3xx_HAL_Driver/Src/stm32f3xx_hal_gpio.c ****       {
 284              		.loc 1 192 57 view .LVU113
 285 00ea 013C     		subs	r4, r4, #1
 192:Drivers/STM32F3xx_HAL_Driver/Src/stm32f3xx_hal_gpio.c ****       {
 286              		.loc 1 192 9 view .LVU114
 287 00ec 012C     		cmp	r4, #1
 288 00ee 8BD9     		bls	.L19
 289              	.L4:
 209:Drivers/STM32F3xx_HAL_Driver/Src/stm32f3xx_hal_gpio.c ****       {
 290              		.loc 1 209 7 is_stmt 1 view .LVU115
 209:Drivers/STM32F3xx_HAL_Driver/Src/stm32f3xx_hal_gpio.c ****       {
 291              		.loc 1 209 20 is_stmt 0 view .LVU116
 292 00f0 4C68     		ldr	r4, [r1, #4]
 209:Drivers/STM32F3xx_HAL_Driver/Src/stm32f3xx_hal_gpio.c ****       {
 293              		.loc 1 209 27 view .LVU117
 294 00f2 04F00304 		and	r4, r4, #3
 209:Drivers/STM32F3xx_HAL_Driver/Src/stm32f3xx_hal_gpio.c ****       {
 295              		.loc 1 209 9 view .LVU118
 296 00f6 032C     		cmp	r4, #3
 297 00f8 0CD0     		beq	.L5
 212:Drivers/STM32F3xx_HAL_Driver/Src/stm32f3xx_hal_gpio.c **** 
 298              		.loc 1 212 9 is_stmt 1 view .LVU119
 215:Drivers/STM32F3xx_HAL_Driver/Src/stm32f3xx_hal_gpio.c ****         temp &= ~(GPIO_PUPDR_PUPDR0 << (position * 2u));
 299              		.loc 1 215 9 view .LVU120
 215:Drivers/STM32F3xx_HAL_Driver/Src/stm32f3xx_hal_gpio.c ****         temp &= ~(GPIO_PUPDR_PUPDR0 << (position * 2u));
 300              		.loc 1 215 14 is_stmt 0 view .LVU121
 301 00fa C468     		ldr	r4, [r0, #12]
 302              	.LVL33:
 216:Drivers/STM32F3xx_HAL_Driver/Src/stm32f3xx_hal_gpio.c ****         temp |= ((GPIO_Init->Pull) << (position * 2u));
 303              		.loc 1 216 9 is_stmt 1 view .LVU122
 216:Drivers/STM32F3xx_HAL_Driver/Src/stm32f3xx_hal_gpio.c ****         temp |= ((GPIO_Init->Pull) << (position * 2u));
 304              		.loc 1 216 50 is_stmt 0 view .LVU123
 305 00fc 5D00     		lsls	r5, r3, #1
 216:Drivers/STM32F3xx_HAL_Driver/Src/stm32f3xx_hal_gpio.c ****         temp |= ((GPIO_Init->Pull) << (position * 2u));
 306              		.loc 1 216 37 view .LVU124
 307 00fe 4FF0030C 		mov	ip, #3
 308 0102 0CFA05FC 		lsl	ip, ip, r5
 216:Drivers/STM32F3xx_HAL_Driver/Src/stm32f3xx_hal_gpio.c ****         temp |= ((GPIO_Init->Pull) << (position * 2u));
 309              		.loc 1 216 14 view .LVU125
 310 0106 24EA0C0C 		bic	ip, r4, ip
 311              	.LVL34:
 217:Drivers/STM32F3xx_HAL_Driver/Src/stm32f3xx_hal_gpio.c ****         GPIOx->PUPDR = temp;
 312              		.loc 1 217 9 is_stmt 1 view .LVU126
ARM GAS  /tmp/ccaSjaV7.s 			page 12


 217:Drivers/STM32F3xx_HAL_Driver/Src/stm32f3xx_hal_gpio.c ****         GPIOx->PUPDR = temp;
 313              		.loc 1 217 28 is_stmt 0 view .LVU127
 314 010a 8C68     		ldr	r4, [r1, #8]
 217:Drivers/STM32F3xx_HAL_Driver/Src/stm32f3xx_hal_gpio.c ****         GPIOx->PUPDR = temp;
 315              		.loc 1 217 36 view .LVU128
 316 010c AC40     		lsls	r4, r4, r5
 217:Drivers/STM32F3xx_HAL_Driver/Src/stm32f3xx_hal_gpio.c ****         GPIOx->PUPDR = temp;
 317              		.loc 1 217 14 view .LVU129
 318 010e 44EA0C04 		orr	r4, r4, ip
 319              	.LVL35:
 218:Drivers/STM32F3xx_HAL_Driver/Src/stm32f3xx_hal_gpio.c ****       }
 320              		.loc 1 218 9 is_stmt 1 view .LVU130
 218:Drivers/STM32F3xx_HAL_Driver/Src/stm32f3xx_hal_gpio.c ****       }
 321              		.loc 1 218 22 is_stmt 0 view .LVU131
 322 0112 C460     		str	r4, [r0, #12]
 323              	.LVL36:
 324              	.L5:
 223:Drivers/STM32F3xx_HAL_Driver/Src/stm32f3xx_hal_gpio.c ****       {
 325              		.loc 1 223 7 is_stmt 1 view .LVU132
 223:Drivers/STM32F3xx_HAL_Driver/Src/stm32f3xx_hal_gpio.c ****       {
 326              		.loc 1 223 20 is_stmt 0 view .LVU133
 327 0114 4C68     		ldr	r4, [r1, #4]
 223:Drivers/STM32F3xx_HAL_Driver/Src/stm32f3xx_hal_gpio.c ****       {
 328              		.loc 1 223 27 view .LVU134
 329 0116 04F00304 		and	r4, r4, #3
 223:Drivers/STM32F3xx_HAL_Driver/Src/stm32f3xx_hal_gpio.c ****       {
 330              		.loc 1 223 9 view .LVU135
 331 011a 022C     		cmp	r4, #2
 332 011c 88D0     		beq	.L20
 333              	.L6:
 237:Drivers/STM32F3xx_HAL_Driver/Src/stm32f3xx_hal_gpio.c ****       temp &= ~(GPIO_MODER_MODER0 << (position * 2u));
 334              		.loc 1 237 7 is_stmt 1 view .LVU136
 237:Drivers/STM32F3xx_HAL_Driver/Src/stm32f3xx_hal_gpio.c ****       temp &= ~(GPIO_MODER_MODER0 << (position * 2u));
 335              		.loc 1 237 12 is_stmt 0 view .LVU137
 336 011e 0468     		ldr	r4, [r0]
 337              	.LVL37:
 238:Drivers/STM32F3xx_HAL_Driver/Src/stm32f3xx_hal_gpio.c ****       temp |= ((GPIO_Init->Mode & GPIO_MODE) << (position * 2u));
 338              		.loc 1 238 7 is_stmt 1 view .LVU138
 238:Drivers/STM32F3xx_HAL_Driver/Src/stm32f3xx_hal_gpio.c ****       temp |= ((GPIO_Init->Mode & GPIO_MODE) << (position * 2u));
 339              		.loc 1 238 48 is_stmt 0 view .LVU139
 340 0120 4FEA430E 		lsl	lr, r3, #1
 238:Drivers/STM32F3xx_HAL_Driver/Src/stm32f3xx_hal_gpio.c ****       temp |= ((GPIO_Init->Mode & GPIO_MODE) << (position * 2u));
 341              		.loc 1 238 35 view .LVU140
 342 0124 4FF0030C 		mov	ip, #3
 343 0128 0CFA0EFC 		lsl	ip, ip, lr
 238:Drivers/STM32F3xx_HAL_Driver/Src/stm32f3xx_hal_gpio.c ****       temp |= ((GPIO_Init->Mode & GPIO_MODE) << (position * 2u));
 344              		.loc 1 238 12 view .LVU141
 345 012c 24EA0C0C 		bic	ip, r4, ip
 346              	.LVL38:
 239:Drivers/STM32F3xx_HAL_Driver/Src/stm32f3xx_hal_gpio.c ****       GPIOx->MODER = temp;
 347              		.loc 1 239 7 is_stmt 1 view .LVU142
 239:Drivers/STM32F3xx_HAL_Driver/Src/stm32f3xx_hal_gpio.c ****       GPIOx->MODER = temp;
 348              		.loc 1 239 26 is_stmt 0 view .LVU143
 349 0130 4C68     		ldr	r4, [r1, #4]
 239:Drivers/STM32F3xx_HAL_Driver/Src/stm32f3xx_hal_gpio.c ****       GPIOx->MODER = temp;
 350              		.loc 1 239 33 view .LVU144
 351 0132 04F00304 		and	r4, r4, #3
ARM GAS  /tmp/ccaSjaV7.s 			page 13


 239:Drivers/STM32F3xx_HAL_Driver/Src/stm32f3xx_hal_gpio.c ****       GPIOx->MODER = temp;
 352              		.loc 1 239 46 view .LVU145
 353 0136 04FA0EF4 		lsl	r4, r4, lr
 239:Drivers/STM32F3xx_HAL_Driver/Src/stm32f3xx_hal_gpio.c ****       GPIOx->MODER = temp;
 354              		.loc 1 239 12 view .LVU146
 355 013a 44EA0C04 		orr	r4, r4, ip
 356              	.LVL39:
 240:Drivers/STM32F3xx_HAL_Driver/Src/stm32f3xx_hal_gpio.c **** 
 357              		.loc 1 240 7 is_stmt 1 view .LVU147
 240:Drivers/STM32F3xx_HAL_Driver/Src/stm32f3xx_hal_gpio.c **** 
 358              		.loc 1 240 20 is_stmt 0 view .LVU148
 359 013e 0460     		str	r4, [r0]
 244:Drivers/STM32F3xx_HAL_Driver/Src/stm32f3xx_hal_gpio.c ****       {
 360              		.loc 1 244 7 is_stmt 1 view .LVU149
 244:Drivers/STM32F3xx_HAL_Driver/Src/stm32f3xx_hal_gpio.c ****       {
 361              		.loc 1 244 20 is_stmt 0 view .LVU150
 362 0140 4C68     		ldr	r4, [r1, #4]
 363              	.LVL40:
 244:Drivers/STM32F3xx_HAL_Driver/Src/stm32f3xx_hal_gpio.c ****       {
 364              		.loc 1 244 9 view .LVU151
 365 0142 14F4403F 		tst	r4, #196608
 366 0146 C1D0     		beq	.L3
 247:Drivers/STM32F3xx_HAL_Driver/Src/stm32f3xx_hal_gpio.c **** 
 367              		.loc 1 247 9 is_stmt 1 view .LVU152
 368              	.LBB2:
 247:Drivers/STM32F3xx_HAL_Driver/Src/stm32f3xx_hal_gpio.c **** 
 369              		.loc 1 247 9 view .LVU153
 247:Drivers/STM32F3xx_HAL_Driver/Src/stm32f3xx_hal_gpio.c **** 
 370              		.loc 1 247 9 view .LVU154
 371 0148 1A4C     		ldr	r4, .L22+8
 372 014a A569     		ldr	r5, [r4, #24]
 373 014c 45F00105 		orr	r5, r5, #1
 374 0150 A561     		str	r5, [r4, #24]
 375              	.LVL41:
 247:Drivers/STM32F3xx_HAL_Driver/Src/stm32f3xx_hal_gpio.c **** 
 376              		.loc 1 247 9 view .LVU155
 377 0152 A469     		ldr	r4, [r4, #24]
 378 0154 04F00104 		and	r4, r4, #1
 379 0158 0194     		str	r4, [sp, #4]
 247:Drivers/STM32F3xx_HAL_Driver/Src/stm32f3xx_hal_gpio.c **** 
 380              		.loc 1 247 9 view .LVU156
 381 015a 019C     		ldr	r4, [sp, #4]
 382              	.LBE2:
 247:Drivers/STM32F3xx_HAL_Driver/Src/stm32f3xx_hal_gpio.c **** 
 383              		.loc 1 247 9 view .LVU157
 249:Drivers/STM32F3xx_HAL_Driver/Src/stm32f3xx_hal_gpio.c ****         temp &= ~(0x0FuL << (4u * (position & 0x03u)));
 384              		.loc 1 249 9 view .LVU158
 249:Drivers/STM32F3xx_HAL_Driver/Src/stm32f3xx_hal_gpio.c ****         temp &= ~(0x0FuL << (4u * (position & 0x03u)));
 385              		.loc 1 249 40 is_stmt 0 view .LVU159
 386 015c 4FEA930C 		lsr	ip, r3, #2
 249:Drivers/STM32F3xx_HAL_Driver/Src/stm32f3xx_hal_gpio.c ****         temp &= ~(0x0FuL << (4u * (position & 0x03u)));
 387              		.loc 1 249 14 view .LVU160
 388 0160 0CF10205 		add	r5, ip, #2
 389 0164 114C     		ldr	r4, .L22
 390 0166 54F82550 		ldr	r5, [r4, r5, lsl #2]
 391              	.LVL42:
 250:Drivers/STM32F3xx_HAL_Driver/Src/stm32f3xx_hal_gpio.c ****         temp |= (GPIO_GET_INDEX(GPIOx) << (4u * (position & 0x03u)));
ARM GAS  /tmp/ccaSjaV7.s 			page 14


 392              		.loc 1 250 9 is_stmt 1 view .LVU161
 250:Drivers/STM32F3xx_HAL_Driver/Src/stm32f3xx_hal_gpio.c ****         temp |= (GPIO_GET_INDEX(GPIOx) << (4u * (position & 0x03u)));
 393              		.loc 1 250 45 is_stmt 0 view .LVU162
 394 016a 03F0030E 		and	lr, r3, #3
 250:Drivers/STM32F3xx_HAL_Driver/Src/stm32f3xx_hal_gpio.c ****         temp |= (GPIO_GET_INDEX(GPIOx) << (4u * (position & 0x03u)));
 395              		.loc 1 250 33 view .LVU163
 396 016e 4FEA8E0E 		lsl	lr, lr, #2
 250:Drivers/STM32F3xx_HAL_Driver/Src/stm32f3xx_hal_gpio.c ****         temp |= (GPIO_GET_INDEX(GPIOx) << (4u * (position & 0x03u)));
 397              		.loc 1 250 26 view .LVU164
 398 0172 0F24     		movs	r4, #15
 399 0174 04FA0EF4 		lsl	r4, r4, lr
 250:Drivers/STM32F3xx_HAL_Driver/Src/stm32f3xx_hal_gpio.c ****         temp |= (GPIO_GET_INDEX(GPIOx) << (4u * (position & 0x03u)));
 400              		.loc 1 250 14 view .LVU165
 401 0178 25EA0405 		bic	r5, r5, r4
 402              	.LVL43:
 251:Drivers/STM32F3xx_HAL_Driver/Src/stm32f3xx_hal_gpio.c ****         SYSCFG->EXTICR[position >> 2u] = temp;
 403              		.loc 1 251 9 is_stmt 1 view .LVU166
 251:Drivers/STM32F3xx_HAL_Driver/Src/stm32f3xx_hal_gpio.c ****         SYSCFG->EXTICR[position >> 2u] = temp;
 404              		.loc 1 251 18 is_stmt 0 view .LVU167
 405 017c B0F1904F 		cmp	r0, #1207959552
 406 0180 3FF46EAF 		beq	.L13
 251:Drivers/STM32F3xx_HAL_Driver/Src/stm32f3xx_hal_gpio.c ****         SYSCFG->EXTICR[position >> 2u] = temp;
 407              		.loc 1 251 18 discriminator 1 view .LVU168
 408 0184 0C4C     		ldr	r4, .L22+12
 409 0186 A042     		cmp	r0, r4
 410 0188 0AD0     		beq	.L14
 251:Drivers/STM32F3xx_HAL_Driver/Src/stm32f3xx_hal_gpio.c ****         SYSCFG->EXTICR[position >> 2u] = temp;
 411              		.loc 1 251 18 discriminator 3 view .LVU169
 412 018a 04F58064 		add	r4, r4, #1024
 413 018e A042     		cmp	r0, r4
 414 0190 08D0     		beq	.L15
 251:Drivers/STM32F3xx_HAL_Driver/Src/stm32f3xx_hal_gpio.c ****         SYSCFG->EXTICR[position >> 2u] = temp;
 415              		.loc 1 251 18 discriminator 5 view .LVU170
 416 0192 04F58064 		add	r4, r4, #1024
 417 0196 A042     		cmp	r0, r4
 418 0198 3FF460AF 		beq	.L21
 251:Drivers/STM32F3xx_HAL_Driver/Src/stm32f3xx_hal_gpio.c ****         SYSCFG->EXTICR[position >> 2u] = temp;
 419              		.loc 1 251 18 view .LVU171
 420 019c 0524     		movs	r4, #5
 421 019e 60E7     		b	.L7
 422              	.L14:
 423 01a0 0124     		movs	r4, #1
 424 01a2 5EE7     		b	.L7
 425              	.L15:
 426 01a4 0224     		movs	r4, #2
 427 01a6 5CE7     		b	.L7
 428              	.LVL44:
 429              	.L18:
 291:Drivers/STM32F3xx_HAL_Driver/Src/stm32f3xx_hal_gpio.c ****   }
 292:Drivers/STM32F3xx_HAL_Driver/Src/stm32f3xx_hal_gpio.c **** }
 430              		.loc 1 292 1 view .LVU172
 431 01a8 03B0     		add	sp, sp, #12
 432              	.LCFI2:
 433              		.cfi_def_cfa_offset 20
 434              		@ sp needed
 435 01aa F0BD     		pop	{r4, r5, r6, r7, pc}
 436              	.L23:
ARM GAS  /tmp/ccaSjaV7.s 			page 15


 437              		.align	2
 438              	.L22:
 439 01ac 00000140 		.word	1073807360
 440 01b0 00040140 		.word	1073808384
 441 01b4 00100240 		.word	1073876992
 442 01b8 00040048 		.word	1207960576
 443              		.cfi_endproc
 444              	.LFE123:
 446              		.section	.text.HAL_GPIO_DeInit,"ax",%progbits
 447              		.align	1
 448              		.global	HAL_GPIO_DeInit
 449              		.syntax unified
 450              		.thumb
 451              		.thumb_func
 453              	HAL_GPIO_DeInit:
 454              	.LVL45:
 455              	.LFB124:
 293:Drivers/STM32F3xx_HAL_Driver/Src/stm32f3xx_hal_gpio.c **** 
 294:Drivers/STM32F3xx_HAL_Driver/Src/stm32f3xx_hal_gpio.c **** /**
 295:Drivers/STM32F3xx_HAL_Driver/Src/stm32f3xx_hal_gpio.c ****   * @brief  De-initialize the GPIOx peripheral registers to their default reset values.
 296:Drivers/STM32F3xx_HAL_Driver/Src/stm32f3xx_hal_gpio.c ****   * @param  GPIOx where x can be (A..F) to select the GPIO peripheral for STM32F30X device or STM32
 297:Drivers/STM32F3xx_HAL_Driver/Src/stm32f3xx_hal_gpio.c ****   * @param  GPIO_Pin specifies the port bit to be written.
 298:Drivers/STM32F3xx_HAL_Driver/Src/stm32f3xx_hal_gpio.c ****   *         This parameter can be one of GPIO_PIN_x where x can be (0..15).
 299:Drivers/STM32F3xx_HAL_Driver/Src/stm32f3xx_hal_gpio.c ****   * @retval None
 300:Drivers/STM32F3xx_HAL_Driver/Src/stm32f3xx_hal_gpio.c ****   */
 301:Drivers/STM32F3xx_HAL_Driver/Src/stm32f3xx_hal_gpio.c **** void HAL_GPIO_DeInit(GPIO_TypeDef  *GPIOx, uint32_t GPIO_Pin)
 302:Drivers/STM32F3xx_HAL_Driver/Src/stm32f3xx_hal_gpio.c **** {
 456              		.loc 1 302 1 is_stmt 1 view -0
 457              		.cfi_startproc
 458              		@ args = 0, pretend = 0, frame = 0
 459              		@ frame_needed = 0, uses_anonymous_args = 0
 303:Drivers/STM32F3xx_HAL_Driver/Src/stm32f3xx_hal_gpio.c ****   uint32_t position = 0x00u;
 460              		.loc 1 303 3 view .LVU174
 304:Drivers/STM32F3xx_HAL_Driver/Src/stm32f3xx_hal_gpio.c ****   uint32_t iocurrent;
 461              		.loc 1 304 3 view .LVU175
 305:Drivers/STM32F3xx_HAL_Driver/Src/stm32f3xx_hal_gpio.c ****   uint32_t tmp;
 462              		.loc 1 305 3 view .LVU176
 306:Drivers/STM32F3xx_HAL_Driver/Src/stm32f3xx_hal_gpio.c **** 
 307:Drivers/STM32F3xx_HAL_Driver/Src/stm32f3xx_hal_gpio.c ****   /* Check the parameters */
 308:Drivers/STM32F3xx_HAL_Driver/Src/stm32f3xx_hal_gpio.c ****   assert_param(IS_GPIO_ALL_INSTANCE(GPIOx));
 463              		.loc 1 308 3 view .LVU177
 309:Drivers/STM32F3xx_HAL_Driver/Src/stm32f3xx_hal_gpio.c ****   assert_param(IS_GPIO_PIN(GPIO_Pin));
 464              		.loc 1 309 3 view .LVU178
 310:Drivers/STM32F3xx_HAL_Driver/Src/stm32f3xx_hal_gpio.c **** 
 311:Drivers/STM32F3xx_HAL_Driver/Src/stm32f3xx_hal_gpio.c ****   /* Configure the port pins */
 312:Drivers/STM32F3xx_HAL_Driver/Src/stm32f3xx_hal_gpio.c ****   while ((GPIO_Pin >> position) != 0x00u)
 465              		.loc 1 312 3 view .LVU179
 303:Drivers/STM32F3xx_HAL_Driver/Src/stm32f3xx_hal_gpio.c ****   uint32_t iocurrent;
 466              		.loc 1 303 12 is_stmt 0 view .LVU180
 467 0000 0023     		movs	r3, #0
 468              	.LVL46:
 469              		.loc 1 312 33 is_stmt 1 view .LVU181
 470 0002 31FA03F2 		lsrs	r2, r1, r3
 471 0006 74D0     		beq	.L37
 302:Drivers/STM32F3xx_HAL_Driver/Src/stm32f3xx_hal_gpio.c ****   uint32_t position = 0x00u;
 472              		.loc 1 302 1 is_stmt 0 view .LVU182
 473 0008 F0B5     		push	{r4, r5, r6, r7, lr}
ARM GAS  /tmp/ccaSjaV7.s 			page 16


 474              	.LCFI3:
 475              		.cfi_def_cfa_offset 20
 476              		.cfi_offset 4, -20
 477              		.cfi_offset 5, -16
 478              		.cfi_offset 6, -12
 479              		.cfi_offset 7, -8
 480              		.cfi_offset 14, -4
 481 000a 2EE0     		b	.L29
 482              	.LVL47:
 483              	.L40:
 313:Drivers/STM32F3xx_HAL_Driver/Src/stm32f3xx_hal_gpio.c ****   {
 314:Drivers/STM32F3xx_HAL_Driver/Src/stm32f3xx_hal_gpio.c ****     /* Get current io position */
 315:Drivers/STM32F3xx_HAL_Driver/Src/stm32f3xx_hal_gpio.c ****     iocurrent = (GPIO_Pin) & (1uL << position);
 316:Drivers/STM32F3xx_HAL_Driver/Src/stm32f3xx_hal_gpio.c **** 
 317:Drivers/STM32F3xx_HAL_Driver/Src/stm32f3xx_hal_gpio.c ****     if (iocurrent != 0x00u)
 318:Drivers/STM32F3xx_HAL_Driver/Src/stm32f3xx_hal_gpio.c ****     {
 319:Drivers/STM32F3xx_HAL_Driver/Src/stm32f3xx_hal_gpio.c ****       /*------------------------- EXTI Mode Configuration --------------------*/
 320:Drivers/STM32F3xx_HAL_Driver/Src/stm32f3xx_hal_gpio.c ****       /* Clear the External Interrupt or Event for the current IO */
 321:Drivers/STM32F3xx_HAL_Driver/Src/stm32f3xx_hal_gpio.c **** 
 322:Drivers/STM32F3xx_HAL_Driver/Src/stm32f3xx_hal_gpio.c ****       tmp = SYSCFG->EXTICR[position >> 2u];
 323:Drivers/STM32F3xx_HAL_Driver/Src/stm32f3xx_hal_gpio.c ****       tmp &= (0x0FuL << (4u * (position & 0x03u)));
 324:Drivers/STM32F3xx_HAL_Driver/Src/stm32f3xx_hal_gpio.c ****       if (tmp == (GPIO_GET_INDEX(GPIOx) << (4u * (position & 0x03u))))
 484              		.loc 1 324 19 view .LVU183
 485 000c 0325     		movs	r5, #3
 486 000e 00E0     		b	.L27
 487              	.L30:
 488 0010 0025     		movs	r5, #0
 489              	.L27:
 490              		.loc 1 324 41 discriminator 16 view .LVU184
 491 0012 05FA0CF5 		lsl	r5, r5, ip
 492              		.loc 1 324 10 discriminator 16 view .LVU185
 493 0016 A542     		cmp	r5, r4
 494 0018 4FD0     		beq	.L38
 495              	.LVL48:
 496              	.L28:
 325:Drivers/STM32F3xx_HAL_Driver/Src/stm32f3xx_hal_gpio.c ****       {
 326:Drivers/STM32F3xx_HAL_Driver/Src/stm32f3xx_hal_gpio.c ****         /* Clear EXTI line configuration */
 327:Drivers/STM32F3xx_HAL_Driver/Src/stm32f3xx_hal_gpio.c ****         EXTI->IMR &= ~((uint32_t)iocurrent);
 328:Drivers/STM32F3xx_HAL_Driver/Src/stm32f3xx_hal_gpio.c ****         EXTI->EMR &= ~((uint32_t)iocurrent);
 329:Drivers/STM32F3xx_HAL_Driver/Src/stm32f3xx_hal_gpio.c ****         
 330:Drivers/STM32F3xx_HAL_Driver/Src/stm32f3xx_hal_gpio.c ****         /* Clear Rising Falling edge configuration */
 331:Drivers/STM32F3xx_HAL_Driver/Src/stm32f3xx_hal_gpio.c ****         EXTI->RTSR &= ~((uint32_t)iocurrent);
 332:Drivers/STM32F3xx_HAL_Driver/Src/stm32f3xx_hal_gpio.c ****         EXTI->FTSR &= ~((uint32_t)iocurrent);
 333:Drivers/STM32F3xx_HAL_Driver/Src/stm32f3xx_hal_gpio.c **** 
 334:Drivers/STM32F3xx_HAL_Driver/Src/stm32f3xx_hal_gpio.c ****         /* Configure the External Interrupt or event for the current IO */
 335:Drivers/STM32F3xx_HAL_Driver/Src/stm32f3xx_hal_gpio.c ****         tmp = 0x0FuL << (4u * (position & 0x03u));
 336:Drivers/STM32F3xx_HAL_Driver/Src/stm32f3xx_hal_gpio.c ****         SYSCFG->EXTICR[position >> 2u] &= ~tmp;
 337:Drivers/STM32F3xx_HAL_Driver/Src/stm32f3xx_hal_gpio.c ****       }
 338:Drivers/STM32F3xx_HAL_Driver/Src/stm32f3xx_hal_gpio.c **** 
 339:Drivers/STM32F3xx_HAL_Driver/Src/stm32f3xx_hal_gpio.c ****       /*------------------------- GPIO Mode Configuration --------------------*/
 340:Drivers/STM32F3xx_HAL_Driver/Src/stm32f3xx_hal_gpio.c ****       /* Configure IO Direction in Input Floating Mode */
 341:Drivers/STM32F3xx_HAL_Driver/Src/stm32f3xx_hal_gpio.c ****       GPIOx->MODER &= ~(GPIO_MODER_MODER0 << (position * 2u));
 497              		.loc 1 341 7 is_stmt 1 view .LVU186
 498              		.loc 1 341 20 is_stmt 0 view .LVU187
 499 001a 0468     		ldr	r4, [r0]
 500              		.loc 1 341 56 view .LVU188
 501 001c 5D00     		lsls	r5, r3, #1
ARM GAS  /tmp/ccaSjaV7.s 			page 17


 502              		.loc 1 341 43 view .LVU189
 503 001e 4FF0030C 		mov	ip, #3
 504 0022 0CFA05FC 		lsl	ip, ip, r5
 505              		.loc 1 341 20 view .LVU190
 506 0026 24EA0C04 		bic	r4, r4, ip
 507 002a 0460     		str	r4, [r0]
 342:Drivers/STM32F3xx_HAL_Driver/Src/stm32f3xx_hal_gpio.c **** 
 343:Drivers/STM32F3xx_HAL_Driver/Src/stm32f3xx_hal_gpio.c ****       /* Configure the default Alternate Function in current IO */
 344:Drivers/STM32F3xx_HAL_Driver/Src/stm32f3xx_hal_gpio.c ****       GPIOx->AFR[position >> 3u] &= ~(0xFu << ((uint32_t)(position & 0x07u) * 4u)) ;
 508              		.loc 1 344 7 is_stmt 1 view .LVU191
 509              		.loc 1 344 34 is_stmt 0 view .LVU192
 510 002c 4FEAD30E 		lsr	lr, r3, #3
 511 0030 0EF1080E 		add	lr, lr, #8
 512 0034 50F82E40 		ldr	r4, [r0, lr, lsl #2]
 513              		.loc 1 344 48 view .LVU193
 514 0038 03F00706 		and	r6, r3, #7
 515              		.loc 1 344 77 view .LVU194
 516 003c B600     		lsls	r6, r6, #2
 517              		.loc 1 344 44 view .LVU195
 518 003e 0F25     		movs	r5, #15
 519 0040 B540     		lsls	r5, r5, r6
 520              		.loc 1 344 34 view .LVU196
 521 0042 24EA0504 		bic	r4, r4, r5
 522 0046 40F82E40 		str	r4, [r0, lr, lsl #2]
 345:Drivers/STM32F3xx_HAL_Driver/Src/stm32f3xx_hal_gpio.c **** 
 346:Drivers/STM32F3xx_HAL_Driver/Src/stm32f3xx_hal_gpio.c ****       /* Deactivate the Pull-up and Pull-down resistor for the current IO */
 347:Drivers/STM32F3xx_HAL_Driver/Src/stm32f3xx_hal_gpio.c ****       GPIOx->PUPDR &= ~(GPIO_PUPDR_PUPDR0 << (position * 2u));
 523              		.loc 1 347 7 is_stmt 1 view .LVU197
 524              		.loc 1 347 20 is_stmt 0 view .LVU198
 525 004a C468     		ldr	r4, [r0, #12]
 526 004c 24EA0C04 		bic	r4, r4, ip
 527 0050 C460     		str	r4, [r0, #12]
 348:Drivers/STM32F3xx_HAL_Driver/Src/stm32f3xx_hal_gpio.c **** 
 349:Drivers/STM32F3xx_HAL_Driver/Src/stm32f3xx_hal_gpio.c ****       /* Configure the default value IO Output Type */
 350:Drivers/STM32F3xx_HAL_Driver/Src/stm32f3xx_hal_gpio.c ****       GPIOx->OTYPER  &= ~(GPIO_OTYPER_OT_0 << position) ;
 528              		.loc 1 350 7 is_stmt 1 view .LVU199
 529              		.loc 1 350 22 is_stmt 0 view .LVU200
 530 0052 4468     		ldr	r4, [r0, #4]
 531 0054 24EA0202 		bic	r2, r4, r2
 532              	.LVL49:
 533              		.loc 1 350 22 view .LVU201
 534 0058 4260     		str	r2, [r0, #4]
 351:Drivers/STM32F3xx_HAL_Driver/Src/stm32f3xx_hal_gpio.c **** 
 352:Drivers/STM32F3xx_HAL_Driver/Src/stm32f3xx_hal_gpio.c ****       /* Configure the default value for IO Speed */
 353:Drivers/STM32F3xx_HAL_Driver/Src/stm32f3xx_hal_gpio.c ****       GPIOx->OSPEEDR &= ~(GPIO_OSPEEDER_OSPEEDR0 << (position * 2u));
 535              		.loc 1 353 7 is_stmt 1 view .LVU202
 536              		.loc 1 353 22 is_stmt 0 view .LVU203
 537 005a 8268     		ldr	r2, [r0, #8]
 538 005c 22EA0C02 		bic	r2, r2, ip
 539 0060 8260     		str	r2, [r0, #8]
 540              	.L26:
 354:Drivers/STM32F3xx_HAL_Driver/Src/stm32f3xx_hal_gpio.c ****     }
 355:Drivers/STM32F3xx_HAL_Driver/Src/stm32f3xx_hal_gpio.c **** 
 356:Drivers/STM32F3xx_HAL_Driver/Src/stm32f3xx_hal_gpio.c ****     position++;
 541              		.loc 1 356 5 is_stmt 1 view .LVU204
 542              		.loc 1 356 13 is_stmt 0 view .LVU205
 543 0062 0133     		adds	r3, r3, #1
ARM GAS  /tmp/ccaSjaV7.s 			page 18


 544              	.LVL50:
 312:Drivers/STM32F3xx_HAL_Driver/Src/stm32f3xx_hal_gpio.c ****   {
 545              		.loc 1 312 33 is_stmt 1 view .LVU206
 546 0064 31FA03F2 		lsrs	r2, r1, r3
 547 0068 42D0     		beq	.L39
 548              	.LVL51:
 549              	.L29:
 315:Drivers/STM32F3xx_HAL_Driver/Src/stm32f3xx_hal_gpio.c **** 
 550              		.loc 1 315 5 view .LVU207
 315:Drivers/STM32F3xx_HAL_Driver/Src/stm32f3xx_hal_gpio.c **** 
 551              		.loc 1 315 35 is_stmt 0 view .LVU208
 552 006a 0122     		movs	r2, #1
 553 006c 9A40     		lsls	r2, r2, r3
 554              	.LVL52:
 317:Drivers/STM32F3xx_HAL_Driver/Src/stm32f3xx_hal_gpio.c ****     {
 555              		.loc 1 317 5 is_stmt 1 view .LVU209
 317:Drivers/STM32F3xx_HAL_Driver/Src/stm32f3xx_hal_gpio.c ****     {
 556              		.loc 1 317 8 is_stmt 0 view .LVU210
 557 006e 12EA0107 		ands	r7, r2, r1
 558              	.LVL53:
 317:Drivers/STM32F3xx_HAL_Driver/Src/stm32f3xx_hal_gpio.c ****     {
 559              		.loc 1 317 8 view .LVU211
 560 0072 F6D0     		beq	.L26
 322:Drivers/STM32F3xx_HAL_Driver/Src/stm32f3xx_hal_gpio.c ****       tmp &= (0x0FuL << (4u * (position & 0x03u)));
 561              		.loc 1 322 7 is_stmt 1 view .LVU212
 322:Drivers/STM32F3xx_HAL_Driver/Src/stm32f3xx_hal_gpio.c ****       tmp &= (0x0FuL << (4u * (position & 0x03u)));
 562              		.loc 1 322 37 is_stmt 0 view .LVU213
 563 0074 4FEA930E 		lsr	lr, r3, #2
 322:Drivers/STM32F3xx_HAL_Driver/Src/stm32f3xx_hal_gpio.c ****       tmp &= (0x0FuL << (4u * (position & 0x03u)));
 564              		.loc 1 322 11 view .LVU214
 565 0078 0EF10205 		add	r5, lr, #2
 566 007c 1D4C     		ldr	r4, .L41
 567 007e 54F82540 		ldr	r4, [r4, r5, lsl #2]
 568              	.LVL54:
 323:Drivers/STM32F3xx_HAL_Driver/Src/stm32f3xx_hal_gpio.c ****       if (tmp == (GPIO_GET_INDEX(GPIOx) << (4u * (position & 0x03u))))
 569              		.loc 1 323 7 is_stmt 1 view .LVU215
 323:Drivers/STM32F3xx_HAL_Driver/Src/stm32f3xx_hal_gpio.c ****       if (tmp == (GPIO_GET_INDEX(GPIOx) << (4u * (position & 0x03u))))
 570              		.loc 1 323 41 is_stmt 0 view .LVU216
 571 0082 03F0030C 		and	ip, r3, #3
 323:Drivers/STM32F3xx_HAL_Driver/Src/stm32f3xx_hal_gpio.c ****       if (tmp == (GPIO_GET_INDEX(GPIOx) << (4u * (position & 0x03u))))
 572              		.loc 1 323 29 view .LVU217
 573 0086 4FEA8C0C 		lsl	ip, ip, #2
 323:Drivers/STM32F3xx_HAL_Driver/Src/stm32f3xx_hal_gpio.c ****       if (tmp == (GPIO_GET_INDEX(GPIOx) << (4u * (position & 0x03u))))
 574              		.loc 1 323 22 view .LVU218
 575 008a 0F25     		movs	r5, #15
 576 008c 05FA0CF6 		lsl	r6, r5, ip
 323:Drivers/STM32F3xx_HAL_Driver/Src/stm32f3xx_hal_gpio.c ****       if (tmp == (GPIO_GET_INDEX(GPIOx) << (4u * (position & 0x03u))))
 577              		.loc 1 323 11 view .LVU219
 578 0090 3440     		ands	r4, r4, r6
 579              	.LVL55:
 324:Drivers/STM32F3xx_HAL_Driver/Src/stm32f3xx_hal_gpio.c ****       {
 580              		.loc 1 324 7 is_stmt 1 view .LVU220
 324:Drivers/STM32F3xx_HAL_Driver/Src/stm32f3xx_hal_gpio.c ****       {
 581              		.loc 1 324 19 is_stmt 0 view .LVU221
 582 0092 B0F1904F 		cmp	r0, #1207959552
 583 0096 BBD0     		beq	.L30
 324:Drivers/STM32F3xx_HAL_Driver/Src/stm32f3xx_hal_gpio.c ****       {
ARM GAS  /tmp/ccaSjaV7.s 			page 19


 584              		.loc 1 324 19 discriminator 1 view .LVU222
 585 0098 174D     		ldr	r5, .L41+4
 586 009a A842     		cmp	r0, r5
 587 009c 09D0     		beq	.L31
 324:Drivers/STM32F3xx_HAL_Driver/Src/stm32f3xx_hal_gpio.c ****       {
 588              		.loc 1 324 19 discriminator 3 view .LVU223
 589 009e 05F58065 		add	r5, r5, #1024
 590 00a2 A842     		cmp	r0, r5
 591 00a4 07D0     		beq	.L32
 324:Drivers/STM32F3xx_HAL_Driver/Src/stm32f3xx_hal_gpio.c ****       {
 592              		.loc 1 324 19 discriminator 5 view .LVU224
 593 00a6 05F58065 		add	r5, r5, #1024
 594 00aa A842     		cmp	r0, r5
 595 00ac AED0     		beq	.L40
 324:Drivers/STM32F3xx_HAL_Driver/Src/stm32f3xx_hal_gpio.c ****       {
 596              		.loc 1 324 19 view .LVU225
 597 00ae 0525     		movs	r5, #5
 598 00b0 AFE7     		b	.L27
 599              	.L31:
 600 00b2 0125     		movs	r5, #1
 601 00b4 ADE7     		b	.L27
 602              	.L32:
 603 00b6 0225     		movs	r5, #2
 604 00b8 ABE7     		b	.L27
 605              	.L38:
 327:Drivers/STM32F3xx_HAL_Driver/Src/stm32f3xx_hal_gpio.c ****         EXTI->EMR &= ~((uint32_t)iocurrent);
 606              		.loc 1 327 9 is_stmt 1 view .LVU226
 327:Drivers/STM32F3xx_HAL_Driver/Src/stm32f3xx_hal_gpio.c ****         EXTI->EMR &= ~((uint32_t)iocurrent);
 607              		.loc 1 327 19 is_stmt 0 view .LVU227
 608 00ba 104C     		ldr	r4, .L41+8
 609              	.LVL56:
 327:Drivers/STM32F3xx_HAL_Driver/Src/stm32f3xx_hal_gpio.c ****         EXTI->EMR &= ~((uint32_t)iocurrent);
 610              		.loc 1 327 19 view .LVU228
 611 00bc 2568     		ldr	r5, [r4]
 612 00be 25EA0705 		bic	r5, r5, r7
 613 00c2 2560     		str	r5, [r4]
 328:Drivers/STM32F3xx_HAL_Driver/Src/stm32f3xx_hal_gpio.c ****         
 614              		.loc 1 328 9 is_stmt 1 view .LVU229
 328:Drivers/STM32F3xx_HAL_Driver/Src/stm32f3xx_hal_gpio.c ****         
 615              		.loc 1 328 19 is_stmt 0 view .LVU230
 616 00c4 6568     		ldr	r5, [r4, #4]
 617 00c6 25EA0705 		bic	r5, r5, r7
 618 00ca 6560     		str	r5, [r4, #4]
 331:Drivers/STM32F3xx_HAL_Driver/Src/stm32f3xx_hal_gpio.c ****         EXTI->FTSR &= ~((uint32_t)iocurrent);
 619              		.loc 1 331 9 is_stmt 1 view .LVU231
 331:Drivers/STM32F3xx_HAL_Driver/Src/stm32f3xx_hal_gpio.c ****         EXTI->FTSR &= ~((uint32_t)iocurrent);
 620              		.loc 1 331 20 is_stmt 0 view .LVU232
 621 00cc A568     		ldr	r5, [r4, #8]
 622 00ce 25EA0705 		bic	r5, r5, r7
 623 00d2 A560     		str	r5, [r4, #8]
 332:Drivers/STM32F3xx_HAL_Driver/Src/stm32f3xx_hal_gpio.c **** 
 624              		.loc 1 332 9 is_stmt 1 view .LVU233
 332:Drivers/STM32F3xx_HAL_Driver/Src/stm32f3xx_hal_gpio.c **** 
 625              		.loc 1 332 20 is_stmt 0 view .LVU234
 626 00d4 E568     		ldr	r5, [r4, #12]
 627 00d6 25EA0705 		bic	r5, r5, r7
 628 00da E560     		str	r5, [r4, #12]
ARM GAS  /tmp/ccaSjaV7.s 			page 20


 335:Drivers/STM32F3xx_HAL_Driver/Src/stm32f3xx_hal_gpio.c ****         SYSCFG->EXTICR[position >> 2u] &= ~tmp;
 629              		.loc 1 335 9 is_stmt 1 view .LVU235
 630              	.LVL57:
 336:Drivers/STM32F3xx_HAL_Driver/Src/stm32f3xx_hal_gpio.c ****       }
 631              		.loc 1 336 9 view .LVU236
 336:Drivers/STM32F3xx_HAL_Driver/Src/stm32f3xx_hal_gpio.c ****       }
 632              		.loc 1 336 40 is_stmt 0 view .LVU237
 633 00dc 054F     		ldr	r7, .L41
 634              	.LVL58:
 336:Drivers/STM32F3xx_HAL_Driver/Src/stm32f3xx_hal_gpio.c ****       }
 635              		.loc 1 336 40 view .LVU238
 636 00de 0EF10204 		add	r4, lr, #2
 637 00e2 57F82450 		ldr	r5, [r7, r4, lsl #2]
 638 00e6 25EA0605 		bic	r5, r5, r6
 639 00ea 47F82450 		str	r5, [r7, r4, lsl #2]
 640 00ee 94E7     		b	.L28
 641              	.LVL59:
 642              	.L39:
 357:Drivers/STM32F3xx_HAL_Driver/Src/stm32f3xx_hal_gpio.c ****   }
 358:Drivers/STM32F3xx_HAL_Driver/Src/stm32f3xx_hal_gpio.c **** }
 643              		.loc 1 358 1 view .LVU239
 644 00f0 F0BD     		pop	{r4, r5, r6, r7, pc}
 645              	.LVL60:
 646              	.L37:
 647              	.LCFI4:
 648              		.cfi_def_cfa_offset 0
 649              		.cfi_restore 4
 650              		.cfi_restore 5
 651              		.cfi_restore 6
 652              		.cfi_restore 7
 653              		.cfi_restore 14
 654              		.loc 1 358 1 view .LVU240
 655 00f2 7047     		bx	lr
 656              	.L42:
 657              		.align	2
 658              	.L41:
 659 00f4 00000140 		.word	1073807360
 660 00f8 00040048 		.word	1207960576
 661 00fc 00040140 		.word	1073808384
 662              		.cfi_endproc
 663              	.LFE124:
 665              		.section	.text.HAL_GPIO_ReadPin,"ax",%progbits
 666              		.align	1
 667              		.global	HAL_GPIO_ReadPin
 668              		.syntax unified
 669              		.thumb
 670              		.thumb_func
 672              	HAL_GPIO_ReadPin:
 673              	.LVL61:
 674              	.LFB125:
 359:Drivers/STM32F3xx_HAL_Driver/Src/stm32f3xx_hal_gpio.c **** 
 360:Drivers/STM32F3xx_HAL_Driver/Src/stm32f3xx_hal_gpio.c **** /**
 361:Drivers/STM32F3xx_HAL_Driver/Src/stm32f3xx_hal_gpio.c ****   * @}
 362:Drivers/STM32F3xx_HAL_Driver/Src/stm32f3xx_hal_gpio.c ****   */
 363:Drivers/STM32F3xx_HAL_Driver/Src/stm32f3xx_hal_gpio.c **** 
 364:Drivers/STM32F3xx_HAL_Driver/Src/stm32f3xx_hal_gpio.c **** /** @defgroup GPIO_Exported_Functions_Group2 IO operation functions 
 365:Drivers/STM32F3xx_HAL_Driver/Src/stm32f3xx_hal_gpio.c ****  *  @brief GPIO Read, Write, Toggle, Lock and EXTI management functions.
ARM GAS  /tmp/ccaSjaV7.s 			page 21


 366:Drivers/STM32F3xx_HAL_Driver/Src/stm32f3xx_hal_gpio.c ****  *
 367:Drivers/STM32F3xx_HAL_Driver/Src/stm32f3xx_hal_gpio.c **** @verbatim
 368:Drivers/STM32F3xx_HAL_Driver/Src/stm32f3xx_hal_gpio.c ****  ===============================================================================
 369:Drivers/STM32F3xx_HAL_Driver/Src/stm32f3xx_hal_gpio.c ****                        ##### IO operation functions #####
 370:Drivers/STM32F3xx_HAL_Driver/Src/stm32f3xx_hal_gpio.c ****  ===============================================================================
 371:Drivers/STM32F3xx_HAL_Driver/Src/stm32f3xx_hal_gpio.c **** 
 372:Drivers/STM32F3xx_HAL_Driver/Src/stm32f3xx_hal_gpio.c **** @endverbatim
 373:Drivers/STM32F3xx_HAL_Driver/Src/stm32f3xx_hal_gpio.c ****   * @{
 374:Drivers/STM32F3xx_HAL_Driver/Src/stm32f3xx_hal_gpio.c ****   */
 375:Drivers/STM32F3xx_HAL_Driver/Src/stm32f3xx_hal_gpio.c **** 
 376:Drivers/STM32F3xx_HAL_Driver/Src/stm32f3xx_hal_gpio.c **** /**
 377:Drivers/STM32F3xx_HAL_Driver/Src/stm32f3xx_hal_gpio.c ****   * @brief  Read the specified input port pin.
 378:Drivers/STM32F3xx_HAL_Driver/Src/stm32f3xx_hal_gpio.c ****   * @param  GPIOx where x can be (A..F) to select the GPIO peripheral for STM32F3 family
 379:Drivers/STM32F3xx_HAL_Driver/Src/stm32f3xx_hal_gpio.c ****   * @param  GPIO_Pin specifies the port bit to read.
 380:Drivers/STM32F3xx_HAL_Driver/Src/stm32f3xx_hal_gpio.c ****   *         This parameter can be GPIO_PIN_x where x can be (0..15).
 381:Drivers/STM32F3xx_HAL_Driver/Src/stm32f3xx_hal_gpio.c ****   * @retval The input port pin value.
 382:Drivers/STM32F3xx_HAL_Driver/Src/stm32f3xx_hal_gpio.c ****   */
 383:Drivers/STM32F3xx_HAL_Driver/Src/stm32f3xx_hal_gpio.c **** GPIO_PinState HAL_GPIO_ReadPin(GPIO_TypeDef* GPIOx, uint16_t GPIO_Pin)
 384:Drivers/STM32F3xx_HAL_Driver/Src/stm32f3xx_hal_gpio.c **** {
 675              		.loc 1 384 1 is_stmt 1 view -0
 676              		.cfi_startproc
 677              		@ args = 0, pretend = 0, frame = 0
 678              		@ frame_needed = 0, uses_anonymous_args = 0
 679              		@ link register save eliminated.
 385:Drivers/STM32F3xx_HAL_Driver/Src/stm32f3xx_hal_gpio.c ****   GPIO_PinState bitstatus;
 680              		.loc 1 385 3 view .LVU242
 386:Drivers/STM32F3xx_HAL_Driver/Src/stm32f3xx_hal_gpio.c **** 
 387:Drivers/STM32F3xx_HAL_Driver/Src/stm32f3xx_hal_gpio.c ****   /* Check the parameters */
 388:Drivers/STM32F3xx_HAL_Driver/Src/stm32f3xx_hal_gpio.c ****   assert_param(IS_GPIO_PIN(GPIO_Pin));
 681              		.loc 1 388 3 view .LVU243
 389:Drivers/STM32F3xx_HAL_Driver/Src/stm32f3xx_hal_gpio.c **** 
 390:Drivers/STM32F3xx_HAL_Driver/Src/stm32f3xx_hal_gpio.c ****   if((GPIOx->IDR & GPIO_Pin) != (uint32_t)GPIO_PIN_RESET)
 682              		.loc 1 390 3 view .LVU244
 683              		.loc 1 390 12 is_stmt 0 view .LVU245
 684 0000 0369     		ldr	r3, [r0, #16]
 685              		.loc 1 390 5 view .LVU246
 686 0002 1942     		tst	r1, r3
 687 0004 01D0     		beq	.L45
 391:Drivers/STM32F3xx_HAL_Driver/Src/stm32f3xx_hal_gpio.c ****   {
 392:Drivers/STM32F3xx_HAL_Driver/Src/stm32f3xx_hal_gpio.c ****     bitstatus = GPIO_PIN_SET;
 688              		.loc 1 392 15 view .LVU247
 689 0006 0120     		movs	r0, #1
 690              	.LVL62:
 691              		.loc 1 392 15 view .LVU248
 692 0008 7047     		bx	lr
 693              	.LVL63:
 694              	.L45:
 393:Drivers/STM32F3xx_HAL_Driver/Src/stm32f3xx_hal_gpio.c ****   }
 394:Drivers/STM32F3xx_HAL_Driver/Src/stm32f3xx_hal_gpio.c ****   else
 395:Drivers/STM32F3xx_HAL_Driver/Src/stm32f3xx_hal_gpio.c ****   {
 396:Drivers/STM32F3xx_HAL_Driver/Src/stm32f3xx_hal_gpio.c ****     bitstatus = GPIO_PIN_RESET;
 695              		.loc 1 396 15 view .LVU249
 696 000a 0020     		movs	r0, #0
 697              	.LVL64:
 397:Drivers/STM32F3xx_HAL_Driver/Src/stm32f3xx_hal_gpio.c ****   }
 398:Drivers/STM32F3xx_HAL_Driver/Src/stm32f3xx_hal_gpio.c ****   return bitstatus;
 698              		.loc 1 398 3 is_stmt 1 view .LVU250
ARM GAS  /tmp/ccaSjaV7.s 			page 22


 399:Drivers/STM32F3xx_HAL_Driver/Src/stm32f3xx_hal_gpio.c **** }
 699              		.loc 1 399 1 is_stmt 0 view .LVU251
 700 000c 7047     		bx	lr
 701              		.cfi_endproc
 702              	.LFE125:
 704              		.section	.text.HAL_GPIO_WritePin,"ax",%progbits
 705              		.align	1
 706              		.global	HAL_GPIO_WritePin
 707              		.syntax unified
 708              		.thumb
 709              		.thumb_func
 711              	HAL_GPIO_WritePin:
 712              	.LVL65:
 713              	.LFB126:
 400:Drivers/STM32F3xx_HAL_Driver/Src/stm32f3xx_hal_gpio.c **** 
 401:Drivers/STM32F3xx_HAL_Driver/Src/stm32f3xx_hal_gpio.c **** /**
 402:Drivers/STM32F3xx_HAL_Driver/Src/stm32f3xx_hal_gpio.c ****   * @brief  Set or clear the selected data port bit.
 403:Drivers/STM32F3xx_HAL_Driver/Src/stm32f3xx_hal_gpio.c ****   *
 404:Drivers/STM32F3xx_HAL_Driver/Src/stm32f3xx_hal_gpio.c ****   * @note   This function uses GPIOx_BSRR and GPIOx_BRR registers to allow atomic read/modify
 405:Drivers/STM32F3xx_HAL_Driver/Src/stm32f3xx_hal_gpio.c ****   *         accesses. In this way, there is no risk of an IRQ occurring between
 406:Drivers/STM32F3xx_HAL_Driver/Src/stm32f3xx_hal_gpio.c ****   *         the read and the modify access.
 407:Drivers/STM32F3xx_HAL_Driver/Src/stm32f3xx_hal_gpio.c ****   *
 408:Drivers/STM32F3xx_HAL_Driver/Src/stm32f3xx_hal_gpio.c ****   * @param  GPIOx where x can be (A..F) to select the GPIO peripheral for STM32F3 family
 409:Drivers/STM32F3xx_HAL_Driver/Src/stm32f3xx_hal_gpio.c ****   * @param  GPIO_Pin specifies the port bit to be written.
 410:Drivers/STM32F3xx_HAL_Driver/Src/stm32f3xx_hal_gpio.c ****   *         This parameter can be one of GPIO_PIN_x where x can be (0..15).
 411:Drivers/STM32F3xx_HAL_Driver/Src/stm32f3xx_hal_gpio.c ****   * @param  PinState specifies the value to be written to the selected bit.
 412:Drivers/STM32F3xx_HAL_Driver/Src/stm32f3xx_hal_gpio.c ****   *         This parameter can be one of the GPIO_PinState enum values:
 413:Drivers/STM32F3xx_HAL_Driver/Src/stm32f3xx_hal_gpio.c ****   *            @arg GPIO_PIN_RESET: to clear the port pin
 414:Drivers/STM32F3xx_HAL_Driver/Src/stm32f3xx_hal_gpio.c ****   *            @arg GPIO_PIN_SET: to set the port pin
 415:Drivers/STM32F3xx_HAL_Driver/Src/stm32f3xx_hal_gpio.c ****   * @retval None
 416:Drivers/STM32F3xx_HAL_Driver/Src/stm32f3xx_hal_gpio.c ****   */
 417:Drivers/STM32F3xx_HAL_Driver/Src/stm32f3xx_hal_gpio.c **** void HAL_GPIO_WritePin(GPIO_TypeDef* GPIOx, uint16_t GPIO_Pin, GPIO_PinState PinState)
 418:Drivers/STM32F3xx_HAL_Driver/Src/stm32f3xx_hal_gpio.c **** {
 714              		.loc 1 418 1 is_stmt 1 view -0
 715              		.cfi_startproc
 716              		@ args = 0, pretend = 0, frame = 0
 717              		@ frame_needed = 0, uses_anonymous_args = 0
 718              		@ link register save eliminated.
 419:Drivers/STM32F3xx_HAL_Driver/Src/stm32f3xx_hal_gpio.c ****   /* Check the parameters */
 420:Drivers/STM32F3xx_HAL_Driver/Src/stm32f3xx_hal_gpio.c ****   assert_param(IS_GPIO_PIN(GPIO_Pin));
 719              		.loc 1 420 3 view .LVU253
 421:Drivers/STM32F3xx_HAL_Driver/Src/stm32f3xx_hal_gpio.c ****   assert_param(IS_GPIO_PIN_ACTION(PinState));
 720              		.loc 1 421 3 view .LVU254
 422:Drivers/STM32F3xx_HAL_Driver/Src/stm32f3xx_hal_gpio.c **** 
 423:Drivers/STM32F3xx_HAL_Driver/Src/stm32f3xx_hal_gpio.c ****   if(PinState != GPIO_PIN_RESET)
 721              		.loc 1 423 3 view .LVU255
 722              		.loc 1 423 5 is_stmt 0 view .LVU256
 723 0000 0AB1     		cbz	r2, .L47
 424:Drivers/STM32F3xx_HAL_Driver/Src/stm32f3xx_hal_gpio.c ****   {
 425:Drivers/STM32F3xx_HAL_Driver/Src/stm32f3xx_hal_gpio.c ****     GPIOx->BSRR = (uint32_t)GPIO_Pin;
 724              		.loc 1 425 5 is_stmt 1 view .LVU257
 725              		.loc 1 425 17 is_stmt 0 view .LVU258
 726 0002 8161     		str	r1, [r0, #24]
 727 0004 7047     		bx	lr
 728              	.L47:
 426:Drivers/STM32F3xx_HAL_Driver/Src/stm32f3xx_hal_gpio.c ****   }
 427:Drivers/STM32F3xx_HAL_Driver/Src/stm32f3xx_hal_gpio.c ****   else
ARM GAS  /tmp/ccaSjaV7.s 			page 23


 428:Drivers/STM32F3xx_HAL_Driver/Src/stm32f3xx_hal_gpio.c ****   {
 429:Drivers/STM32F3xx_HAL_Driver/Src/stm32f3xx_hal_gpio.c ****     GPIOx->BRR = (uint32_t)GPIO_Pin;
 729              		.loc 1 429 5 is_stmt 1 view .LVU259
 730              		.loc 1 429 16 is_stmt 0 view .LVU260
 731 0006 8162     		str	r1, [r0, #40]
 430:Drivers/STM32F3xx_HAL_Driver/Src/stm32f3xx_hal_gpio.c ****   }
 431:Drivers/STM32F3xx_HAL_Driver/Src/stm32f3xx_hal_gpio.c **** }
 732              		.loc 1 431 1 view .LVU261
 733 0008 7047     		bx	lr
 734              		.cfi_endproc
 735              	.LFE126:
 737              		.section	.text.HAL_GPIO_TogglePin,"ax",%progbits
 738              		.align	1
 739              		.global	HAL_GPIO_TogglePin
 740              		.syntax unified
 741              		.thumb
 742              		.thumb_func
 744              	HAL_GPIO_TogglePin:
 745              	.LVL66:
 746              	.LFB127:
 432:Drivers/STM32F3xx_HAL_Driver/Src/stm32f3xx_hal_gpio.c **** 
 433:Drivers/STM32F3xx_HAL_Driver/Src/stm32f3xx_hal_gpio.c **** /**
 434:Drivers/STM32F3xx_HAL_Driver/Src/stm32f3xx_hal_gpio.c ****   * @brief  Toggle the specified GPIO pin.
 435:Drivers/STM32F3xx_HAL_Driver/Src/stm32f3xx_hal_gpio.c ****   * @param  GPIOx where x can be (A..F) to select the GPIO peripheral for STM32F3 family
 436:Drivers/STM32F3xx_HAL_Driver/Src/stm32f3xx_hal_gpio.c ****   * @param  GPIO_Pin specifies the pin to be toggled.
 437:Drivers/STM32F3xx_HAL_Driver/Src/stm32f3xx_hal_gpio.c ****   * @retval None
 438:Drivers/STM32F3xx_HAL_Driver/Src/stm32f3xx_hal_gpio.c ****   */
 439:Drivers/STM32F3xx_HAL_Driver/Src/stm32f3xx_hal_gpio.c **** void HAL_GPIO_TogglePin(GPIO_TypeDef* GPIOx, uint16_t GPIO_Pin)
 440:Drivers/STM32F3xx_HAL_Driver/Src/stm32f3xx_hal_gpio.c **** {
 747              		.loc 1 440 1 is_stmt 1 view -0
 748              		.cfi_startproc
 749              		@ args = 0, pretend = 0, frame = 0
 750              		@ frame_needed = 0, uses_anonymous_args = 0
 751              		@ link register save eliminated.
 441:Drivers/STM32F3xx_HAL_Driver/Src/stm32f3xx_hal_gpio.c ****   uint32_t odr;
 752              		.loc 1 441 3 view .LVU263
 442:Drivers/STM32F3xx_HAL_Driver/Src/stm32f3xx_hal_gpio.c **** 
 443:Drivers/STM32F3xx_HAL_Driver/Src/stm32f3xx_hal_gpio.c ****   /* Check the parameters */
 444:Drivers/STM32F3xx_HAL_Driver/Src/stm32f3xx_hal_gpio.c ****   assert_param(IS_GPIO_PIN(GPIO_Pin));
 753              		.loc 1 444 3 view .LVU264
 445:Drivers/STM32F3xx_HAL_Driver/Src/stm32f3xx_hal_gpio.c **** 
 446:Drivers/STM32F3xx_HAL_Driver/Src/stm32f3xx_hal_gpio.c ****   /* get current Ouput Data Register value */
 447:Drivers/STM32F3xx_HAL_Driver/Src/stm32f3xx_hal_gpio.c ****   odr = GPIOx->ODR;
 754              		.loc 1 447 3 view .LVU265
 755              		.loc 1 447 7 is_stmt 0 view .LVU266
 756 0000 4369     		ldr	r3, [r0, #20]
 757              	.LVL67:
 448:Drivers/STM32F3xx_HAL_Driver/Src/stm32f3xx_hal_gpio.c **** 
 449:Drivers/STM32F3xx_HAL_Driver/Src/stm32f3xx_hal_gpio.c ****   /* Set selected pins that were at low level, and reset ones that were high */
 450:Drivers/STM32F3xx_HAL_Driver/Src/stm32f3xx_hal_gpio.c ****   GPIOx->BSRR = ((odr & GPIO_Pin) << GPIO_NUMBER) | (~odr & GPIO_Pin);
 758              		.loc 1 450 3 is_stmt 1 view .LVU267
 759              		.loc 1 450 23 is_stmt 0 view .LVU268
 760 0002 01EA0302 		and	r2, r1, r3
 761              		.loc 1 450 59 view .LVU269
 762 0006 21EA0301 		bic	r1, r1, r3
 763              	.LVL68:
 764              		.loc 1 450 51 view .LVU270
ARM GAS  /tmp/ccaSjaV7.s 			page 24


 765 000a 41EA0241 		orr	r1, r1, r2, lsl #16
 766              		.loc 1 450 15 view .LVU271
 767 000e 8161     		str	r1, [r0, #24]
 451:Drivers/STM32F3xx_HAL_Driver/Src/stm32f3xx_hal_gpio.c **** }
 768              		.loc 1 451 1 view .LVU272
 769 0010 7047     		bx	lr
 770              		.cfi_endproc
 771              	.LFE127:
 773              		.section	.text.HAL_GPIO_LockPin,"ax",%progbits
 774              		.align	1
 775              		.global	HAL_GPIO_LockPin
 776              		.syntax unified
 777              		.thumb
 778              		.thumb_func
 780              	HAL_GPIO_LockPin:
 781              	.LVL69:
 782              	.LFB128:
 452:Drivers/STM32F3xx_HAL_Driver/Src/stm32f3xx_hal_gpio.c **** 
 453:Drivers/STM32F3xx_HAL_Driver/Src/stm32f3xx_hal_gpio.c **** /**
 454:Drivers/STM32F3xx_HAL_Driver/Src/stm32f3xx_hal_gpio.c **** * @brief  Lock GPIO Pins configuration registers.
 455:Drivers/STM32F3xx_HAL_Driver/Src/stm32f3xx_hal_gpio.c ****   * @note   The locked registers are GPIOx_MODER, GPIOx_OTYPER, GPIOx_OSPEEDR,
 456:Drivers/STM32F3xx_HAL_Driver/Src/stm32f3xx_hal_gpio.c ****   *         GPIOx_PUPDR, GPIOx_AFRL and GPIOx_AFRH.
 457:Drivers/STM32F3xx_HAL_Driver/Src/stm32f3xx_hal_gpio.c ****   * @note   The configuration of the locked GPIO pins can no longer be modified
 458:Drivers/STM32F3xx_HAL_Driver/Src/stm32f3xx_hal_gpio.c ****   *         until the next reset.
 459:Drivers/STM32F3xx_HAL_Driver/Src/stm32f3xx_hal_gpio.c ****   * @param  GPIOx where x can be (A..F) to select the GPIO peripheral for STM32F3 family
 460:Drivers/STM32F3xx_HAL_Driver/Src/stm32f3xx_hal_gpio.c ****   * @param  GPIO_Pin specifies the port bits to be locked.
 461:Drivers/STM32F3xx_HAL_Driver/Src/stm32f3xx_hal_gpio.c ****   *         This parameter can be any combination of GPIO_Pin_x where x can be (0..15).
 462:Drivers/STM32F3xx_HAL_Driver/Src/stm32f3xx_hal_gpio.c ****   * @retval None
 463:Drivers/STM32F3xx_HAL_Driver/Src/stm32f3xx_hal_gpio.c ****   */
 464:Drivers/STM32F3xx_HAL_Driver/Src/stm32f3xx_hal_gpio.c **** HAL_StatusTypeDef HAL_GPIO_LockPin(GPIO_TypeDef* GPIOx, uint16_t GPIO_Pin)
 465:Drivers/STM32F3xx_HAL_Driver/Src/stm32f3xx_hal_gpio.c **** {
 783              		.loc 1 465 1 is_stmt 1 view -0
 784              		.cfi_startproc
 785              		@ args = 0, pretend = 0, frame = 8
 786              		@ frame_needed = 0, uses_anonymous_args = 0
 787              		@ link register save eliminated.
 788              		.loc 1 465 1 is_stmt 0 view .LVU274
 789 0000 82B0     		sub	sp, sp, #8
 790              	.LCFI5:
 791              		.cfi_def_cfa_offset 8
 466:Drivers/STM32F3xx_HAL_Driver/Src/stm32f3xx_hal_gpio.c ****   __IO uint32_t tmp = GPIO_LCKR_LCKK;
 792              		.loc 1 466 3 is_stmt 1 view .LVU275
 793              		.loc 1 466 17 is_stmt 0 view .LVU276
 794 0002 4FF48033 		mov	r3, #65536
 795 0006 0193     		str	r3, [sp, #4]
 467:Drivers/STM32F3xx_HAL_Driver/Src/stm32f3xx_hal_gpio.c **** 
 468:Drivers/STM32F3xx_HAL_Driver/Src/stm32f3xx_hal_gpio.c ****   /* Check the parameters */
 469:Drivers/STM32F3xx_HAL_Driver/Src/stm32f3xx_hal_gpio.c ****   assert_param(IS_GPIO_LOCK_INSTANCE(GPIOx));
 796              		.loc 1 469 3 is_stmt 1 view .LVU277
 470:Drivers/STM32F3xx_HAL_Driver/Src/stm32f3xx_hal_gpio.c ****   assert_param(IS_GPIO_PIN(GPIO_Pin));
 797              		.loc 1 470 3 view .LVU278
 471:Drivers/STM32F3xx_HAL_Driver/Src/stm32f3xx_hal_gpio.c **** 
 472:Drivers/STM32F3xx_HAL_Driver/Src/stm32f3xx_hal_gpio.c ****   /* Apply lock key write sequence */
 473:Drivers/STM32F3xx_HAL_Driver/Src/stm32f3xx_hal_gpio.c ****   tmp |= GPIO_Pin;
 798              		.loc 1 473 3 view .LVU279
 799              		.loc 1 473 7 is_stmt 0 view .LVU280
 800 0008 019B     		ldr	r3, [sp, #4]
ARM GAS  /tmp/ccaSjaV7.s 			page 25


 801 000a 0B43     		orrs	r3, r3, r1
 802 000c 0193     		str	r3, [sp, #4]
 474:Drivers/STM32F3xx_HAL_Driver/Src/stm32f3xx_hal_gpio.c ****   /* Set LCKx bit(s): LCKK='1' + LCK[15U-0] */
 475:Drivers/STM32F3xx_HAL_Driver/Src/stm32f3xx_hal_gpio.c ****   GPIOx->LCKR = tmp;
 803              		.loc 1 475 3 is_stmt 1 view .LVU281
 804              		.loc 1 475 15 is_stmt 0 view .LVU282
 805 000e 019B     		ldr	r3, [sp, #4]
 806 0010 C361     		str	r3, [r0, #28]
 476:Drivers/STM32F3xx_HAL_Driver/Src/stm32f3xx_hal_gpio.c ****   /* Reset LCKx bit(s): LCKK='0' + LCK[15U-0] */
 477:Drivers/STM32F3xx_HAL_Driver/Src/stm32f3xx_hal_gpio.c ****   GPIOx->LCKR = GPIO_Pin;
 807              		.loc 1 477 3 is_stmt 1 view .LVU283
 808              		.loc 1 477 15 is_stmt 0 view .LVU284
 809 0012 C161     		str	r1, [r0, #28]
 478:Drivers/STM32F3xx_HAL_Driver/Src/stm32f3xx_hal_gpio.c ****   /* Set LCKx bit(s): LCKK='1' + LCK[15U-0] */
 479:Drivers/STM32F3xx_HAL_Driver/Src/stm32f3xx_hal_gpio.c ****   GPIOx->LCKR = tmp;
 810              		.loc 1 479 3 is_stmt 1 view .LVU285
 811              		.loc 1 479 15 is_stmt 0 view .LVU286
 812 0014 019B     		ldr	r3, [sp, #4]
 813 0016 C361     		str	r3, [r0, #28]
 480:Drivers/STM32F3xx_HAL_Driver/Src/stm32f3xx_hal_gpio.c ****   /* Read LCKK register. This read is mandatory to complete key lock sequence */
 481:Drivers/STM32F3xx_HAL_Driver/Src/stm32f3xx_hal_gpio.c ****   tmp = GPIOx->LCKR;
 814              		.loc 1 481 3 is_stmt 1 view .LVU287
 815              		.loc 1 481 14 is_stmt 0 view .LVU288
 816 0018 C369     		ldr	r3, [r0, #28]
 817              		.loc 1 481 7 view .LVU289
 818 001a 0193     		str	r3, [sp, #4]
 482:Drivers/STM32F3xx_HAL_Driver/Src/stm32f3xx_hal_gpio.c **** 
 483:Drivers/STM32F3xx_HAL_Driver/Src/stm32f3xx_hal_gpio.c ****   /* read again in order to confirm lock is active */
 484:Drivers/STM32F3xx_HAL_Driver/Src/stm32f3xx_hal_gpio.c ****  if((GPIOx->LCKR & GPIO_LCKR_LCKK) != 0x00u)
 819              		.loc 1 484 2 is_stmt 1 view .LVU290
 820              		.loc 1 484 11 is_stmt 0 view .LVU291
 821 001c C369     		ldr	r3, [r0, #28]
 822              		.loc 1 484 4 view .LVU292
 823 001e 13F4803F 		tst	r3, #65536
 824 0022 02D0     		beq	.L52
 485:Drivers/STM32F3xx_HAL_Driver/Src/stm32f3xx_hal_gpio.c ****   {
 486:Drivers/STM32F3xx_HAL_Driver/Src/stm32f3xx_hal_gpio.c ****     return HAL_OK;
 825              		.loc 1 486 12 view .LVU293
 826 0024 0020     		movs	r0, #0
 827              	.LVL70:
 828              	.L51:
 487:Drivers/STM32F3xx_HAL_Driver/Src/stm32f3xx_hal_gpio.c ****   }
 488:Drivers/STM32F3xx_HAL_Driver/Src/stm32f3xx_hal_gpio.c ****   else
 489:Drivers/STM32F3xx_HAL_Driver/Src/stm32f3xx_hal_gpio.c ****   {
 490:Drivers/STM32F3xx_HAL_Driver/Src/stm32f3xx_hal_gpio.c ****     return HAL_ERROR;
 491:Drivers/STM32F3xx_HAL_Driver/Src/stm32f3xx_hal_gpio.c ****   }
 492:Drivers/STM32F3xx_HAL_Driver/Src/stm32f3xx_hal_gpio.c **** }
 829              		.loc 1 492 1 view .LVU294
 830 0026 02B0     		add	sp, sp, #8
 831              	.LCFI6:
 832              		.cfi_remember_state
 833              		.cfi_def_cfa_offset 0
 834              		@ sp needed
 835 0028 7047     		bx	lr
 836              	.LVL71:
 837              	.L52:
 838              	.LCFI7:
ARM GAS  /tmp/ccaSjaV7.s 			page 26


 839              		.cfi_restore_state
 490:Drivers/STM32F3xx_HAL_Driver/Src/stm32f3xx_hal_gpio.c ****   }
 840              		.loc 1 490 12 view .LVU295
 841 002a 0120     		movs	r0, #1
 842              	.LVL72:
 490:Drivers/STM32F3xx_HAL_Driver/Src/stm32f3xx_hal_gpio.c ****   }
 843              		.loc 1 490 12 view .LVU296
 844 002c FBE7     		b	.L51
 845              		.cfi_endproc
 846              	.LFE128:
 848              		.section	.text.HAL_GPIO_EXTI_Callback,"ax",%progbits
 849              		.align	1
 850              		.weak	HAL_GPIO_EXTI_Callback
 851              		.syntax unified
 852              		.thumb
 853              		.thumb_func
 855              	HAL_GPIO_EXTI_Callback:
 856              	.LVL73:
 857              	.LFB130:
 493:Drivers/STM32F3xx_HAL_Driver/Src/stm32f3xx_hal_gpio.c **** 
 494:Drivers/STM32F3xx_HAL_Driver/Src/stm32f3xx_hal_gpio.c **** /**
 495:Drivers/STM32F3xx_HAL_Driver/Src/stm32f3xx_hal_gpio.c ****   * @brief  Handle EXTI interrupt request.
 496:Drivers/STM32F3xx_HAL_Driver/Src/stm32f3xx_hal_gpio.c ****   * @param  GPIO_Pin Specifies the port pin connected to corresponding EXTI line.
 497:Drivers/STM32F3xx_HAL_Driver/Src/stm32f3xx_hal_gpio.c ****   * @retval None
 498:Drivers/STM32F3xx_HAL_Driver/Src/stm32f3xx_hal_gpio.c ****   */
 499:Drivers/STM32F3xx_HAL_Driver/Src/stm32f3xx_hal_gpio.c **** void HAL_GPIO_EXTI_IRQHandler(uint16_t GPIO_Pin)
 500:Drivers/STM32F3xx_HAL_Driver/Src/stm32f3xx_hal_gpio.c **** {
 501:Drivers/STM32F3xx_HAL_Driver/Src/stm32f3xx_hal_gpio.c ****   /* EXTI line interrupt detected */
 502:Drivers/STM32F3xx_HAL_Driver/Src/stm32f3xx_hal_gpio.c ****   if(__HAL_GPIO_EXTI_GET_IT(GPIO_Pin) != 0x00u)
 503:Drivers/STM32F3xx_HAL_Driver/Src/stm32f3xx_hal_gpio.c ****   {
 504:Drivers/STM32F3xx_HAL_Driver/Src/stm32f3xx_hal_gpio.c ****     __HAL_GPIO_EXTI_CLEAR_IT(GPIO_Pin);
 505:Drivers/STM32F3xx_HAL_Driver/Src/stm32f3xx_hal_gpio.c ****     HAL_GPIO_EXTI_Callback(GPIO_Pin);
 506:Drivers/STM32F3xx_HAL_Driver/Src/stm32f3xx_hal_gpio.c ****   }
 507:Drivers/STM32F3xx_HAL_Driver/Src/stm32f3xx_hal_gpio.c **** }
 508:Drivers/STM32F3xx_HAL_Driver/Src/stm32f3xx_hal_gpio.c **** 
 509:Drivers/STM32F3xx_HAL_Driver/Src/stm32f3xx_hal_gpio.c **** /**
 510:Drivers/STM32F3xx_HAL_Driver/Src/stm32f3xx_hal_gpio.c ****   * @brief  EXTI line detection callback.
 511:Drivers/STM32F3xx_HAL_Driver/Src/stm32f3xx_hal_gpio.c ****   * @param  GPIO_Pin Specifies the port pin connected to corresponding EXTI line.
 512:Drivers/STM32F3xx_HAL_Driver/Src/stm32f3xx_hal_gpio.c ****   * @retval None
 513:Drivers/STM32F3xx_HAL_Driver/Src/stm32f3xx_hal_gpio.c ****   */
 514:Drivers/STM32F3xx_HAL_Driver/Src/stm32f3xx_hal_gpio.c **** __weak void HAL_GPIO_EXTI_Callback(uint16_t GPIO_Pin)
 515:Drivers/STM32F3xx_HAL_Driver/Src/stm32f3xx_hal_gpio.c **** {
 858              		.loc 1 515 1 is_stmt 1 view -0
 859              		.cfi_startproc
 860              		@ args = 0, pretend = 0, frame = 0
 861              		@ frame_needed = 0, uses_anonymous_args = 0
 862              		@ link register save eliminated.
 516:Drivers/STM32F3xx_HAL_Driver/Src/stm32f3xx_hal_gpio.c ****   /* Prevent unused argument(s) compilation warning */
 517:Drivers/STM32F3xx_HAL_Driver/Src/stm32f3xx_hal_gpio.c ****   UNUSED(GPIO_Pin);
 863              		.loc 1 517 3 view .LVU298
 518:Drivers/STM32F3xx_HAL_Driver/Src/stm32f3xx_hal_gpio.c **** 
 519:Drivers/STM32F3xx_HAL_Driver/Src/stm32f3xx_hal_gpio.c ****   /* NOTE: This function should not be modified, when the callback is needed,
 520:Drivers/STM32F3xx_HAL_Driver/Src/stm32f3xx_hal_gpio.c ****            the HAL_GPIO_EXTI_Callback could be implemented in the user file
 521:Drivers/STM32F3xx_HAL_Driver/Src/stm32f3xx_hal_gpio.c ****    */
 522:Drivers/STM32F3xx_HAL_Driver/Src/stm32f3xx_hal_gpio.c **** }
 864              		.loc 1 522 1 is_stmt 0 view .LVU299
 865 0000 7047     		bx	lr
ARM GAS  /tmp/ccaSjaV7.s 			page 27


 866              		.cfi_endproc
 867              	.LFE130:
 869              		.section	.text.HAL_GPIO_EXTI_IRQHandler,"ax",%progbits
 870              		.align	1
 871              		.global	HAL_GPIO_EXTI_IRQHandler
 872              		.syntax unified
 873              		.thumb
 874              		.thumb_func
 876              	HAL_GPIO_EXTI_IRQHandler:
 877              	.LVL74:
 878              	.LFB129:
 500:Drivers/STM32F3xx_HAL_Driver/Src/stm32f3xx_hal_gpio.c ****   /* EXTI line interrupt detected */
 879              		.loc 1 500 1 is_stmt 1 view -0
 880              		.cfi_startproc
 881              		@ args = 0, pretend = 0, frame = 0
 882              		@ frame_needed = 0, uses_anonymous_args = 0
 500:Drivers/STM32F3xx_HAL_Driver/Src/stm32f3xx_hal_gpio.c ****   /* EXTI line interrupt detected */
 883              		.loc 1 500 1 is_stmt 0 view .LVU301
 884 0000 08B5     		push	{r3, lr}
 885              	.LCFI8:
 886              		.cfi_def_cfa_offset 8
 887              		.cfi_offset 3, -8
 888              		.cfi_offset 14, -4
 502:Drivers/STM32F3xx_HAL_Driver/Src/stm32f3xx_hal_gpio.c ****   {
 889              		.loc 1 502 3 is_stmt 1 view .LVU302
 502:Drivers/STM32F3xx_HAL_Driver/Src/stm32f3xx_hal_gpio.c ****   {
 890              		.loc 1 502 6 is_stmt 0 view .LVU303
 891 0002 054B     		ldr	r3, .L59
 892 0004 5B69     		ldr	r3, [r3, #20]
 502:Drivers/STM32F3xx_HAL_Driver/Src/stm32f3xx_hal_gpio.c ****   {
 893              		.loc 1 502 5 view .LVU304
 894 0006 0342     		tst	r3, r0
 895 0008 00D1     		bne	.L58
 896              	.LVL75:
 897              	.L55:
 507:Drivers/STM32F3xx_HAL_Driver/Src/stm32f3xx_hal_gpio.c **** 
 898              		.loc 1 507 1 view .LVU305
 899 000a 08BD     		pop	{r3, pc}
 900              	.LVL76:
 901              	.L58:
 504:Drivers/STM32F3xx_HAL_Driver/Src/stm32f3xx_hal_gpio.c ****     HAL_GPIO_EXTI_Callback(GPIO_Pin);
 902              		.loc 1 504 5 is_stmt 1 view .LVU306
 903 000c 024B     		ldr	r3, .L59
 904 000e 5861     		str	r0, [r3, #20]
 505:Drivers/STM32F3xx_HAL_Driver/Src/stm32f3xx_hal_gpio.c ****   }
 905              		.loc 1 505 5 view .LVU307
 906 0010 FFF7FEFF 		bl	HAL_GPIO_EXTI_Callback
 907              	.LVL77:
 507:Drivers/STM32F3xx_HAL_Driver/Src/stm32f3xx_hal_gpio.c **** 
 908              		.loc 1 507 1 is_stmt 0 view .LVU308
 909 0014 F9E7     		b	.L55
 910              	.L60:
 911 0016 00BF     		.align	2
 912              	.L59:
 913 0018 00040140 		.word	1073808384
 914              		.cfi_endproc
 915              	.LFE129:
ARM GAS  /tmp/ccaSjaV7.s 			page 28


 917              		.text
 918              	.Letext0:
 919              		.file 2 "/usr/arm-none-eabi/include/machine/_default_types.h"
 920              		.file 3 "/usr/arm-none-eabi/include/sys/_stdint.h"
 921              		.file 4 "Drivers/CMSIS/Device/ST/STM32F3xx/Include/stm32f303x8.h"
 922              		.file 5 "Drivers/STM32F3xx_HAL_Driver/Inc/stm32f3xx_hal_def.h"
 923              		.file 6 "Drivers/STM32F3xx_HAL_Driver/Inc/stm32f3xx_hal_gpio.h"
ARM GAS  /tmp/ccaSjaV7.s 			page 29

