ARM GAS  /tmp/ccczLV2y.s 			page 1


   1              		.cpu cortex-m4
   2              		.eabi_attribute 27, 1
   3              		.eabi_attribute 28, 1
   4              		.eabi_attribute 20, 1
   5              		.eabi_attribute 21, 1
   6              		.eabi_attribute 23, 3
   7              		.eabi_attribute 24, 1
   8              		.eabi_attribute 25, 1
   9              		.eabi_attribute 26, 1
  10              		.eabi_attribute 30, 1
  11              		.eabi_attribute 34, 1
  12              		.eabi_attribute 18, 4
  13              		.file	"stm32f3xx_hal_exti.c"
  14              		.text
  15              	.Ltext0:
  16              		.cfi_sections	.debug_frame
  17              		.section	.text.HAL_EXTI_SetConfigLine,"ax",%progbits
  18              		.align	1
  19              		.global	HAL_EXTI_SetConfigLine
  20              		.arch armv7e-m
  21              		.syntax unified
  22              		.thumb
  23              		.thumb_func
  24              		.fpu fpv4-sp-d16
  26              	HAL_EXTI_SetConfigLine:
  27              	.LVL0:
  28              	.LFB123:
  29              		.file 1 "Drivers/STM32F3xx_HAL_Driver/Src/stm32f3xx_hal_exti.c"
   1:Drivers/STM32F3xx_HAL_Driver/Src/stm32f3xx_hal_exti.c **** /**
   2:Drivers/STM32F3xx_HAL_Driver/Src/stm32f3xx_hal_exti.c ****   ******************************************************************************
   3:Drivers/STM32F3xx_HAL_Driver/Src/stm32f3xx_hal_exti.c ****   * @file    stm32f3xx_hal_exti.c
   4:Drivers/STM32F3xx_HAL_Driver/Src/stm32f3xx_hal_exti.c ****   * @author  MCD Application Team
   5:Drivers/STM32F3xx_HAL_Driver/Src/stm32f3xx_hal_exti.c ****   * @brief   EXTI HAL module driver.
   6:Drivers/STM32F3xx_HAL_Driver/Src/stm32f3xx_hal_exti.c ****   *          This file provides firmware functions to manage the following
   7:Drivers/STM32F3xx_HAL_Driver/Src/stm32f3xx_hal_exti.c ****   *          functionalities of the Extended Interrupts and events controller (EXTI) peripheral:
   8:Drivers/STM32F3xx_HAL_Driver/Src/stm32f3xx_hal_exti.c ****   *           + Initialization and de-initialization functions
   9:Drivers/STM32F3xx_HAL_Driver/Src/stm32f3xx_hal_exti.c ****   *           + IO operation functions
  10:Drivers/STM32F3xx_HAL_Driver/Src/stm32f3xx_hal_exti.c ****   *
  11:Drivers/STM32F3xx_HAL_Driver/Src/stm32f3xx_hal_exti.c ****   @verbatim
  12:Drivers/STM32F3xx_HAL_Driver/Src/stm32f3xx_hal_exti.c ****   ==============================================================================
  13:Drivers/STM32F3xx_HAL_Driver/Src/stm32f3xx_hal_exti.c ****                     ##### EXTI Peripheral features #####
  14:Drivers/STM32F3xx_HAL_Driver/Src/stm32f3xx_hal_exti.c ****   ==============================================================================
  15:Drivers/STM32F3xx_HAL_Driver/Src/stm32f3xx_hal_exti.c ****   [..]
  16:Drivers/STM32F3xx_HAL_Driver/Src/stm32f3xx_hal_exti.c ****     (+) Each Exti line can be configured within this driver.
  17:Drivers/STM32F3xx_HAL_Driver/Src/stm32f3xx_hal_exti.c **** 
  18:Drivers/STM32F3xx_HAL_Driver/Src/stm32f3xx_hal_exti.c ****     (+) Exti line can be configured in 3 different modes
  19:Drivers/STM32F3xx_HAL_Driver/Src/stm32f3xx_hal_exti.c ****         (++) Interrupt
  20:Drivers/STM32F3xx_HAL_Driver/Src/stm32f3xx_hal_exti.c ****         (++) Event
  21:Drivers/STM32F3xx_HAL_Driver/Src/stm32f3xx_hal_exti.c ****         (++) Both of them
  22:Drivers/STM32F3xx_HAL_Driver/Src/stm32f3xx_hal_exti.c **** 
  23:Drivers/STM32F3xx_HAL_Driver/Src/stm32f3xx_hal_exti.c ****     (+) Configurable Exti lines can be configured with 3 different triggers
  24:Drivers/STM32F3xx_HAL_Driver/Src/stm32f3xx_hal_exti.c ****         (++) Rising
  25:Drivers/STM32F3xx_HAL_Driver/Src/stm32f3xx_hal_exti.c ****         (++) Falling
  26:Drivers/STM32F3xx_HAL_Driver/Src/stm32f3xx_hal_exti.c ****         (++) Both of them
  27:Drivers/STM32F3xx_HAL_Driver/Src/stm32f3xx_hal_exti.c **** 
  28:Drivers/STM32F3xx_HAL_Driver/Src/stm32f3xx_hal_exti.c ****     (+) When set in interrupt mode, configurable Exti lines have two different
  29:Drivers/STM32F3xx_HAL_Driver/Src/stm32f3xx_hal_exti.c ****         interrupts pending registers which allow to distinguish which transition
ARM GAS  /tmp/ccczLV2y.s 			page 2


  30:Drivers/STM32F3xx_HAL_Driver/Src/stm32f3xx_hal_exti.c ****         occurs:
  31:Drivers/STM32F3xx_HAL_Driver/Src/stm32f3xx_hal_exti.c ****         (++) Rising edge pending interrupt
  32:Drivers/STM32F3xx_HAL_Driver/Src/stm32f3xx_hal_exti.c ****         (++) Falling
  33:Drivers/STM32F3xx_HAL_Driver/Src/stm32f3xx_hal_exti.c **** 
  34:Drivers/STM32F3xx_HAL_Driver/Src/stm32f3xx_hal_exti.c ****     (+) Exti lines 0 to 15 are linked to gpio pin number 0 to 15. Gpio port can
  35:Drivers/STM32F3xx_HAL_Driver/Src/stm32f3xx_hal_exti.c ****         be selected through multiplexer.
  36:Drivers/STM32F3xx_HAL_Driver/Src/stm32f3xx_hal_exti.c **** 
  37:Drivers/STM32F3xx_HAL_Driver/Src/stm32f3xx_hal_exti.c ****                      ##### How to use this driver #####
  38:Drivers/STM32F3xx_HAL_Driver/Src/stm32f3xx_hal_exti.c ****   ==============================================================================
  39:Drivers/STM32F3xx_HAL_Driver/Src/stm32f3xx_hal_exti.c ****   [..]
  40:Drivers/STM32F3xx_HAL_Driver/Src/stm32f3xx_hal_exti.c **** 
  41:Drivers/STM32F3xx_HAL_Driver/Src/stm32f3xx_hal_exti.c ****     (#) Configure the EXTI line using HAL_EXTI_SetConfigLine().
  42:Drivers/STM32F3xx_HAL_Driver/Src/stm32f3xx_hal_exti.c ****         (++) Choose the interrupt line number by setting "Line" member from
  43:Drivers/STM32F3xx_HAL_Driver/Src/stm32f3xx_hal_exti.c ****              EXTI_ConfigTypeDef structure.
  44:Drivers/STM32F3xx_HAL_Driver/Src/stm32f3xx_hal_exti.c ****         (++) Configure the interrupt and/or event mode using "Mode" member from
  45:Drivers/STM32F3xx_HAL_Driver/Src/stm32f3xx_hal_exti.c ****              EXTI_ConfigTypeDef structure.
  46:Drivers/STM32F3xx_HAL_Driver/Src/stm32f3xx_hal_exti.c ****         (++) For configurable lines, configure rising and/or falling trigger
  47:Drivers/STM32F3xx_HAL_Driver/Src/stm32f3xx_hal_exti.c ****              "Trigger" member from EXTI_ConfigTypeDef structure.
  48:Drivers/STM32F3xx_HAL_Driver/Src/stm32f3xx_hal_exti.c ****         (++) For Exti lines linked to gpio, choose gpio port using "GPIOSel"
  49:Drivers/STM32F3xx_HAL_Driver/Src/stm32f3xx_hal_exti.c ****              member from GPIO_InitTypeDef structure.
  50:Drivers/STM32F3xx_HAL_Driver/Src/stm32f3xx_hal_exti.c **** 
  51:Drivers/STM32F3xx_HAL_Driver/Src/stm32f3xx_hal_exti.c ****     (#) Get current Exti configuration of a dedicated line using
  52:Drivers/STM32F3xx_HAL_Driver/Src/stm32f3xx_hal_exti.c ****         HAL_EXTI_GetConfigLine().
  53:Drivers/STM32F3xx_HAL_Driver/Src/stm32f3xx_hal_exti.c ****         (++) Provide exiting handle as parameter.
  54:Drivers/STM32F3xx_HAL_Driver/Src/stm32f3xx_hal_exti.c ****         (++) Provide pointer on EXTI_ConfigTypeDef structure as second parameter.
  55:Drivers/STM32F3xx_HAL_Driver/Src/stm32f3xx_hal_exti.c **** 
  56:Drivers/STM32F3xx_HAL_Driver/Src/stm32f3xx_hal_exti.c ****     (#) Clear Exti configuration of a dedicated line using HAL_EXTI_GetConfigLine().
  57:Drivers/STM32F3xx_HAL_Driver/Src/stm32f3xx_hal_exti.c ****         (++) Provide exiting handle as parameter.
  58:Drivers/STM32F3xx_HAL_Driver/Src/stm32f3xx_hal_exti.c **** 
  59:Drivers/STM32F3xx_HAL_Driver/Src/stm32f3xx_hal_exti.c ****     (#) Register callback to treat Exti interrupts using HAL_EXTI_RegisterCallback().
  60:Drivers/STM32F3xx_HAL_Driver/Src/stm32f3xx_hal_exti.c ****         (++) Provide exiting handle as first parameter.
  61:Drivers/STM32F3xx_HAL_Driver/Src/stm32f3xx_hal_exti.c ****         (++) Provide which callback will be registered using one value from
  62:Drivers/STM32F3xx_HAL_Driver/Src/stm32f3xx_hal_exti.c ****              EXTI_CallbackIDTypeDef.
  63:Drivers/STM32F3xx_HAL_Driver/Src/stm32f3xx_hal_exti.c ****         (++) Provide callback function pointer.
  64:Drivers/STM32F3xx_HAL_Driver/Src/stm32f3xx_hal_exti.c **** 
  65:Drivers/STM32F3xx_HAL_Driver/Src/stm32f3xx_hal_exti.c ****     (#) Get interrupt pending bit using HAL_EXTI_GetPending().
  66:Drivers/STM32F3xx_HAL_Driver/Src/stm32f3xx_hal_exti.c **** 
  67:Drivers/STM32F3xx_HAL_Driver/Src/stm32f3xx_hal_exti.c ****     (#) Clear interrupt pending bit using HAL_EXTI_GetPending().
  68:Drivers/STM32F3xx_HAL_Driver/Src/stm32f3xx_hal_exti.c **** 
  69:Drivers/STM32F3xx_HAL_Driver/Src/stm32f3xx_hal_exti.c ****     (#) Generate software interrupt using HAL_EXTI_GenerateSWI().
  70:Drivers/STM32F3xx_HAL_Driver/Src/stm32f3xx_hal_exti.c **** 
  71:Drivers/STM32F3xx_HAL_Driver/Src/stm32f3xx_hal_exti.c ****   @endverbatim
  72:Drivers/STM32F3xx_HAL_Driver/Src/stm32f3xx_hal_exti.c ****   ******************************************************************************
  73:Drivers/STM32F3xx_HAL_Driver/Src/stm32f3xx_hal_exti.c ****   * @attention
  74:Drivers/STM32F3xx_HAL_Driver/Src/stm32f3xx_hal_exti.c ****   *
  75:Drivers/STM32F3xx_HAL_Driver/Src/stm32f3xx_hal_exti.c ****   * <h2><center>&copy; Copyright (c) 2019 STMicroelectronics.
  76:Drivers/STM32F3xx_HAL_Driver/Src/stm32f3xx_hal_exti.c ****   * All rights reserved.</center></h2>
  77:Drivers/STM32F3xx_HAL_Driver/Src/stm32f3xx_hal_exti.c ****   *
  78:Drivers/STM32F3xx_HAL_Driver/Src/stm32f3xx_hal_exti.c ****   * This software component is licensed by ST under BSD 3-Clause license,
  79:Drivers/STM32F3xx_HAL_Driver/Src/stm32f3xx_hal_exti.c ****   * the "License"; You may not use this file except in compliance with the
  80:Drivers/STM32F3xx_HAL_Driver/Src/stm32f3xx_hal_exti.c ****   * License. You may obtain a copy of the License at:
  81:Drivers/STM32F3xx_HAL_Driver/Src/stm32f3xx_hal_exti.c ****   *                        opensource.org/licenses/BSD-3-Clause
  82:Drivers/STM32F3xx_HAL_Driver/Src/stm32f3xx_hal_exti.c ****   *
  83:Drivers/STM32F3xx_HAL_Driver/Src/stm32f3xx_hal_exti.c ****   ******************************************************************************
  84:Drivers/STM32F3xx_HAL_Driver/Src/stm32f3xx_hal_exti.c ****   */
  85:Drivers/STM32F3xx_HAL_Driver/Src/stm32f3xx_hal_exti.c **** 
  86:Drivers/STM32F3xx_HAL_Driver/Src/stm32f3xx_hal_exti.c **** /* Includes ------------------------------------------------------------------*/
ARM GAS  /tmp/ccczLV2y.s 			page 3


  87:Drivers/STM32F3xx_HAL_Driver/Src/stm32f3xx_hal_exti.c **** #include "stm32f3xx_hal.h"
  88:Drivers/STM32F3xx_HAL_Driver/Src/stm32f3xx_hal_exti.c **** 
  89:Drivers/STM32F3xx_HAL_Driver/Src/stm32f3xx_hal_exti.c **** /** @addtogroup STM32F3xx_HAL_Driver
  90:Drivers/STM32F3xx_HAL_Driver/Src/stm32f3xx_hal_exti.c ****   * @{
  91:Drivers/STM32F3xx_HAL_Driver/Src/stm32f3xx_hal_exti.c ****   */
  92:Drivers/STM32F3xx_HAL_Driver/Src/stm32f3xx_hal_exti.c **** 
  93:Drivers/STM32F3xx_HAL_Driver/Src/stm32f3xx_hal_exti.c **** /** @addtogroup EXTI
  94:Drivers/STM32F3xx_HAL_Driver/Src/stm32f3xx_hal_exti.c ****   * @{
  95:Drivers/STM32F3xx_HAL_Driver/Src/stm32f3xx_hal_exti.c ****   */
  96:Drivers/STM32F3xx_HAL_Driver/Src/stm32f3xx_hal_exti.c **** /** MISRA C:2012 deviation rule has been granted for following rule:
  97:Drivers/STM32F3xx_HAL_Driver/Src/stm32f3xx_hal_exti.c ****   * Rule-18.1_b - Medium: Array `EXTICR' 1st subscript interval [0,7] may be out
  98:Drivers/STM32F3xx_HAL_Driver/Src/stm32f3xx_hal_exti.c ****   * of bounds [0,3] in following API :
  99:Drivers/STM32F3xx_HAL_Driver/Src/stm32f3xx_hal_exti.c ****   * HAL_EXTI_SetConfigLine
 100:Drivers/STM32F3xx_HAL_Driver/Src/stm32f3xx_hal_exti.c ****   * HAL_EXTI_GetConfigLine
 101:Drivers/STM32F3xx_HAL_Driver/Src/stm32f3xx_hal_exti.c ****   * HAL_EXTI_ClearConfigLine
 102:Drivers/STM32F3xx_HAL_Driver/Src/stm32f3xx_hal_exti.c ****   */
 103:Drivers/STM32F3xx_HAL_Driver/Src/stm32f3xx_hal_exti.c **** 
 104:Drivers/STM32F3xx_HAL_Driver/Src/stm32f3xx_hal_exti.c **** #ifdef HAL_EXTI_MODULE_ENABLED
 105:Drivers/STM32F3xx_HAL_Driver/Src/stm32f3xx_hal_exti.c **** 
 106:Drivers/STM32F3xx_HAL_Driver/Src/stm32f3xx_hal_exti.c **** /* Private typedef -----------------------------------------------------------*/
 107:Drivers/STM32F3xx_HAL_Driver/Src/stm32f3xx_hal_exti.c **** /* Private defines -----------------------------------------------------------*/
 108:Drivers/STM32F3xx_HAL_Driver/Src/stm32f3xx_hal_exti.c **** /** @defgroup EXTI_Private_Constants EXTI Private Constants
 109:Drivers/STM32F3xx_HAL_Driver/Src/stm32f3xx_hal_exti.c ****   * @{
 110:Drivers/STM32F3xx_HAL_Driver/Src/stm32f3xx_hal_exti.c ****   */
 111:Drivers/STM32F3xx_HAL_Driver/Src/stm32f3xx_hal_exti.c **** #define EXTI_MODE_OFFSET                    0x08u   /* 0x20: offset between CPU IMR/EMR registers *
 112:Drivers/STM32F3xx_HAL_Driver/Src/stm32f3xx_hal_exti.c **** #define EXTI_CONFIG_OFFSET                  0x08u   /* 0x20: offset between CPU Rising/Falling conf
 113:Drivers/STM32F3xx_HAL_Driver/Src/stm32f3xx_hal_exti.c **** /**
 114:Drivers/STM32F3xx_HAL_Driver/Src/stm32f3xx_hal_exti.c ****   * @}
 115:Drivers/STM32F3xx_HAL_Driver/Src/stm32f3xx_hal_exti.c ****   */
 116:Drivers/STM32F3xx_HAL_Driver/Src/stm32f3xx_hal_exti.c **** 
 117:Drivers/STM32F3xx_HAL_Driver/Src/stm32f3xx_hal_exti.c **** /* Private macros ------------------------------------------------------------*/
 118:Drivers/STM32F3xx_HAL_Driver/Src/stm32f3xx_hal_exti.c **** /* Private variables ---------------------------------------------------------*/
 119:Drivers/STM32F3xx_HAL_Driver/Src/stm32f3xx_hal_exti.c **** /* Private function prototypes -----------------------------------------------*/
 120:Drivers/STM32F3xx_HAL_Driver/Src/stm32f3xx_hal_exti.c **** /* Exported functions --------------------------------------------------------*/
 121:Drivers/STM32F3xx_HAL_Driver/Src/stm32f3xx_hal_exti.c **** 
 122:Drivers/STM32F3xx_HAL_Driver/Src/stm32f3xx_hal_exti.c **** /** @addtogroup EXTI_Exported_Functions
 123:Drivers/STM32F3xx_HAL_Driver/Src/stm32f3xx_hal_exti.c ****   * @{
 124:Drivers/STM32F3xx_HAL_Driver/Src/stm32f3xx_hal_exti.c ****   */
 125:Drivers/STM32F3xx_HAL_Driver/Src/stm32f3xx_hal_exti.c **** 
 126:Drivers/STM32F3xx_HAL_Driver/Src/stm32f3xx_hal_exti.c **** /** @addtogroup EXTI_Exported_Functions_Group1
 127:Drivers/STM32F3xx_HAL_Driver/Src/stm32f3xx_hal_exti.c ****   * @brief    Configuration functions
 128:Drivers/STM32F3xx_HAL_Driver/Src/stm32f3xx_hal_exti.c ****   *
 129:Drivers/STM32F3xx_HAL_Driver/Src/stm32f3xx_hal_exti.c **** @verbatim
 130:Drivers/STM32F3xx_HAL_Driver/Src/stm32f3xx_hal_exti.c ****  ===============================================================================
 131:Drivers/STM32F3xx_HAL_Driver/Src/stm32f3xx_hal_exti.c ****               ##### Configuration functions #####
 132:Drivers/STM32F3xx_HAL_Driver/Src/stm32f3xx_hal_exti.c ****  ===============================================================================
 133:Drivers/STM32F3xx_HAL_Driver/Src/stm32f3xx_hal_exti.c **** 
 134:Drivers/STM32F3xx_HAL_Driver/Src/stm32f3xx_hal_exti.c **** @endverbatim
 135:Drivers/STM32F3xx_HAL_Driver/Src/stm32f3xx_hal_exti.c ****   * @{
 136:Drivers/STM32F3xx_HAL_Driver/Src/stm32f3xx_hal_exti.c ****   */
 137:Drivers/STM32F3xx_HAL_Driver/Src/stm32f3xx_hal_exti.c **** 
 138:Drivers/STM32F3xx_HAL_Driver/Src/stm32f3xx_hal_exti.c **** /**
 139:Drivers/STM32F3xx_HAL_Driver/Src/stm32f3xx_hal_exti.c ****   * @brief  Set configuration of a dedicated Exti line.
 140:Drivers/STM32F3xx_HAL_Driver/Src/stm32f3xx_hal_exti.c ****   * @param  hexti Exti handle.
 141:Drivers/STM32F3xx_HAL_Driver/Src/stm32f3xx_hal_exti.c ****   * @param  pExtiConfig Pointer on EXTI configuration to be set.
 142:Drivers/STM32F3xx_HAL_Driver/Src/stm32f3xx_hal_exti.c ****   * @retval HAL Status.
 143:Drivers/STM32F3xx_HAL_Driver/Src/stm32f3xx_hal_exti.c ****   */
ARM GAS  /tmp/ccczLV2y.s 			page 4


 144:Drivers/STM32F3xx_HAL_Driver/Src/stm32f3xx_hal_exti.c **** HAL_StatusTypeDef HAL_EXTI_SetConfigLine(EXTI_HandleTypeDef *hexti, EXTI_ConfigTypeDef *pExtiConfig
 145:Drivers/STM32F3xx_HAL_Driver/Src/stm32f3xx_hal_exti.c **** {
  30              		.loc 1 145 1 view -0
  31              		.cfi_startproc
  32              		@ args = 0, pretend = 0, frame = 0
  33              		@ frame_needed = 0, uses_anonymous_args = 0
  34              		@ link register save eliminated.
 146:Drivers/STM32F3xx_HAL_Driver/Src/stm32f3xx_hal_exti.c ****   __IO uint32_t *regaddr;
  35              		.loc 1 146 3 view .LVU1
 147:Drivers/STM32F3xx_HAL_Driver/Src/stm32f3xx_hal_exti.c ****   uint32_t regval;
  36              		.loc 1 147 3 view .LVU2
 148:Drivers/STM32F3xx_HAL_Driver/Src/stm32f3xx_hal_exti.c ****   uint32_t linepos;
  37              		.loc 1 148 3 view .LVU3
 149:Drivers/STM32F3xx_HAL_Driver/Src/stm32f3xx_hal_exti.c ****   uint32_t maskline;
  38              		.loc 1 149 3 view .LVU4
 150:Drivers/STM32F3xx_HAL_Driver/Src/stm32f3xx_hal_exti.c ****   uint32_t offset;
  39              		.loc 1 150 3 view .LVU5
 151:Drivers/STM32F3xx_HAL_Driver/Src/stm32f3xx_hal_exti.c **** 
 152:Drivers/STM32F3xx_HAL_Driver/Src/stm32f3xx_hal_exti.c ****   /* Check null pointer */
 153:Drivers/STM32F3xx_HAL_Driver/Src/stm32f3xx_hal_exti.c ****   if ((hexti == NULL) || (pExtiConfig == NULL))
  40              		.loc 1 153 3 view .LVU6
  41              		.loc 1 153 6 is_stmt 0 view .LVU7
  42 0000 0028     		cmp	r0, #0
  43 0002 5ED0     		beq	.L12
  44              		.loc 1 153 23 discriminator 1 view .LVU8
  45 0004 0029     		cmp	r1, #0
  46 0006 5ED0     		beq	.L13
 145:Drivers/STM32F3xx_HAL_Driver/Src/stm32f3xx_hal_exti.c ****   __IO uint32_t *regaddr;
  47              		.loc 1 145 1 view .LVU9
  48 0008 F0B4     		push	{r4, r5, r6, r7}
  49              	.LCFI0:
  50              		.cfi_def_cfa_offset 16
  51              		.cfi_offset 4, -16
  52              		.cfi_offset 5, -12
  53              		.cfi_offset 6, -8
  54              		.cfi_offset 7, -4
 154:Drivers/STM32F3xx_HAL_Driver/Src/stm32f3xx_hal_exti.c ****   {
 155:Drivers/STM32F3xx_HAL_Driver/Src/stm32f3xx_hal_exti.c ****     return HAL_ERROR;
 156:Drivers/STM32F3xx_HAL_Driver/Src/stm32f3xx_hal_exti.c ****   }
 157:Drivers/STM32F3xx_HAL_Driver/Src/stm32f3xx_hal_exti.c **** 
 158:Drivers/STM32F3xx_HAL_Driver/Src/stm32f3xx_hal_exti.c ****   /* Check parameters */
 159:Drivers/STM32F3xx_HAL_Driver/Src/stm32f3xx_hal_exti.c ****   assert_param(IS_EXTI_LINE(pExtiConfig->Line));
  55              		.loc 1 159 3 is_stmt 1 view .LVU10
 160:Drivers/STM32F3xx_HAL_Driver/Src/stm32f3xx_hal_exti.c ****   assert_param(IS_EXTI_MODE(pExtiConfig->Mode));
  56              		.loc 1 160 3 view .LVU11
 161:Drivers/STM32F3xx_HAL_Driver/Src/stm32f3xx_hal_exti.c **** 
 162:Drivers/STM32F3xx_HAL_Driver/Src/stm32f3xx_hal_exti.c ****   /* Assign line number to handle */
 163:Drivers/STM32F3xx_HAL_Driver/Src/stm32f3xx_hal_exti.c ****   hexti->Line = pExtiConfig->Line;
  57              		.loc 1 163 3 view .LVU12
  58              		.loc 1 163 28 is_stmt 0 view .LVU13
  59 000a 0A68     		ldr	r2, [r1]
  60              		.loc 1 163 15 view .LVU14
  61 000c 0260     		str	r2, [r0]
 164:Drivers/STM32F3xx_HAL_Driver/Src/stm32f3xx_hal_exti.c **** 
 165:Drivers/STM32F3xx_HAL_Driver/Src/stm32f3xx_hal_exti.c ****   /* Compute line register offset and line mask */
 166:Drivers/STM32F3xx_HAL_Driver/Src/stm32f3xx_hal_exti.c ****   offset = ((pExtiConfig->Line & EXTI_REG_MASK) >> EXTI_REG_SHIFT);
  62              		.loc 1 166 3 is_stmt 1 view .LVU15
ARM GAS  /tmp/ccczLV2y.s 			page 5


  63              		.loc 1 166 10 is_stmt 0 view .LVU16
  64 000e C2F30043 		ubfx	r3, r2, #16, #1
  65              	.LVL1:
 167:Drivers/STM32F3xx_HAL_Driver/Src/stm32f3xx_hal_exti.c ****   linepos = (pExtiConfig->Line & EXTI_PIN_MASK);
  66              		.loc 1 167 3 is_stmt 1 view .LVU17
  67              		.loc 1 167 11 is_stmt 0 view .LVU18
  68 0012 02F01F04 		and	r4, r2, #31
  69              	.LVL2:
 168:Drivers/STM32F3xx_HAL_Driver/Src/stm32f3xx_hal_exti.c ****   maskline = (1uL << linepos);
  70              		.loc 1 168 3 is_stmt 1 view .LVU19
  71              		.loc 1 168 12 is_stmt 0 view .LVU20
  72 0016 0120     		movs	r0, #1
  73              	.LVL3:
  74              		.loc 1 168 12 view .LVU21
  75 0018 A040     		lsls	r0, r0, r4
  76              	.LVL4:
 169:Drivers/STM32F3xx_HAL_Driver/Src/stm32f3xx_hal_exti.c **** 
 170:Drivers/STM32F3xx_HAL_Driver/Src/stm32f3xx_hal_exti.c ****   /* Configure triggers for configurable lines */
 171:Drivers/STM32F3xx_HAL_Driver/Src/stm32f3xx_hal_exti.c ****   if ((pExtiConfig->Line & EXTI_CONFIG) != 0x00u)
  77              		.loc 1 171 3 is_stmt 1 view .LVU22
  78              		.loc 1 171 6 is_stmt 0 view .LVU23
  79 001a 12F0007F 		tst	r2, #33554432
  80 001e 1AD0     		beq	.L3
 172:Drivers/STM32F3xx_HAL_Driver/Src/stm32f3xx_hal_exti.c ****   {
 173:Drivers/STM32F3xx_HAL_Driver/Src/stm32f3xx_hal_exti.c ****     assert_param(IS_EXTI_TRIGGER(pExtiConfig->Trigger));
  81              		.loc 1 173 5 is_stmt 1 view .LVU24
 174:Drivers/STM32F3xx_HAL_Driver/Src/stm32f3xx_hal_exti.c **** 
 175:Drivers/STM32F3xx_HAL_Driver/Src/stm32f3xx_hal_exti.c ****     /* Configure rising trigger */
 176:Drivers/STM32F3xx_HAL_Driver/Src/stm32f3xx_hal_exti.c ****     regaddr = (&EXTI->RTSR + (EXTI_CONFIG_OFFSET * offset));
  82              		.loc 1 176 5 view .LVU25
  83              		.loc 1 176 28 is_stmt 0 view .LVU26
  84 0020 5D01     		lsls	r5, r3, #5
  85              		.loc 1 176 13 view .LVU27
  86 0022 2A4F     		ldr	r7, .L19
  87              	.LVL5:
 177:Drivers/STM32F3xx_HAL_Driver/Src/stm32f3xx_hal_exti.c ****     regval = *regaddr;
  88              		.loc 1 177 5 is_stmt 1 view .LVU28
  89              		.loc 1 177 12 is_stmt 0 view .LVU29
  90 0024 55F807C0 		ldr	ip, [r5, r7]
  91              	.LVL6:
 178:Drivers/STM32F3xx_HAL_Driver/Src/stm32f3xx_hal_exti.c **** 
 179:Drivers/STM32F3xx_HAL_Driver/Src/stm32f3xx_hal_exti.c ****     /* Mask or set line */
 180:Drivers/STM32F3xx_HAL_Driver/Src/stm32f3xx_hal_exti.c ****     if ((pExtiConfig->Trigger & EXTI_TRIGGER_RISING) != 0x00u)
  92              		.loc 1 180 5 is_stmt 1 view .LVU30
  93              		.loc 1 180 8 is_stmt 0 view .LVU31
  94 0028 8E68     		ldr	r6, [r1, #8]
  95 002a 16F0010F 		tst	r6, #1
  96 002e 29D0     		beq	.L4
 181:Drivers/STM32F3xx_HAL_Driver/Src/stm32f3xx_hal_exti.c ****     {
 182:Drivers/STM32F3xx_HAL_Driver/Src/stm32f3xx_hal_exti.c ****       regval |= maskline;
  97              		.loc 1 182 7 is_stmt 1 view .LVU32
  98              		.loc 1 182 14 is_stmt 0 view .LVU33
  99 0030 4CEA0006 		orr	r6, ip, r0
 100              	.LVL7:
 101              	.L5:
 183:Drivers/STM32F3xx_HAL_Driver/Src/stm32f3xx_hal_exti.c ****     }
 184:Drivers/STM32F3xx_HAL_Driver/Src/stm32f3xx_hal_exti.c ****     else
ARM GAS  /tmp/ccczLV2y.s 			page 6


 185:Drivers/STM32F3xx_HAL_Driver/Src/stm32f3xx_hal_exti.c ****     {
 186:Drivers/STM32F3xx_HAL_Driver/Src/stm32f3xx_hal_exti.c ****       regval &= ~maskline;
 187:Drivers/STM32F3xx_HAL_Driver/Src/stm32f3xx_hal_exti.c ****     }
 188:Drivers/STM32F3xx_HAL_Driver/Src/stm32f3xx_hal_exti.c **** 
 189:Drivers/STM32F3xx_HAL_Driver/Src/stm32f3xx_hal_exti.c ****     /* Store rising trigger mode */
 190:Drivers/STM32F3xx_HAL_Driver/Src/stm32f3xx_hal_exti.c ****     *regaddr = regval;
 102              		.loc 1 190 5 is_stmt 1 view .LVU34
 103              		.loc 1 190 14 is_stmt 0 view .LVU35
 104 0034 EE51     		str	r6, [r5, r7]
 191:Drivers/STM32F3xx_HAL_Driver/Src/stm32f3xx_hal_exti.c **** 
 192:Drivers/STM32F3xx_HAL_Driver/Src/stm32f3xx_hal_exti.c ****     /* Configure falling trigger */
 193:Drivers/STM32F3xx_HAL_Driver/Src/stm32f3xx_hal_exti.c ****     regaddr = (&EXTI->FTSR + (EXTI_CONFIG_OFFSET * offset));
 105              		.loc 1 193 5 is_stmt 1 view .LVU36
 106              		.loc 1 193 13 is_stmt 0 view .LVU37
 107 0036 264F     		ldr	r7, .L19+4
 108              	.LVL8:
 194:Drivers/STM32F3xx_HAL_Driver/Src/stm32f3xx_hal_exti.c ****     regval = *regaddr;
 109              		.loc 1 194 5 is_stmt 1 view .LVU38
 110              		.loc 1 194 12 is_stmt 0 view .LVU39
 111 0038 55F807C0 		ldr	ip, [r5, r7]
 112              	.LVL9:
 195:Drivers/STM32F3xx_HAL_Driver/Src/stm32f3xx_hal_exti.c **** 
 196:Drivers/STM32F3xx_HAL_Driver/Src/stm32f3xx_hal_exti.c ****     /* Mask or set line */
 197:Drivers/STM32F3xx_HAL_Driver/Src/stm32f3xx_hal_exti.c ****     if ((pExtiConfig->Trigger & EXTI_TRIGGER_FALLING) != 0x00u)
 113              		.loc 1 197 5 is_stmt 1 view .LVU40
 114              		.loc 1 197 8 is_stmt 0 view .LVU41
 115 003c 8E68     		ldr	r6, [r1, #8]
 116 003e 16F0020F 		tst	r6, #2
 117 0042 22D0     		beq	.L6
 198:Drivers/STM32F3xx_HAL_Driver/Src/stm32f3xx_hal_exti.c ****     {
 199:Drivers/STM32F3xx_HAL_Driver/Src/stm32f3xx_hal_exti.c ****       regval |= maskline;
 118              		.loc 1 199 7 is_stmt 1 view .LVU42
 119              		.loc 1 199 14 is_stmt 0 view .LVU43
 120 0044 4CEA0006 		orr	r6, ip, r0
 121              	.LVL10:
 122              	.L7:
 200:Drivers/STM32F3xx_HAL_Driver/Src/stm32f3xx_hal_exti.c ****     }
 201:Drivers/STM32F3xx_HAL_Driver/Src/stm32f3xx_hal_exti.c ****     else
 202:Drivers/STM32F3xx_HAL_Driver/Src/stm32f3xx_hal_exti.c ****     {
 203:Drivers/STM32F3xx_HAL_Driver/Src/stm32f3xx_hal_exti.c ****       regval &= ~maskline;
 204:Drivers/STM32F3xx_HAL_Driver/Src/stm32f3xx_hal_exti.c ****     }
 205:Drivers/STM32F3xx_HAL_Driver/Src/stm32f3xx_hal_exti.c **** 
 206:Drivers/STM32F3xx_HAL_Driver/Src/stm32f3xx_hal_exti.c ****     /* Store falling trigger mode */
 207:Drivers/STM32F3xx_HAL_Driver/Src/stm32f3xx_hal_exti.c ****     *regaddr = regval;
 123              		.loc 1 207 5 is_stmt 1 view .LVU44
 124              		.loc 1 207 14 is_stmt 0 view .LVU45
 125 0048 EE51     		str	r6, [r5, r7]
 208:Drivers/STM32F3xx_HAL_Driver/Src/stm32f3xx_hal_exti.c **** 
 209:Drivers/STM32F3xx_HAL_Driver/Src/stm32f3xx_hal_exti.c ****     /* Configure gpio port selection in case of gpio exti line */
 210:Drivers/STM32F3xx_HAL_Driver/Src/stm32f3xx_hal_exti.c ****     if ((pExtiConfig->Line & EXTI_GPIO) == EXTI_GPIO)
 126              		.loc 1 210 5 is_stmt 1 view .LVU46
 127              		.loc 1 210 21 is_stmt 0 view .LVU47
 128 004a 0D68     		ldr	r5, [r1]
 129              	.LVL11:
 130              		.loc 1 210 28 view .LVU48
 131 004c 05F0C065 		and	r5, r5, #100663296
 132              		.loc 1 210 8 view .LVU49
ARM GAS  /tmp/ccczLV2y.s 			page 7


 133 0050 B5F1C06F 		cmp	r5, #100663296
 134 0054 1CD0     		beq	.L18
 135              	.LVL12:
 136              	.L3:
 211:Drivers/STM32F3xx_HAL_Driver/Src/stm32f3xx_hal_exti.c ****     {
 212:Drivers/STM32F3xx_HAL_Driver/Src/stm32f3xx_hal_exti.c ****       assert_param(IS_EXTI_GPIO_PORT(pExtiConfig->GPIOSel));
 213:Drivers/STM32F3xx_HAL_Driver/Src/stm32f3xx_hal_exti.c ****       assert_param(IS_EXTI_GPIO_PIN(linepos));
 214:Drivers/STM32F3xx_HAL_Driver/Src/stm32f3xx_hal_exti.c **** 
 215:Drivers/STM32F3xx_HAL_Driver/Src/stm32f3xx_hal_exti.c ****       regval = SYSCFG->EXTICR[linepos >> 2u];
 216:Drivers/STM32F3xx_HAL_Driver/Src/stm32f3xx_hal_exti.c ****       regval &= ~(SYSCFG_EXTICR1_EXTI0 << (SYSCFG_EXTICR1_EXTI1_Pos * (linepos & 0x03u)));
 217:Drivers/STM32F3xx_HAL_Driver/Src/stm32f3xx_hal_exti.c ****       regval |= (pExtiConfig->GPIOSel << (SYSCFG_EXTICR1_EXTI1_Pos * (linepos & 0x03u)));
 218:Drivers/STM32F3xx_HAL_Driver/Src/stm32f3xx_hal_exti.c ****       SYSCFG->EXTICR[linepos >> 2u] = regval;
 219:Drivers/STM32F3xx_HAL_Driver/Src/stm32f3xx_hal_exti.c ****     }
 220:Drivers/STM32F3xx_HAL_Driver/Src/stm32f3xx_hal_exti.c ****   }
 221:Drivers/STM32F3xx_HAL_Driver/Src/stm32f3xx_hal_exti.c **** 
 222:Drivers/STM32F3xx_HAL_Driver/Src/stm32f3xx_hal_exti.c ****   /* Configure interrupt mode : read current mode */
 223:Drivers/STM32F3xx_HAL_Driver/Src/stm32f3xx_hal_exti.c ****   regaddr = (&EXTI->IMR + (EXTI_MODE_OFFSET * offset));
 137              		.loc 1 223 3 is_stmt 1 view .LVU50
 138              		.loc 1 223 25 is_stmt 0 view .LVU51
 139 0056 5B01     		lsls	r3, r3, #5
 140              	.LVL13:
 141              		.loc 1 223 11 view .LVU52
 142 0058 03F18042 		add	r2, r3, #1073741824
 143 005c 02F58232 		add	r2, r2, #66560
 144              	.LVL14:
 224:Drivers/STM32F3xx_HAL_Driver/Src/stm32f3xx_hal_exti.c ****   regval = *regaddr;
 145              		.loc 1 224 3 is_stmt 1 view .LVU53
 146              		.loc 1 224 10 is_stmt 0 view .LVU54
 147 0060 1468     		ldr	r4, [r2]
 148              	.LVL15:
 225:Drivers/STM32F3xx_HAL_Driver/Src/stm32f3xx_hal_exti.c **** 
 226:Drivers/STM32F3xx_HAL_Driver/Src/stm32f3xx_hal_exti.c ****   /* Mask or set line */
 227:Drivers/STM32F3xx_HAL_Driver/Src/stm32f3xx_hal_exti.c ****   if ((pExtiConfig->Mode & EXTI_MODE_INTERRUPT) != 0x00u)
 149              		.loc 1 227 3 is_stmt 1 view .LVU55
 150              		.loc 1 227 19 is_stmt 0 view .LVU56
 151 0062 4D68     		ldr	r5, [r1, #4]
 152              		.loc 1 227 6 view .LVU57
 153 0064 15F0010F 		tst	r5, #1
 154 0068 25D0     		beq	.L8
 228:Drivers/STM32F3xx_HAL_Driver/Src/stm32f3xx_hal_exti.c ****   {
 229:Drivers/STM32F3xx_HAL_Driver/Src/stm32f3xx_hal_exti.c ****     regval |= maskline;
 155              		.loc 1 229 5 is_stmt 1 view .LVU58
 156              		.loc 1 229 12 is_stmt 0 view .LVU59
 157 006a 0443     		orrs	r4, r4, r0
 158              	.LVL16:
 159              	.L9:
 230:Drivers/STM32F3xx_HAL_Driver/Src/stm32f3xx_hal_exti.c ****   }
 231:Drivers/STM32F3xx_HAL_Driver/Src/stm32f3xx_hal_exti.c ****   else
 232:Drivers/STM32F3xx_HAL_Driver/Src/stm32f3xx_hal_exti.c ****   {
 233:Drivers/STM32F3xx_HAL_Driver/Src/stm32f3xx_hal_exti.c ****     regval &= ~maskline;
 234:Drivers/STM32F3xx_HAL_Driver/Src/stm32f3xx_hal_exti.c ****   }
 235:Drivers/STM32F3xx_HAL_Driver/Src/stm32f3xx_hal_exti.c **** 
 236:Drivers/STM32F3xx_HAL_Driver/Src/stm32f3xx_hal_exti.c ****   /* Store interrupt mode */
 237:Drivers/STM32F3xx_HAL_Driver/Src/stm32f3xx_hal_exti.c ****   *regaddr = regval;
 160              		.loc 1 237 3 is_stmt 1 view .LVU60
 161              		.loc 1 237 12 is_stmt 0 view .LVU61
 162 006c 1460     		str	r4, [r2]
ARM GAS  /tmp/ccczLV2y.s 			page 8


 238:Drivers/STM32F3xx_HAL_Driver/Src/stm32f3xx_hal_exti.c **** 
 239:Drivers/STM32F3xx_HAL_Driver/Src/stm32f3xx_hal_exti.c ****   /* Configure event mode : read current mode */
 240:Drivers/STM32F3xx_HAL_Driver/Src/stm32f3xx_hal_exti.c ****   regaddr = (&EXTI->EMR + (EXTI_MODE_OFFSET * offset));
 163              		.loc 1 240 3 is_stmt 1 view .LVU62
 164              		.loc 1 240 11 is_stmt 0 view .LVU63
 165 006e 194C     		ldr	r4, .L19+8
 166              	.LVL17:
 241:Drivers/STM32F3xx_HAL_Driver/Src/stm32f3xx_hal_exti.c ****   regval = *regaddr;
 167              		.loc 1 241 3 is_stmt 1 view .LVU64
 168              		.loc 1 241 10 is_stmt 0 view .LVU65
 169 0070 1A59     		ldr	r2, [r3, r4]
 170              	.LVL18:
 242:Drivers/STM32F3xx_HAL_Driver/Src/stm32f3xx_hal_exti.c **** 
 243:Drivers/STM32F3xx_HAL_Driver/Src/stm32f3xx_hal_exti.c ****   /* Mask or set line */
 244:Drivers/STM32F3xx_HAL_Driver/Src/stm32f3xx_hal_exti.c ****   if ((pExtiConfig->Mode & EXTI_MODE_EVENT) != 0x00u)
 171              		.loc 1 244 3 is_stmt 1 view .LVU66
 172              		.loc 1 244 19 is_stmt 0 view .LVU67
 173 0072 4968     		ldr	r1, [r1, #4]
 174              	.LVL19:
 175              		.loc 1 244 6 view .LVU68
 176 0074 11F0020F 		tst	r1, #2
 177 0078 20D0     		beq	.L10
 245:Drivers/STM32F3xx_HAL_Driver/Src/stm32f3xx_hal_exti.c ****   {
 246:Drivers/STM32F3xx_HAL_Driver/Src/stm32f3xx_hal_exti.c ****     regval |= maskline;
 178              		.loc 1 246 5 is_stmt 1 view .LVU69
 179              		.loc 1 246 12 is_stmt 0 view .LVU70
 180 007a 1043     		orrs	r0, r0, r2
 181              	.LVL20:
 182              	.L11:
 247:Drivers/STM32F3xx_HAL_Driver/Src/stm32f3xx_hal_exti.c ****   }
 248:Drivers/STM32F3xx_HAL_Driver/Src/stm32f3xx_hal_exti.c ****   else
 249:Drivers/STM32F3xx_HAL_Driver/Src/stm32f3xx_hal_exti.c ****   {
 250:Drivers/STM32F3xx_HAL_Driver/Src/stm32f3xx_hal_exti.c ****     regval &= ~maskline;
 251:Drivers/STM32F3xx_HAL_Driver/Src/stm32f3xx_hal_exti.c ****   }
 252:Drivers/STM32F3xx_HAL_Driver/Src/stm32f3xx_hal_exti.c **** 
 253:Drivers/STM32F3xx_HAL_Driver/Src/stm32f3xx_hal_exti.c ****   /* Store event mode */
 254:Drivers/STM32F3xx_HAL_Driver/Src/stm32f3xx_hal_exti.c ****   *regaddr = regval;
 183              		.loc 1 254 3 is_stmt 1 view .LVU71
 184              		.loc 1 254 12 is_stmt 0 view .LVU72
 185 007c 1851     		str	r0, [r3, r4]
 255:Drivers/STM32F3xx_HAL_Driver/Src/stm32f3xx_hal_exti.c **** 
 256:Drivers/STM32F3xx_HAL_Driver/Src/stm32f3xx_hal_exti.c ****   return HAL_OK;
 186              		.loc 1 256 3 is_stmt 1 view .LVU73
 187              		.loc 1 256 10 is_stmt 0 view .LVU74
 188 007e 0020     		movs	r0, #0
 189              	.LVL21:
 257:Drivers/STM32F3xx_HAL_Driver/Src/stm32f3xx_hal_exti.c **** }
 190              		.loc 1 257 1 view .LVU75
 191 0080 F0BC     		pop	{r4, r5, r6, r7}
 192              	.LCFI1:
 193              		.cfi_remember_state
 194              		.cfi_restore 7
 195              		.cfi_restore 6
 196              		.cfi_restore 5
 197              		.cfi_restore 4
 198              		.cfi_def_cfa_offset 0
 199              	.LVL22:
ARM GAS  /tmp/ccczLV2y.s 			page 9


 200              		.loc 1 257 1 view .LVU76
 201 0082 7047     		bx	lr
 202              	.LVL23:
 203              	.L4:
 204              	.LCFI2:
 205              		.cfi_restore_state
 186:Drivers/STM32F3xx_HAL_Driver/Src/stm32f3xx_hal_exti.c ****     }
 206              		.loc 1 186 7 is_stmt 1 view .LVU77
 186:Drivers/STM32F3xx_HAL_Driver/Src/stm32f3xx_hal_exti.c ****     }
 207              		.loc 1 186 14 is_stmt 0 view .LVU78
 208 0084 2CEA0006 		bic	r6, ip, r0
 209              	.LVL24:
 186:Drivers/STM32F3xx_HAL_Driver/Src/stm32f3xx_hal_exti.c ****     }
 210              		.loc 1 186 14 view .LVU79
 211 0088 D4E7     		b	.L5
 212              	.LVL25:
 213              	.L6:
 203:Drivers/STM32F3xx_HAL_Driver/Src/stm32f3xx_hal_exti.c ****     }
 214              		.loc 1 203 7 is_stmt 1 view .LVU80
 203:Drivers/STM32F3xx_HAL_Driver/Src/stm32f3xx_hal_exti.c ****     }
 215              		.loc 1 203 14 is_stmt 0 view .LVU81
 216 008a 2CEA0006 		bic	r6, ip, r0
 217              	.LVL26:
 203:Drivers/STM32F3xx_HAL_Driver/Src/stm32f3xx_hal_exti.c ****     }
 218              		.loc 1 203 14 view .LVU82
 219 008e DBE7     		b	.L7
 220              	.LVL27:
 221              	.L18:
 212:Drivers/STM32F3xx_HAL_Driver/Src/stm32f3xx_hal_exti.c ****       assert_param(IS_EXTI_GPIO_PIN(linepos));
 222              		.loc 1 212 7 is_stmt 1 view .LVU83
 213:Drivers/STM32F3xx_HAL_Driver/Src/stm32f3xx_hal_exti.c **** 
 223              		.loc 1 213 7 view .LVU84
 215:Drivers/STM32F3xx_HAL_Driver/Src/stm32f3xx_hal_exti.c ****       regval &= ~(SYSCFG_EXTICR1_EXTI0 << (SYSCFG_EXTICR1_EXTI1_Pos * (linepos & 0x03u)));
 224              		.loc 1 215 7 view .LVU85
 215:Drivers/STM32F3xx_HAL_Driver/Src/stm32f3xx_hal_exti.c ****       regval &= ~(SYSCFG_EXTICR1_EXTI0 << (SYSCFG_EXTICR1_EXTI1_Pos * (linepos & 0x03u)));
 225              		.loc 1 215 39 is_stmt 0 view .LVU86
 226 0090 A408     		lsrs	r4, r4, #2
 227              	.LVL28:
 215:Drivers/STM32F3xx_HAL_Driver/Src/stm32f3xx_hal_exti.c ****       regval &= ~(SYSCFG_EXTICR1_EXTI0 << (SYSCFG_EXTICR1_EXTI1_Pos * (linepos & 0x03u)));
 228              		.loc 1 215 14 view .LVU87
 229 0092 114F     		ldr	r7, .L19+12
 230              	.LVL29:
 215:Drivers/STM32F3xx_HAL_Driver/Src/stm32f3xx_hal_exti.c ****       regval &= ~(SYSCFG_EXTICR1_EXTI0 << (SYSCFG_EXTICR1_EXTI1_Pos * (linepos & 0x03u)));
 231              		.loc 1 215 14 view .LVU88
 232 0094 0234     		adds	r4, r4, #2
 233 0096 57F82460 		ldr	r6, [r7, r4, lsl #2]
 234              	.LVL30:
 216:Drivers/STM32F3xx_HAL_Driver/Src/stm32f3xx_hal_exti.c ****       regval |= (pExtiConfig->GPIOSel << (SYSCFG_EXTICR1_EXTI1_Pos * (linepos & 0x03u)));
 235              		.loc 1 216 7 is_stmt 1 view .LVU89
 216:Drivers/STM32F3xx_HAL_Driver/Src/stm32f3xx_hal_exti.c ****       regval |= (pExtiConfig->GPIOSel << (SYSCFG_EXTICR1_EXTI1_Pos * (linepos & 0x03u)));
 236              		.loc 1 216 80 is_stmt 0 view .LVU90
 237 009a 02F00302 		and	r2, r2, #3
 238              	.LVL31:
 216:Drivers/STM32F3xx_HAL_Driver/Src/stm32f3xx_hal_exti.c ****       regval |= (pExtiConfig->GPIOSel << (SYSCFG_EXTICR1_EXTI1_Pos * (linepos & 0x03u)));
 239              		.loc 1 216 69 view .LVU91
 240 009e 9200     		lsls	r2, r2, #2
 216:Drivers/STM32F3xx_HAL_Driver/Src/stm32f3xx_hal_exti.c ****       regval |= (pExtiConfig->GPIOSel << (SYSCFG_EXTICR1_EXTI1_Pos * (linepos & 0x03u)));
ARM GAS  /tmp/ccczLV2y.s 			page 10


 241              		.loc 1 216 40 view .LVU92
 242 00a0 0F25     		movs	r5, #15
 243 00a2 9540     		lsls	r5, r5, r2
 216:Drivers/STM32F3xx_HAL_Driver/Src/stm32f3xx_hal_exti.c ****       regval |= (pExtiConfig->GPIOSel << (SYSCFG_EXTICR1_EXTI1_Pos * (linepos & 0x03u)));
 244              		.loc 1 216 14 view .LVU93
 245 00a4 26EA0506 		bic	r6, r6, r5
 246              	.LVL32:
 217:Drivers/STM32F3xx_HAL_Driver/Src/stm32f3xx_hal_exti.c ****       SYSCFG->EXTICR[linepos >> 2u] = regval;
 247              		.loc 1 217 7 is_stmt 1 view .LVU94
 217:Drivers/STM32F3xx_HAL_Driver/Src/stm32f3xx_hal_exti.c ****       SYSCFG->EXTICR[linepos >> 2u] = regval;
 248              		.loc 1 217 29 is_stmt 0 view .LVU95
 249 00a8 CD68     		ldr	r5, [r1, #12]
 217:Drivers/STM32F3xx_HAL_Driver/Src/stm32f3xx_hal_exti.c ****       SYSCFG->EXTICR[linepos >> 2u] = regval;
 250              		.loc 1 217 39 view .LVU96
 251 00aa 05FA02F2 		lsl	r2, r5, r2
 217:Drivers/STM32F3xx_HAL_Driver/Src/stm32f3xx_hal_exti.c ****       SYSCFG->EXTICR[linepos >> 2u] = regval;
 252              		.loc 1 217 14 view .LVU97
 253 00ae 3243     		orrs	r2, r2, r6
 254              	.LVL33:
 218:Drivers/STM32F3xx_HAL_Driver/Src/stm32f3xx_hal_exti.c ****     }
 255              		.loc 1 218 7 is_stmt 1 view .LVU98
 218:Drivers/STM32F3xx_HAL_Driver/Src/stm32f3xx_hal_exti.c ****     }
 256              		.loc 1 218 37 is_stmt 0 view .LVU99
 257 00b0 47F82420 		str	r2, [r7, r4, lsl #2]
 258 00b4 CFE7     		b	.L3
 259              	.LVL34:
 260              	.L8:
 233:Drivers/STM32F3xx_HAL_Driver/Src/stm32f3xx_hal_exti.c ****   }
 261              		.loc 1 233 5 is_stmt 1 view .LVU100
 233:Drivers/STM32F3xx_HAL_Driver/Src/stm32f3xx_hal_exti.c ****   }
 262              		.loc 1 233 12 is_stmt 0 view .LVU101
 263 00b6 24EA0004 		bic	r4, r4, r0
 264              	.LVL35:
 233:Drivers/STM32F3xx_HAL_Driver/Src/stm32f3xx_hal_exti.c ****   }
 265              		.loc 1 233 12 view .LVU102
 266 00ba D7E7     		b	.L9
 267              	.LVL36:
 268              	.L10:
 250:Drivers/STM32F3xx_HAL_Driver/Src/stm32f3xx_hal_exti.c ****   }
 269              		.loc 1 250 5 is_stmt 1 view .LVU103
 250:Drivers/STM32F3xx_HAL_Driver/Src/stm32f3xx_hal_exti.c ****   }
 270              		.loc 1 250 12 is_stmt 0 view .LVU104
 271 00bc 22EA0000 		bic	r0, r2, r0
 272              	.LVL37:
 250:Drivers/STM32F3xx_HAL_Driver/Src/stm32f3xx_hal_exti.c ****   }
 273              		.loc 1 250 12 view .LVU105
 274 00c0 DCE7     		b	.L11
 275              	.LVL38:
 276              	.L12:
 277              	.LCFI3:
 278              		.cfi_def_cfa_offset 0
 279              		.cfi_restore 4
 280              		.cfi_restore 5
 281              		.cfi_restore 6
 282              		.cfi_restore 7
 155:Drivers/STM32F3xx_HAL_Driver/Src/stm32f3xx_hal_exti.c ****   }
 283              		.loc 1 155 12 view .LVU106
ARM GAS  /tmp/ccczLV2y.s 			page 11


 284 00c2 0120     		movs	r0, #1
 285              	.LVL39:
 155:Drivers/STM32F3xx_HAL_Driver/Src/stm32f3xx_hal_exti.c ****   }
 286              		.loc 1 155 12 view .LVU107
 287 00c4 7047     		bx	lr
 288              	.LVL40:
 289              	.L13:
 155:Drivers/STM32F3xx_HAL_Driver/Src/stm32f3xx_hal_exti.c ****   }
 290              		.loc 1 155 12 view .LVU108
 291 00c6 0120     		movs	r0, #1
 292              	.LVL41:
 293              		.loc 1 257 1 view .LVU109
 294 00c8 7047     		bx	lr
 295              	.L20:
 296 00ca 00BF     		.align	2
 297              	.L19:
 298 00cc 08040140 		.word	1073808392
 299 00d0 0C040140 		.word	1073808396
 300 00d4 04040140 		.word	1073808388
 301 00d8 00000140 		.word	1073807360
 302              		.cfi_endproc
 303              	.LFE123:
 305              		.section	.text.HAL_EXTI_GetConfigLine,"ax",%progbits
 306              		.align	1
 307              		.global	HAL_EXTI_GetConfigLine
 308              		.syntax unified
 309              		.thumb
 310              		.thumb_func
 311              		.fpu fpv4-sp-d16
 313              	HAL_EXTI_GetConfigLine:
 314              	.LVL42:
 315              	.LFB124:
 258:Drivers/STM32F3xx_HAL_Driver/Src/stm32f3xx_hal_exti.c **** 
 259:Drivers/STM32F3xx_HAL_Driver/Src/stm32f3xx_hal_exti.c **** /**
 260:Drivers/STM32F3xx_HAL_Driver/Src/stm32f3xx_hal_exti.c ****   * @brief  Get configuration of a dedicated Exti line.
 261:Drivers/STM32F3xx_HAL_Driver/Src/stm32f3xx_hal_exti.c ****   * @param  hexti Exti handle.
 262:Drivers/STM32F3xx_HAL_Driver/Src/stm32f3xx_hal_exti.c ****   * @param  pExtiConfig Pointer on structure to store Exti configuration.
 263:Drivers/STM32F3xx_HAL_Driver/Src/stm32f3xx_hal_exti.c ****   * @retval HAL Status.
 264:Drivers/STM32F3xx_HAL_Driver/Src/stm32f3xx_hal_exti.c ****   */
 265:Drivers/STM32F3xx_HAL_Driver/Src/stm32f3xx_hal_exti.c **** HAL_StatusTypeDef HAL_EXTI_GetConfigLine(EXTI_HandleTypeDef *hexti, EXTI_ConfigTypeDef *pExtiConfig
 266:Drivers/STM32F3xx_HAL_Driver/Src/stm32f3xx_hal_exti.c **** {
 316              		.loc 1 266 1 is_stmt 1 view -0
 317              		.cfi_startproc
 318              		@ args = 0, pretend = 0, frame = 0
 319              		@ frame_needed = 0, uses_anonymous_args = 0
 320              		@ link register save eliminated.
 267:Drivers/STM32F3xx_HAL_Driver/Src/stm32f3xx_hal_exti.c ****   __IO uint32_t *regaddr;
 321              		.loc 1 267 3 view .LVU111
 268:Drivers/STM32F3xx_HAL_Driver/Src/stm32f3xx_hal_exti.c ****   uint32_t regval;
 322              		.loc 1 268 3 view .LVU112
 269:Drivers/STM32F3xx_HAL_Driver/Src/stm32f3xx_hal_exti.c ****   uint32_t linepos;
 323              		.loc 1 269 3 view .LVU113
 270:Drivers/STM32F3xx_HAL_Driver/Src/stm32f3xx_hal_exti.c ****   uint32_t maskline;
 324              		.loc 1 270 3 view .LVU114
 271:Drivers/STM32F3xx_HAL_Driver/Src/stm32f3xx_hal_exti.c ****   uint32_t offset;
 325              		.loc 1 271 3 view .LVU115
 272:Drivers/STM32F3xx_HAL_Driver/Src/stm32f3xx_hal_exti.c **** 
ARM GAS  /tmp/ccczLV2y.s 			page 12


 273:Drivers/STM32F3xx_HAL_Driver/Src/stm32f3xx_hal_exti.c ****   /* Check null pointer */
 274:Drivers/STM32F3xx_HAL_Driver/Src/stm32f3xx_hal_exti.c ****   if ((hexti == NULL) || (pExtiConfig == NULL))
 326              		.loc 1 274 3 view .LVU116
 327              		.loc 1 274 6 is_stmt 0 view .LVU117
 328 0000 0028     		cmp	r0, #0
 329 0002 49D0     		beq	.L28
 330              		.loc 1 274 23 discriminator 1 view .LVU118
 331 0004 0029     		cmp	r1, #0
 332 0006 49D0     		beq	.L29
 266:Drivers/STM32F3xx_HAL_Driver/Src/stm32f3xx_hal_exti.c ****   __IO uint32_t *regaddr;
 333              		.loc 1 266 1 view .LVU119
 334 0008 30B4     		push	{r4, r5}
 335              	.LCFI4:
 336              		.cfi_def_cfa_offset 8
 337              		.cfi_offset 4, -8
 338              		.cfi_offset 5, -4
 275:Drivers/STM32F3xx_HAL_Driver/Src/stm32f3xx_hal_exti.c ****   {
 276:Drivers/STM32F3xx_HAL_Driver/Src/stm32f3xx_hal_exti.c ****     return HAL_ERROR;
 277:Drivers/STM32F3xx_HAL_Driver/Src/stm32f3xx_hal_exti.c ****   }
 278:Drivers/STM32F3xx_HAL_Driver/Src/stm32f3xx_hal_exti.c **** 
 279:Drivers/STM32F3xx_HAL_Driver/Src/stm32f3xx_hal_exti.c ****   /* Check the parameter */
 280:Drivers/STM32F3xx_HAL_Driver/Src/stm32f3xx_hal_exti.c ****   assert_param(IS_EXTI_LINE(hexti->Line));
 339              		.loc 1 280 3 is_stmt 1 view .LVU120
 281:Drivers/STM32F3xx_HAL_Driver/Src/stm32f3xx_hal_exti.c **** 
 282:Drivers/STM32F3xx_HAL_Driver/Src/stm32f3xx_hal_exti.c ****   /* Store handle line number to configuration structure */
 283:Drivers/STM32F3xx_HAL_Driver/Src/stm32f3xx_hal_exti.c ****   pExtiConfig->Line = hexti->Line;
 340              		.loc 1 283 3 view .LVU121
 341              		.loc 1 283 28 is_stmt 0 view .LVU122
 342 000a 0368     		ldr	r3, [r0]
 343              		.loc 1 283 21 view .LVU123
 344 000c 0B60     		str	r3, [r1]
 284:Drivers/STM32F3xx_HAL_Driver/Src/stm32f3xx_hal_exti.c **** 
 285:Drivers/STM32F3xx_HAL_Driver/Src/stm32f3xx_hal_exti.c ****   /* compute line register offset and line mask */
 286:Drivers/STM32F3xx_HAL_Driver/Src/stm32f3xx_hal_exti.c ****   offset = ((pExtiConfig->Line & EXTI_REG_MASK) >> EXTI_REG_SHIFT);
 345              		.loc 1 286 3 is_stmt 1 view .LVU124
 346              		.loc 1 286 10 is_stmt 0 view .LVU125
 347 000e C3F30040 		ubfx	r0, r3, #16, #1
 348              	.LVL43:
 287:Drivers/STM32F3xx_HAL_Driver/Src/stm32f3xx_hal_exti.c ****   linepos = (pExtiConfig->Line & EXTI_PIN_MASK);
 349              		.loc 1 287 3 is_stmt 1 view .LVU126
 350              		.loc 1 287 11 is_stmt 0 view .LVU127
 351 0012 03F01F05 		and	r5, r3, #31
 352              	.LVL44:
 288:Drivers/STM32F3xx_HAL_Driver/Src/stm32f3xx_hal_exti.c ****   maskline = (1uL << linepos);
 353              		.loc 1 288 3 is_stmt 1 view .LVU128
 354              		.loc 1 288 12 is_stmt 0 view .LVU129
 355 0016 0122     		movs	r2, #1
 356 0018 AA40     		lsls	r2, r2, r5
 357              	.LVL45:
 289:Drivers/STM32F3xx_HAL_Driver/Src/stm32f3xx_hal_exti.c **** 
 290:Drivers/STM32F3xx_HAL_Driver/Src/stm32f3xx_hal_exti.c ****   /* 1] Get core mode : interrupt */
 291:Drivers/STM32F3xx_HAL_Driver/Src/stm32f3xx_hal_exti.c ****   regaddr = (&EXTI->IMR + (EXTI_MODE_OFFSET * offset));
 358              		.loc 1 291 3 is_stmt 1 view .LVU130
 359              		.loc 1 291 25 is_stmt 0 view .LVU131
 360 001a 4001     		lsls	r0, r0, #5
 361              	.LVL46:
 362              		.loc 1 291 11 view .LVU132
ARM GAS  /tmp/ccczLV2y.s 			page 13


 363 001c 00F18044 		add	r4, r0, #1073741824
 364 0020 04F58234 		add	r4, r4, #66560
 365              	.LVL47:
 292:Drivers/STM32F3xx_HAL_Driver/Src/stm32f3xx_hal_exti.c ****   regval = *regaddr;
 366              		.loc 1 292 3 is_stmt 1 view .LVU133
 367              		.loc 1 292 10 is_stmt 0 view .LVU134
 368 0024 2468     		ldr	r4, [r4]
 369              	.LVL48:
 293:Drivers/STM32F3xx_HAL_Driver/Src/stm32f3xx_hal_exti.c **** 
 294:Drivers/STM32F3xx_HAL_Driver/Src/stm32f3xx_hal_exti.c ****   /* Check if selected line is enable */
 295:Drivers/STM32F3xx_HAL_Driver/Src/stm32f3xx_hal_exti.c ****   if ((regval & maskline) != 0x00u)
 370              		.loc 1 295 3 is_stmt 1 view .LVU135
 371              		.loc 1 295 6 is_stmt 0 view .LVU136
 372 0026 2242     		tst	r2, r4
 373 0028 24D0     		beq	.L23
 296:Drivers/STM32F3xx_HAL_Driver/Src/stm32f3xx_hal_exti.c ****   {
 297:Drivers/STM32F3xx_HAL_Driver/Src/stm32f3xx_hal_exti.c ****     pExtiConfig->Mode = EXTI_MODE_INTERRUPT;
 374              		.loc 1 297 5 is_stmt 1 view .LVU137
 375              		.loc 1 297 23 is_stmt 0 view .LVU138
 376 002a 0124     		movs	r4, #1
 377              	.LVL49:
 378              		.loc 1 297 23 view .LVU139
 379 002c 4C60     		str	r4, [r1, #4]
 380              	.L24:
 298:Drivers/STM32F3xx_HAL_Driver/Src/stm32f3xx_hal_exti.c ****   }
 299:Drivers/STM32F3xx_HAL_Driver/Src/stm32f3xx_hal_exti.c ****   else
 300:Drivers/STM32F3xx_HAL_Driver/Src/stm32f3xx_hal_exti.c ****   {
 301:Drivers/STM32F3xx_HAL_Driver/Src/stm32f3xx_hal_exti.c ****     pExtiConfig->Mode = EXTI_MODE_NONE;
 302:Drivers/STM32F3xx_HAL_Driver/Src/stm32f3xx_hal_exti.c ****   }
 303:Drivers/STM32F3xx_HAL_Driver/Src/stm32f3xx_hal_exti.c **** 
 304:Drivers/STM32F3xx_HAL_Driver/Src/stm32f3xx_hal_exti.c ****   /* Get event mode */
 305:Drivers/STM32F3xx_HAL_Driver/Src/stm32f3xx_hal_exti.c ****   regaddr = (&EXTI->EMR + (EXTI_MODE_OFFSET * offset));
 381              		.loc 1 305 3 is_stmt 1 view .LVU140
 382              		.loc 1 305 11 is_stmt 0 view .LVU141
 383 002e 1E4C     		ldr	r4, .L37
 384              	.LVL50:
 306:Drivers/STM32F3xx_HAL_Driver/Src/stm32f3xx_hal_exti.c ****   regval = *regaddr;
 385              		.loc 1 306 3 is_stmt 1 view .LVU142
 386              		.loc 1 306 10 is_stmt 0 view .LVU143
 387 0030 0459     		ldr	r4, [r0, r4]
 388              	.LVL51:
 307:Drivers/STM32F3xx_HAL_Driver/Src/stm32f3xx_hal_exti.c **** 
 308:Drivers/STM32F3xx_HAL_Driver/Src/stm32f3xx_hal_exti.c ****   /* Check if selected line is enable */
 309:Drivers/STM32F3xx_HAL_Driver/Src/stm32f3xx_hal_exti.c ****   if ((regval & maskline) != 0x00u)
 389              		.loc 1 309 3 is_stmt 1 view .LVU144
 390              		.loc 1 309 6 is_stmt 0 view .LVU145
 391 0032 2242     		tst	r2, r4
 392 0034 03D0     		beq	.L25
 310:Drivers/STM32F3xx_HAL_Driver/Src/stm32f3xx_hal_exti.c ****   {
 311:Drivers/STM32F3xx_HAL_Driver/Src/stm32f3xx_hal_exti.c ****     pExtiConfig->Mode |= EXTI_MODE_EVENT;
 393              		.loc 1 311 5 is_stmt 1 view .LVU146
 394              		.loc 1 311 23 is_stmt 0 view .LVU147
 395 0036 4C68     		ldr	r4, [r1, #4]
 396              	.LVL52:
 397              		.loc 1 311 23 view .LVU148
 398 0038 44F00204 		orr	r4, r4, #2
 399 003c 4C60     		str	r4, [r1, #4]
ARM GAS  /tmp/ccczLV2y.s 			page 14


 400              	.L25:
 312:Drivers/STM32F3xx_HAL_Driver/Src/stm32f3xx_hal_exti.c ****   }
 313:Drivers/STM32F3xx_HAL_Driver/Src/stm32f3xx_hal_exti.c **** 
 314:Drivers/STM32F3xx_HAL_Driver/Src/stm32f3xx_hal_exti.c ****   /* Get default Trigger and GPIOSel configuration */
 315:Drivers/STM32F3xx_HAL_Driver/Src/stm32f3xx_hal_exti.c ****   pExtiConfig->Trigger = EXTI_TRIGGER_NONE;
 401              		.loc 1 315 3 is_stmt 1 view .LVU149
 402              		.loc 1 315 24 is_stmt 0 view .LVU150
 403 003e 0024     		movs	r4, #0
 404 0040 8C60     		str	r4, [r1, #8]
 316:Drivers/STM32F3xx_HAL_Driver/Src/stm32f3xx_hal_exti.c ****   pExtiConfig->GPIOSel = 0x00u;
 405              		.loc 1 316 3 is_stmt 1 view .LVU151
 406              		.loc 1 316 24 is_stmt 0 view .LVU152
 407 0042 CC60     		str	r4, [r1, #12]
 317:Drivers/STM32F3xx_HAL_Driver/Src/stm32f3xx_hal_exti.c **** 
 318:Drivers/STM32F3xx_HAL_Driver/Src/stm32f3xx_hal_exti.c ****   /* 2] Get trigger for configurable lines : rising */
 319:Drivers/STM32F3xx_HAL_Driver/Src/stm32f3xx_hal_exti.c ****   if ((pExtiConfig->Line & EXTI_CONFIG) != 0x00u)
 408              		.loc 1 319 3 is_stmt 1 view .LVU153
 409              		.loc 1 319 6 is_stmt 0 view .LVU154
 410 0044 13F0007F 		tst	r3, #33554432
 411 0048 2AD0     		beq	.L30
 320:Drivers/STM32F3xx_HAL_Driver/Src/stm32f3xx_hal_exti.c ****   {
 321:Drivers/STM32F3xx_HAL_Driver/Src/stm32f3xx_hal_exti.c ****     regaddr = (&EXTI->RTSR + (EXTI_CONFIG_OFFSET * offset));
 412              		.loc 1 321 5 is_stmt 1 view .LVU155
 413              		.loc 1 321 13 is_stmt 0 view .LVU156
 414 004a 184C     		ldr	r4, .L37+4
 415              	.LVL53:
 322:Drivers/STM32F3xx_HAL_Driver/Src/stm32f3xx_hal_exti.c ****     regval = *regaddr;
 416              		.loc 1 322 5 is_stmt 1 view .LVU157
 417              		.loc 1 322 12 is_stmt 0 view .LVU158
 418 004c 0459     		ldr	r4, [r0, r4]
 419              	.LVL54:
 323:Drivers/STM32F3xx_HAL_Driver/Src/stm32f3xx_hal_exti.c **** 
 324:Drivers/STM32F3xx_HAL_Driver/Src/stm32f3xx_hal_exti.c ****     /* Check if configuration of selected line is enable */
 325:Drivers/STM32F3xx_HAL_Driver/Src/stm32f3xx_hal_exti.c ****     if ((regval & maskline) != 0x00u)
 420              		.loc 1 325 5 is_stmt 1 view .LVU159
 421              		.loc 1 325 8 is_stmt 0 view .LVU160
 422 004e 2242     		tst	r2, r4
 423 0050 01D0     		beq	.L26
 326:Drivers/STM32F3xx_HAL_Driver/Src/stm32f3xx_hal_exti.c ****     {
 327:Drivers/STM32F3xx_HAL_Driver/Src/stm32f3xx_hal_exti.c ****       pExtiConfig->Trigger = EXTI_TRIGGER_RISING;
 424              		.loc 1 327 7 is_stmt 1 view .LVU161
 425              		.loc 1 327 28 is_stmt 0 view .LVU162
 426 0052 0124     		movs	r4, #1
 427              	.LVL55:
 428              		.loc 1 327 28 view .LVU163
 429 0054 8C60     		str	r4, [r1, #8]
 430              	.L26:
 328:Drivers/STM32F3xx_HAL_Driver/Src/stm32f3xx_hal_exti.c ****     }
 329:Drivers/STM32F3xx_HAL_Driver/Src/stm32f3xx_hal_exti.c **** 
 330:Drivers/STM32F3xx_HAL_Driver/Src/stm32f3xx_hal_exti.c ****     /* Get falling configuration */
 331:Drivers/STM32F3xx_HAL_Driver/Src/stm32f3xx_hal_exti.c ****     regaddr = (&EXTI->FTSR + (EXTI_CONFIG_OFFSET * offset));
 431              		.loc 1 331 5 is_stmt 1 view .LVU164
 432              		.loc 1 331 13 is_stmt 0 view .LVU165
 433 0056 164C     		ldr	r4, .L37+8
 434              	.LVL56:
 332:Drivers/STM32F3xx_HAL_Driver/Src/stm32f3xx_hal_exti.c ****     regval = *regaddr;
 435              		.loc 1 332 5 is_stmt 1 view .LVU166
ARM GAS  /tmp/ccczLV2y.s 			page 15


 436              		.loc 1 332 12 is_stmt 0 view .LVU167
 437 0058 0059     		ldr	r0, [r0, r4]
 438              	.LVL57:
 333:Drivers/STM32F3xx_HAL_Driver/Src/stm32f3xx_hal_exti.c **** 
 334:Drivers/STM32F3xx_HAL_Driver/Src/stm32f3xx_hal_exti.c ****     /* Check if configuration of selected line is enable */
 335:Drivers/STM32F3xx_HAL_Driver/Src/stm32f3xx_hal_exti.c ****     if ((regval & maskline) != 0x00u)
 439              		.loc 1 335 5 is_stmt 1 view .LVU168
 440              		.loc 1 335 8 is_stmt 0 view .LVU169
 441 005a 0242     		tst	r2, r0
 442 005c 03D0     		beq	.L27
 336:Drivers/STM32F3xx_HAL_Driver/Src/stm32f3xx_hal_exti.c ****     {
 337:Drivers/STM32F3xx_HAL_Driver/Src/stm32f3xx_hal_exti.c ****       pExtiConfig->Trigger |= EXTI_TRIGGER_FALLING;
 443              		.loc 1 337 7 is_stmt 1 view .LVU170
 444              		.loc 1 337 28 is_stmt 0 view .LVU171
 445 005e 8A68     		ldr	r2, [r1, #8]
 446              	.LVL58:
 447              		.loc 1 337 28 view .LVU172
 448 0060 42F00202 		orr	r2, r2, #2
 449 0064 8A60     		str	r2, [r1, #8]
 450              	.L27:
 338:Drivers/STM32F3xx_HAL_Driver/Src/stm32f3xx_hal_exti.c ****     }
 339:Drivers/STM32F3xx_HAL_Driver/Src/stm32f3xx_hal_exti.c **** 
 340:Drivers/STM32F3xx_HAL_Driver/Src/stm32f3xx_hal_exti.c ****     /* Get Gpio port selection for gpio lines */
 341:Drivers/STM32F3xx_HAL_Driver/Src/stm32f3xx_hal_exti.c ****     if ((pExtiConfig->Line & EXTI_GPIO) == EXTI_GPIO)
 451              		.loc 1 341 5 is_stmt 1 view .LVU173
 452              		.loc 1 341 28 is_stmt 0 view .LVU174
 453 0066 03F0C063 		and	r3, r3, #100663296
 454              	.LVL59:
 455              		.loc 1 341 8 view .LVU175
 456 006a B3F1C06F 		cmp	r3, #100663296
 457 006e 04D0     		beq	.L36
 342:Drivers/STM32F3xx_HAL_Driver/Src/stm32f3xx_hal_exti.c ****     {
 343:Drivers/STM32F3xx_HAL_Driver/Src/stm32f3xx_hal_exti.c ****       assert_param(IS_EXTI_GPIO_PIN(linepos));
 344:Drivers/STM32F3xx_HAL_Driver/Src/stm32f3xx_hal_exti.c **** 
 345:Drivers/STM32F3xx_HAL_Driver/Src/stm32f3xx_hal_exti.c ****       regval = SYSCFG->EXTICR[linepos >> 2u];
 346:Drivers/STM32F3xx_HAL_Driver/Src/stm32f3xx_hal_exti.c ****       pExtiConfig->GPIOSel = ((regval << (SYSCFG_EXTICR1_EXTI1_Pos * (3uL - (linepos & 0x03u)))) >>
 347:Drivers/STM32F3xx_HAL_Driver/Src/stm32f3xx_hal_exti.c ****     }
 348:Drivers/STM32F3xx_HAL_Driver/Src/stm32f3xx_hal_exti.c ****   }
 349:Drivers/STM32F3xx_HAL_Driver/Src/stm32f3xx_hal_exti.c **** 
 350:Drivers/STM32F3xx_HAL_Driver/Src/stm32f3xx_hal_exti.c ****   return HAL_OK;
 458              		.loc 1 350 10 view .LVU176
 459 0070 0020     		movs	r0, #0
 460              	.LVL60:
 461              		.loc 1 350 10 view .LVU177
 462 0072 16E0     		b	.L22
 463              	.LVL61:
 464              	.L23:
 301:Drivers/STM32F3xx_HAL_Driver/Src/stm32f3xx_hal_exti.c ****   }
 465              		.loc 1 301 5 is_stmt 1 view .LVU178
 301:Drivers/STM32F3xx_HAL_Driver/Src/stm32f3xx_hal_exti.c ****   }
 466              		.loc 1 301 23 is_stmt 0 view .LVU179
 467 0074 0024     		movs	r4, #0
 468              	.LVL62:
 301:Drivers/STM32F3xx_HAL_Driver/Src/stm32f3xx_hal_exti.c ****   }
 469              		.loc 1 301 23 view .LVU180
 470 0076 4C60     		str	r4, [r1, #4]
 471 0078 D9E7     		b	.L24
ARM GAS  /tmp/ccczLV2y.s 			page 16


 472              	.LVL63:
 473              	.L36:
 343:Drivers/STM32F3xx_HAL_Driver/Src/stm32f3xx_hal_exti.c **** 
 474              		.loc 1 343 7 is_stmt 1 view .LVU181
 345:Drivers/STM32F3xx_HAL_Driver/Src/stm32f3xx_hal_exti.c ****       pExtiConfig->GPIOSel = ((regval << (SYSCFG_EXTICR1_EXTI1_Pos * (3uL - (linepos & 0x03u)))) >>
 475              		.loc 1 345 7 view .LVU182
 345:Drivers/STM32F3xx_HAL_Driver/Src/stm32f3xx_hal_exti.c ****       pExtiConfig->GPIOSel = ((regval << (SYSCFG_EXTICR1_EXTI1_Pos * (3uL - (linepos & 0x03u)))) >>
 476              		.loc 1 345 39 is_stmt 0 view .LVU183
 477 007a AB08     		lsrs	r3, r5, #2
 345:Drivers/STM32F3xx_HAL_Driver/Src/stm32f3xx_hal_exti.c ****       pExtiConfig->GPIOSel = ((regval << (SYSCFG_EXTICR1_EXTI1_Pos * (3uL - (linepos & 0x03u)))) >>
 478              		.loc 1 345 14 view .LVU184
 479 007c 0233     		adds	r3, r3, #2
 480 007e 0D4A     		ldr	r2, .L37+12
 481 0080 52F82320 		ldr	r2, [r2, r3, lsl #2]
 482              	.LVL64:
 346:Drivers/STM32F3xx_HAL_Driver/Src/stm32f3xx_hal_exti.c ****     }
 483              		.loc 1 346 7 is_stmt 1 view .LVU185
 346:Drivers/STM32F3xx_HAL_Driver/Src/stm32f3xx_hal_exti.c ****     }
 484              		.loc 1 346 75 is_stmt 0 view .LVU186
 485 0084 EB43     		mvns	r3, r5
 486 0086 03F00303 		and	r3, r3, #3
 346:Drivers/STM32F3xx_HAL_Driver/Src/stm32f3xx_hal_exti.c ****     }
 487              		.loc 1 346 68 view .LVU187
 488 008a 9B00     		lsls	r3, r3, #2
 346:Drivers/STM32F3xx_HAL_Driver/Src/stm32f3xx_hal_exti.c ****     }
 489              		.loc 1 346 39 view .LVU188
 490 008c 02FA03F3 		lsl	r3, r2, r3
 346:Drivers/STM32F3xx_HAL_Driver/Src/stm32f3xx_hal_exti.c ****     }
 491              		.loc 1 346 98 view .LVU189
 492 0090 1B0E     		lsrs	r3, r3, #24
 346:Drivers/STM32F3xx_HAL_Driver/Src/stm32f3xx_hal_exti.c ****     }
 493              		.loc 1 346 28 view .LVU190
 494 0092 CB60     		str	r3, [r1, #12]
 495              		.loc 1 350 10 view .LVU191
 496 0094 0020     		movs	r0, #0
 497 0096 04E0     		b	.L22
 498              	.LVL65:
 499              	.L28:
 500              	.LCFI5:
 501              		.cfi_def_cfa_offset 0
 502              		.cfi_restore 4
 503              		.cfi_restore 5
 276:Drivers/STM32F3xx_HAL_Driver/Src/stm32f3xx_hal_exti.c ****   }
 504              		.loc 1 276 12 view .LVU192
 505 0098 0120     		movs	r0, #1
 506              	.LVL66:
 276:Drivers/STM32F3xx_HAL_Driver/Src/stm32f3xx_hal_exti.c ****   }
 507              		.loc 1 276 12 view .LVU193
 508 009a 7047     		bx	lr
 509              	.LVL67:
 510              	.L29:
 276:Drivers/STM32F3xx_HAL_Driver/Src/stm32f3xx_hal_exti.c ****   }
 511              		.loc 1 276 12 view .LVU194
 512 009c 0120     		movs	r0, #1
 513              	.LVL68:
 351:Drivers/STM32F3xx_HAL_Driver/Src/stm32f3xx_hal_exti.c **** }
 514              		.loc 1 351 1 view .LVU195
ARM GAS  /tmp/ccczLV2y.s 			page 17


 515 009e 7047     		bx	lr
 516              	.LVL69:
 517              	.L30:
 518              	.LCFI6:
 519              		.cfi_def_cfa_offset 8
 520              		.cfi_offset 4, -8
 521              		.cfi_offset 5, -4
 350:Drivers/STM32F3xx_HAL_Driver/Src/stm32f3xx_hal_exti.c **** }
 522              		.loc 1 350 10 view .LVU196
 523 00a0 0020     		movs	r0, #0
 524              	.LVL70:
 525              	.L22:
 526              		.loc 1 351 1 view .LVU197
 527 00a2 30BC     		pop	{r4, r5}
 528              	.LCFI7:
 529              		.cfi_restore 5
 530              		.cfi_restore 4
 531              		.cfi_def_cfa_offset 0
 532              	.LVL71:
 533              		.loc 1 351 1 view .LVU198
 534 00a4 7047     		bx	lr
 535              	.L38:
 536 00a6 00BF     		.align	2
 537              	.L37:
 538 00a8 04040140 		.word	1073808388
 539 00ac 08040140 		.word	1073808392
 540 00b0 0C040140 		.word	1073808396
 541 00b4 00000140 		.word	1073807360
 542              		.cfi_endproc
 543              	.LFE124:
 545              		.section	.text.HAL_EXTI_ClearConfigLine,"ax",%progbits
 546              		.align	1
 547              		.global	HAL_EXTI_ClearConfigLine
 548              		.syntax unified
 549              		.thumb
 550              		.thumb_func
 551              		.fpu fpv4-sp-d16
 553              	HAL_EXTI_ClearConfigLine:
 554              	.LVL72:
 555              	.LFB125:
 352:Drivers/STM32F3xx_HAL_Driver/Src/stm32f3xx_hal_exti.c **** 
 353:Drivers/STM32F3xx_HAL_Driver/Src/stm32f3xx_hal_exti.c **** /**
 354:Drivers/STM32F3xx_HAL_Driver/Src/stm32f3xx_hal_exti.c ****   * @brief  Clear whole configuration of a dedicated Exti line.
 355:Drivers/STM32F3xx_HAL_Driver/Src/stm32f3xx_hal_exti.c ****   * @param  hexti Exti handle.
 356:Drivers/STM32F3xx_HAL_Driver/Src/stm32f3xx_hal_exti.c ****   * @retval HAL Status.
 357:Drivers/STM32F3xx_HAL_Driver/Src/stm32f3xx_hal_exti.c ****   */
 358:Drivers/STM32F3xx_HAL_Driver/Src/stm32f3xx_hal_exti.c **** HAL_StatusTypeDef HAL_EXTI_ClearConfigLine(EXTI_HandleTypeDef *hexti)
 359:Drivers/STM32F3xx_HAL_Driver/Src/stm32f3xx_hal_exti.c **** {
 556              		.loc 1 359 1 is_stmt 1 view -0
 557              		.cfi_startproc
 558              		@ args = 0, pretend = 0, frame = 0
 559              		@ frame_needed = 0, uses_anonymous_args = 0
 560              		@ link register save eliminated.
 360:Drivers/STM32F3xx_HAL_Driver/Src/stm32f3xx_hal_exti.c ****   __IO uint32_t *regaddr;
 561              		.loc 1 360 3 view .LVU200
 361:Drivers/STM32F3xx_HAL_Driver/Src/stm32f3xx_hal_exti.c ****   uint32_t regval;
 562              		.loc 1 361 3 view .LVU201
ARM GAS  /tmp/ccczLV2y.s 			page 18


 362:Drivers/STM32F3xx_HAL_Driver/Src/stm32f3xx_hal_exti.c ****   uint32_t linepos;
 563              		.loc 1 362 3 view .LVU202
 363:Drivers/STM32F3xx_HAL_Driver/Src/stm32f3xx_hal_exti.c ****   uint32_t maskline;
 564              		.loc 1 363 3 view .LVU203
 364:Drivers/STM32F3xx_HAL_Driver/Src/stm32f3xx_hal_exti.c ****   uint32_t offset;
 565              		.loc 1 364 3 view .LVU204
 365:Drivers/STM32F3xx_HAL_Driver/Src/stm32f3xx_hal_exti.c **** 
 366:Drivers/STM32F3xx_HAL_Driver/Src/stm32f3xx_hal_exti.c ****   /* Check null pointer */
 367:Drivers/STM32F3xx_HAL_Driver/Src/stm32f3xx_hal_exti.c ****   if (hexti == NULL)
 566              		.loc 1 367 3 view .LVU205
 567              		.loc 1 367 6 is_stmt 0 view .LVU206
 568 0000 0028     		cmp	r0, #0
 569 0002 3CD0     		beq	.L41
 359:Drivers/STM32F3xx_HAL_Driver/Src/stm32f3xx_hal_exti.c ****   __IO uint32_t *regaddr;
 570              		.loc 1 359 1 view .LVU207
 571 0004 F0B4     		push	{r4, r5, r6, r7}
 572              	.LCFI8:
 573              		.cfi_def_cfa_offset 16
 574              		.cfi_offset 4, -16
 575              		.cfi_offset 5, -12
 576              		.cfi_offset 6, -8
 577              		.cfi_offset 7, -4
 578 0006 0546     		mov	r5, r0
 368:Drivers/STM32F3xx_HAL_Driver/Src/stm32f3xx_hal_exti.c ****   {
 369:Drivers/STM32F3xx_HAL_Driver/Src/stm32f3xx_hal_exti.c ****     return HAL_ERROR;
 370:Drivers/STM32F3xx_HAL_Driver/Src/stm32f3xx_hal_exti.c ****   }
 371:Drivers/STM32F3xx_HAL_Driver/Src/stm32f3xx_hal_exti.c **** 
 372:Drivers/STM32F3xx_HAL_Driver/Src/stm32f3xx_hal_exti.c ****   /* Check the parameter */
 373:Drivers/STM32F3xx_HAL_Driver/Src/stm32f3xx_hal_exti.c ****   assert_param(IS_EXTI_LINE(hexti->Line));
 579              		.loc 1 373 3 is_stmt 1 view .LVU208
 374:Drivers/STM32F3xx_HAL_Driver/Src/stm32f3xx_hal_exti.c **** 
 375:Drivers/STM32F3xx_HAL_Driver/Src/stm32f3xx_hal_exti.c ****   /* compute line register offset and line mask */
 376:Drivers/STM32F3xx_HAL_Driver/Src/stm32f3xx_hal_exti.c ****   offset = ((hexti->Line & EXTI_REG_MASK) >> EXTI_REG_SHIFT);
 580              		.loc 1 376 3 view .LVU209
 581              		.loc 1 376 19 is_stmt 0 view .LVU210
 582 0008 0468     		ldr	r4, [r0]
 583              		.loc 1 376 10 view .LVU211
 584 000a C4F30043 		ubfx	r3, r4, #16, #1
 585              	.LVL73:
 377:Drivers/STM32F3xx_HAL_Driver/Src/stm32f3xx_hal_exti.c ****   linepos = (hexti->Line & EXTI_PIN_MASK);
 586              		.loc 1 377 3 is_stmt 1 view .LVU212
 587              		.loc 1 377 11 is_stmt 0 view .LVU213
 588 000e 04F01F06 		and	r6, r4, #31
 589              	.LVL74:
 378:Drivers/STM32F3xx_HAL_Driver/Src/stm32f3xx_hal_exti.c ****   maskline = (1uL << linepos);
 590              		.loc 1 378 3 is_stmt 1 view .LVU214
 591              		.loc 1 378 12 is_stmt 0 view .LVU215
 592 0012 0122     		movs	r2, #1
 593 0014 B240     		lsls	r2, r2, r6
 594              	.LVL75:
 379:Drivers/STM32F3xx_HAL_Driver/Src/stm32f3xx_hal_exti.c **** 
 380:Drivers/STM32F3xx_HAL_Driver/Src/stm32f3xx_hal_exti.c ****   /* 1] Clear interrupt mode */
 381:Drivers/STM32F3xx_HAL_Driver/Src/stm32f3xx_hal_exti.c ****   regaddr = (&EXTI->IMR + (EXTI_MODE_OFFSET * offset));
 595              		.loc 1 381 3 is_stmt 1 view .LVU216
 596              		.loc 1 381 25 is_stmt 0 view .LVU217
 597 0016 5B01     		lsls	r3, r3, #5
 598              	.LVL76:
ARM GAS  /tmp/ccczLV2y.s 			page 19


 599              		.loc 1 381 11 view .LVU218
 600 0018 03F18041 		add	r1, r3, #1073741824
 601 001c 01F58231 		add	r1, r1, #66560
 602              	.LVL77:
 382:Drivers/STM32F3xx_HAL_Driver/Src/stm32f3xx_hal_exti.c ****   regval = (*regaddr & ~maskline);
 603              		.loc 1 382 3 is_stmt 1 view .LVU219
 604              		.loc 1 382 13 is_stmt 0 view .LVU220
 605 0020 0868     		ldr	r0, [r1]
 606              	.LVL78:
 607              		.loc 1 382 24 view .LVU221
 608 0022 D743     		mvns	r7, r2
 609              		.loc 1 382 10 view .LVU222
 610 0024 20EA0200 		bic	r0, r0, r2
 611              	.LVL79:
 383:Drivers/STM32F3xx_HAL_Driver/Src/stm32f3xx_hal_exti.c ****   *regaddr = regval;
 612              		.loc 1 383 3 is_stmt 1 view .LVU223
 613              		.loc 1 383 12 is_stmt 0 view .LVU224
 614 0028 0860     		str	r0, [r1]
 384:Drivers/STM32F3xx_HAL_Driver/Src/stm32f3xx_hal_exti.c **** 
 385:Drivers/STM32F3xx_HAL_Driver/Src/stm32f3xx_hal_exti.c ****   /* 2] Clear event mode */
 386:Drivers/STM32F3xx_HAL_Driver/Src/stm32f3xx_hal_exti.c ****   regaddr = (&EXTI->EMR + (EXTI_MODE_OFFSET * offset));
 615              		.loc 1 386 3 is_stmt 1 view .LVU225
 616              		.loc 1 386 11 is_stmt 0 view .LVU226
 617 002a 1748     		ldr	r0, .L49
 618              	.LVL80:
 387:Drivers/STM32F3xx_HAL_Driver/Src/stm32f3xx_hal_exti.c ****   regval = (*regaddr & ~maskline);
 619              		.loc 1 387 3 is_stmt 1 view .LVU227
 620              		.loc 1 387 13 is_stmt 0 view .LVU228
 621 002c 1958     		ldr	r1, [r3, r0]
 622              	.LVL81:
 623              		.loc 1 387 10 view .LVU229
 624 002e 21EA0202 		bic	r2, r1, r2
 625              	.LVL82:
 388:Drivers/STM32F3xx_HAL_Driver/Src/stm32f3xx_hal_exti.c ****   *regaddr = regval;
 626              		.loc 1 388 3 is_stmt 1 view .LVU230
 627              		.loc 1 388 12 is_stmt 0 view .LVU231
 628 0032 1A50     		str	r2, [r3, r0]
 389:Drivers/STM32F3xx_HAL_Driver/Src/stm32f3xx_hal_exti.c **** 
 390:Drivers/STM32F3xx_HAL_Driver/Src/stm32f3xx_hal_exti.c ****   /* 3] Clear triggers in case of configurable lines */
 391:Drivers/STM32F3xx_HAL_Driver/Src/stm32f3xx_hal_exti.c ****   if ((hexti->Line & EXTI_CONFIG) != 0x00u)
 629              		.loc 1 391 3 is_stmt 1 view .LVU232
 630              		.loc 1 391 13 is_stmt 0 view .LVU233
 631 0034 2A68     		ldr	r2, [r5]
 632              	.LVL83:
 633              		.loc 1 391 6 view .LVU234
 634 0036 12F0007F 		tst	r2, #33554432
 635 003a 22D0     		beq	.L42
 392:Drivers/STM32F3xx_HAL_Driver/Src/stm32f3xx_hal_exti.c ****   {
 393:Drivers/STM32F3xx_HAL_Driver/Src/stm32f3xx_hal_exti.c ****     regaddr = (&EXTI->RTSR + (EXTI_CONFIG_OFFSET * offset));
 636              		.loc 1 393 5 is_stmt 1 view .LVU235
 637              		.loc 1 393 13 is_stmt 0 view .LVU236
 638 003c 1349     		ldr	r1, .L49+4
 639              	.LVL84:
 394:Drivers/STM32F3xx_HAL_Driver/Src/stm32f3xx_hal_exti.c ****     regval = (*regaddr & ~maskline);
 640              		.loc 1 394 5 is_stmt 1 view .LVU237
 641              		.loc 1 394 15 is_stmt 0 view .LVU238
 642 003e 5A58     		ldr	r2, [r3, r1]
ARM GAS  /tmp/ccczLV2y.s 			page 20


 643              		.loc 1 394 12 view .LVU239
 644 0040 3A40     		ands	r2, r2, r7
 645              	.LVL85:
 395:Drivers/STM32F3xx_HAL_Driver/Src/stm32f3xx_hal_exti.c ****     *regaddr = regval;
 646              		.loc 1 395 5 is_stmt 1 view .LVU240
 647              		.loc 1 395 14 is_stmt 0 view .LVU241
 648 0042 5A50     		str	r2, [r3, r1]
 396:Drivers/STM32F3xx_HAL_Driver/Src/stm32f3xx_hal_exti.c **** 
 397:Drivers/STM32F3xx_HAL_Driver/Src/stm32f3xx_hal_exti.c ****     regaddr = (&EXTI->FTSR + (EXTI_CONFIG_OFFSET * offset));
 649              		.loc 1 397 5 is_stmt 1 view .LVU242
 650              		.loc 1 397 13 is_stmt 0 view .LVU243
 651 0044 124A     		ldr	r2, .L49+8
 652              	.LVL86:
 398:Drivers/STM32F3xx_HAL_Driver/Src/stm32f3xx_hal_exti.c ****     regval = (*regaddr & ~maskline);
 653              		.loc 1 398 5 is_stmt 1 view .LVU244
 654              		.loc 1 398 15 is_stmt 0 view .LVU245
 655 0046 9958     		ldr	r1, [r3, r2]
 656              	.LVL87:
 657              		.loc 1 398 12 view .LVU246
 658 0048 0F40     		ands	r7, r7, r1
 659              	.LVL88:
 399:Drivers/STM32F3xx_HAL_Driver/Src/stm32f3xx_hal_exti.c ****     *regaddr = regval;
 660              		.loc 1 399 5 is_stmt 1 view .LVU247
 661              		.loc 1 399 14 is_stmt 0 view .LVU248
 662 004a 9F50     		str	r7, [r3, r2]
 400:Drivers/STM32F3xx_HAL_Driver/Src/stm32f3xx_hal_exti.c **** 
 401:Drivers/STM32F3xx_HAL_Driver/Src/stm32f3xx_hal_exti.c ****     /* Get Gpio port selection for gpio lines */
 402:Drivers/STM32F3xx_HAL_Driver/Src/stm32f3xx_hal_exti.c ****     if ((hexti->Line & EXTI_GPIO) == EXTI_GPIO)
 663              		.loc 1 402 5 is_stmt 1 view .LVU249
 664              		.loc 1 402 15 is_stmt 0 view .LVU250
 665 004c 2B68     		ldr	r3, [r5]
 666              	.LVL89:
 667              		.loc 1 402 22 view .LVU251
 668 004e 03F0C063 		and	r3, r3, #100663296
 669              		.loc 1 402 8 view .LVU252
 670 0052 B3F1C06F 		cmp	r3, #100663296
 671 0056 01D0     		beq	.L48
 403:Drivers/STM32F3xx_HAL_Driver/Src/stm32f3xx_hal_exti.c ****     {
 404:Drivers/STM32F3xx_HAL_Driver/Src/stm32f3xx_hal_exti.c ****       assert_param(IS_EXTI_GPIO_PIN(linepos));
 405:Drivers/STM32F3xx_HAL_Driver/Src/stm32f3xx_hal_exti.c **** 
 406:Drivers/STM32F3xx_HAL_Driver/Src/stm32f3xx_hal_exti.c ****       regval = SYSCFG->EXTICR[linepos >> 2u];
 407:Drivers/STM32F3xx_HAL_Driver/Src/stm32f3xx_hal_exti.c ****       regval &= ~(SYSCFG_EXTICR1_EXTI0 << (SYSCFG_EXTICR1_EXTI1_Pos * (linepos & 0x03u)));
 408:Drivers/STM32F3xx_HAL_Driver/Src/stm32f3xx_hal_exti.c ****       SYSCFG->EXTICR[linepos >> 2u] = regval;
 409:Drivers/STM32F3xx_HAL_Driver/Src/stm32f3xx_hal_exti.c ****     }
 410:Drivers/STM32F3xx_HAL_Driver/Src/stm32f3xx_hal_exti.c ****   }
 411:Drivers/STM32F3xx_HAL_Driver/Src/stm32f3xx_hal_exti.c **** 
 412:Drivers/STM32F3xx_HAL_Driver/Src/stm32f3xx_hal_exti.c ****   return HAL_OK;
 672              		.loc 1 412 10 view .LVU253
 673 0058 0020     		movs	r0, #0
 674 005a 13E0     		b	.L40
 675              	.L48:
 404:Drivers/STM32F3xx_HAL_Driver/Src/stm32f3xx_hal_exti.c **** 
 676              		.loc 1 404 7 is_stmt 1 view .LVU254
 406:Drivers/STM32F3xx_HAL_Driver/Src/stm32f3xx_hal_exti.c ****       regval &= ~(SYSCFG_EXTICR1_EXTI0 << (SYSCFG_EXTICR1_EXTI1_Pos * (linepos & 0x03u)));
 677              		.loc 1 406 7 view .LVU255
 406:Drivers/STM32F3xx_HAL_Driver/Src/stm32f3xx_hal_exti.c ****       regval &= ~(SYSCFG_EXTICR1_EXTI0 << (SYSCFG_EXTICR1_EXTI1_Pos * (linepos & 0x03u)));
 678              		.loc 1 406 39 is_stmt 0 view .LVU256
ARM GAS  /tmp/ccczLV2y.s 			page 21


 679 005c B608     		lsrs	r6, r6, #2
 680              	.LVL90:
 406:Drivers/STM32F3xx_HAL_Driver/Src/stm32f3xx_hal_exti.c ****       regval &= ~(SYSCFG_EXTICR1_EXTI0 << (SYSCFG_EXTICR1_EXTI1_Pos * (linepos & 0x03u)));
 681              		.loc 1 406 14 view .LVU257
 682 005e 0D49     		ldr	r1, .L49+12
 683 0060 0236     		adds	r6, r6, #2
 684 0062 51F82630 		ldr	r3, [r1, r6, lsl #2]
 685              	.LVL91:
 407:Drivers/STM32F3xx_HAL_Driver/Src/stm32f3xx_hal_exti.c ****       SYSCFG->EXTICR[linepos >> 2u] = regval;
 686              		.loc 1 407 7 is_stmt 1 view .LVU258
 407:Drivers/STM32F3xx_HAL_Driver/Src/stm32f3xx_hal_exti.c ****       SYSCFG->EXTICR[linepos >> 2u] = regval;
 687              		.loc 1 407 80 is_stmt 0 view .LVU259
 688 0066 04F00304 		and	r4, r4, #3
 689              	.LVL92:
 407:Drivers/STM32F3xx_HAL_Driver/Src/stm32f3xx_hal_exti.c ****       SYSCFG->EXTICR[linepos >> 2u] = regval;
 690              		.loc 1 407 69 view .LVU260
 691 006a A400     		lsls	r4, r4, #2
 407:Drivers/STM32F3xx_HAL_Driver/Src/stm32f3xx_hal_exti.c ****       SYSCFG->EXTICR[linepos >> 2u] = regval;
 692              		.loc 1 407 40 view .LVU261
 693 006c 0F22     		movs	r2, #15
 694 006e 02FA04F4 		lsl	r4, r2, r4
 407:Drivers/STM32F3xx_HAL_Driver/Src/stm32f3xx_hal_exti.c ****       SYSCFG->EXTICR[linepos >> 2u] = regval;
 695              		.loc 1 407 14 view .LVU262
 696 0072 23EA0404 		bic	r4, r3, r4
 697              	.LVL93:
 408:Drivers/STM32F3xx_HAL_Driver/Src/stm32f3xx_hal_exti.c ****     }
 698              		.loc 1 408 7 is_stmt 1 view .LVU263
 408:Drivers/STM32F3xx_HAL_Driver/Src/stm32f3xx_hal_exti.c ****     }
 699              		.loc 1 408 37 is_stmt 0 view .LVU264
 700 0076 41F82640 		str	r4, [r1, r6, lsl #2]
 701              		.loc 1 412 10 view .LVU265
 702 007a 0020     		movs	r0, #0
 703 007c 02E0     		b	.L40
 704              	.LVL94:
 705              	.L41:
 706              	.LCFI9:
 707              		.cfi_def_cfa_offset 0
 708              		.cfi_restore 4
 709              		.cfi_restore 5
 710              		.cfi_restore 6
 711              		.cfi_restore 7
 369:Drivers/STM32F3xx_HAL_Driver/Src/stm32f3xx_hal_exti.c ****   }
 712              		.loc 1 369 12 view .LVU266
 713 007e 0120     		movs	r0, #1
 714              	.LVL95:
 413:Drivers/STM32F3xx_HAL_Driver/Src/stm32f3xx_hal_exti.c **** }
 715              		.loc 1 413 1 view .LVU267
 716 0080 7047     		bx	lr
 717              	.LVL96:
 718              	.L42:
 719              	.LCFI10:
 720              		.cfi_def_cfa_offset 16
 721              		.cfi_offset 4, -16
 722              		.cfi_offset 5, -12
 723              		.cfi_offset 6, -8
 724              		.cfi_offset 7, -4
 412:Drivers/STM32F3xx_HAL_Driver/Src/stm32f3xx_hal_exti.c **** }
ARM GAS  /tmp/ccczLV2y.s 			page 22


 725              		.loc 1 412 10 view .LVU268
 726 0082 0020     		movs	r0, #0
 727              	.LVL97:
 728              	.L40:
 729              		.loc 1 413 1 view .LVU269
 730 0084 F0BC     		pop	{r4, r5, r6, r7}
 731              	.LCFI11:
 732              		.cfi_restore 7
 733              		.cfi_restore 6
 734              		.cfi_restore 5
 735              		.cfi_restore 4
 736              		.cfi_def_cfa_offset 0
 737              	.LVL98:
 738              		.loc 1 413 1 view .LVU270
 739 0086 7047     		bx	lr
 740              	.L50:
 741              		.align	2
 742              	.L49:
 743 0088 04040140 		.word	1073808388
 744 008c 08040140 		.word	1073808392
 745 0090 0C040140 		.word	1073808396
 746 0094 00000140 		.word	1073807360
 747              		.cfi_endproc
 748              	.LFE125:
 750              		.section	.text.HAL_EXTI_RegisterCallback,"ax",%progbits
 751              		.align	1
 752              		.global	HAL_EXTI_RegisterCallback
 753              		.syntax unified
 754              		.thumb
 755              		.thumb_func
 756              		.fpu fpv4-sp-d16
 758              	HAL_EXTI_RegisterCallback:
 759              	.LVL99:
 760              	.LFB126:
 414:Drivers/STM32F3xx_HAL_Driver/Src/stm32f3xx_hal_exti.c **** 
 415:Drivers/STM32F3xx_HAL_Driver/Src/stm32f3xx_hal_exti.c **** /**
 416:Drivers/STM32F3xx_HAL_Driver/Src/stm32f3xx_hal_exti.c ****   * @brief  Register callback for a dedicated Exti line.
 417:Drivers/STM32F3xx_HAL_Driver/Src/stm32f3xx_hal_exti.c ****   * @param  hexti Exti handle.
 418:Drivers/STM32F3xx_HAL_Driver/Src/stm32f3xx_hal_exti.c ****   * @param  CallbackID User callback identifier.
 419:Drivers/STM32F3xx_HAL_Driver/Src/stm32f3xx_hal_exti.c ****   *         This parameter can be one of @arg @ref EXTI_CallbackIDTypeDef values.
 420:Drivers/STM32F3xx_HAL_Driver/Src/stm32f3xx_hal_exti.c ****   * @param  pPendingCbfn function pointer to be stored as callback.
 421:Drivers/STM32F3xx_HAL_Driver/Src/stm32f3xx_hal_exti.c ****   * @retval HAL Status.
 422:Drivers/STM32F3xx_HAL_Driver/Src/stm32f3xx_hal_exti.c ****   */
 423:Drivers/STM32F3xx_HAL_Driver/Src/stm32f3xx_hal_exti.c **** HAL_StatusTypeDef HAL_EXTI_RegisterCallback(EXTI_HandleTypeDef *hexti, EXTI_CallbackIDTypeDef Callb
 424:Drivers/STM32F3xx_HAL_Driver/Src/stm32f3xx_hal_exti.c **** {
 761              		.loc 1 424 1 is_stmt 1 view -0
 762              		.cfi_startproc
 763              		@ args = 0, pretend = 0, frame = 0
 764              		@ frame_needed = 0, uses_anonymous_args = 0
 765              		@ link register save eliminated.
 766              		.loc 1 424 1 is_stmt 0 view .LVU272
 767 0000 0346     		mov	r3, r0
 425:Drivers/STM32F3xx_HAL_Driver/Src/stm32f3xx_hal_exti.c ****   HAL_StatusTypeDef status = HAL_OK;
 768              		.loc 1 425 3 is_stmt 1 view .LVU273
 769              	.LVL100:
 426:Drivers/STM32F3xx_HAL_Driver/Src/stm32f3xx_hal_exti.c **** 
 427:Drivers/STM32F3xx_HAL_Driver/Src/stm32f3xx_hal_exti.c ****   switch (CallbackID)
ARM GAS  /tmp/ccczLV2y.s 			page 23


 770              		.loc 1 427 3 view .LVU274
 771 0002 0846     		mov	r0, r1
 772              	.LVL101:
 773              		.loc 1 427 3 is_stmt 0 view .LVU275
 774 0004 09B9     		cbnz	r1, .L53
 428:Drivers/STM32F3xx_HAL_Driver/Src/stm32f3xx_hal_exti.c ****   {
 429:Drivers/STM32F3xx_HAL_Driver/Src/stm32f3xx_hal_exti.c ****     case  HAL_EXTI_COMMON_CB_ID:
 430:Drivers/STM32F3xx_HAL_Driver/Src/stm32f3xx_hal_exti.c ****       hexti->PendingCallback = pPendingCbfn;
 775              		.loc 1 430 7 is_stmt 1 view .LVU276
 776              		.loc 1 430 30 is_stmt 0 view .LVU277
 777 0006 5A60     		str	r2, [r3, #4]
 431:Drivers/STM32F3xx_HAL_Driver/Src/stm32f3xx_hal_exti.c ****       break;
 778              		.loc 1 431 7 is_stmt 1 view .LVU278
 779 0008 7047     		bx	lr
 780              	.L53:
 432:Drivers/STM32F3xx_HAL_Driver/Src/stm32f3xx_hal_exti.c **** 
 433:Drivers/STM32F3xx_HAL_Driver/Src/stm32f3xx_hal_exti.c ****     default:
 434:Drivers/STM32F3xx_HAL_Driver/Src/stm32f3xx_hal_exti.c ****       status = HAL_ERROR;
 781              		.loc 1 434 14 is_stmt 0 view .LVU279
 782 000a 0120     		movs	r0, #1
 783              	.LVL102:
 435:Drivers/STM32F3xx_HAL_Driver/Src/stm32f3xx_hal_exti.c ****       break;
 436:Drivers/STM32F3xx_HAL_Driver/Src/stm32f3xx_hal_exti.c ****   }
 437:Drivers/STM32F3xx_HAL_Driver/Src/stm32f3xx_hal_exti.c **** 
 438:Drivers/STM32F3xx_HAL_Driver/Src/stm32f3xx_hal_exti.c ****   return status;
 784              		.loc 1 438 3 is_stmt 1 view .LVU280
 439:Drivers/STM32F3xx_HAL_Driver/Src/stm32f3xx_hal_exti.c **** }
 785              		.loc 1 439 1 is_stmt 0 view .LVU281
 786 000c 7047     		bx	lr
 787              		.cfi_endproc
 788              	.LFE126:
 790              		.section	.text.HAL_EXTI_GetHandle,"ax",%progbits
 791              		.align	1
 792              		.global	HAL_EXTI_GetHandle
 793              		.syntax unified
 794              		.thumb
 795              		.thumb_func
 796              		.fpu fpv4-sp-d16
 798              	HAL_EXTI_GetHandle:
 799              	.LVL103:
 800              	.LFB127:
 440:Drivers/STM32F3xx_HAL_Driver/Src/stm32f3xx_hal_exti.c **** 
 441:Drivers/STM32F3xx_HAL_Driver/Src/stm32f3xx_hal_exti.c **** /**
 442:Drivers/STM32F3xx_HAL_Driver/Src/stm32f3xx_hal_exti.c ****   * @brief  Store line number as handle private field.
 443:Drivers/STM32F3xx_HAL_Driver/Src/stm32f3xx_hal_exti.c ****   * @param  hexti Exti handle.
 444:Drivers/STM32F3xx_HAL_Driver/Src/stm32f3xx_hal_exti.c ****   * @param  ExtiLine Exti line number.
 445:Drivers/STM32F3xx_HAL_Driver/Src/stm32f3xx_hal_exti.c ****   *         This parameter can be from 0 to @ref EXTI_LINE_NB.
 446:Drivers/STM32F3xx_HAL_Driver/Src/stm32f3xx_hal_exti.c ****   * @retval HAL Status.
 447:Drivers/STM32F3xx_HAL_Driver/Src/stm32f3xx_hal_exti.c ****   */
 448:Drivers/STM32F3xx_HAL_Driver/Src/stm32f3xx_hal_exti.c **** HAL_StatusTypeDef HAL_EXTI_GetHandle(EXTI_HandleTypeDef *hexti, uint32_t ExtiLine)
 449:Drivers/STM32F3xx_HAL_Driver/Src/stm32f3xx_hal_exti.c **** {
 801              		.loc 1 449 1 is_stmt 1 view -0
 802              		.cfi_startproc
 803              		@ args = 0, pretend = 0, frame = 0
 804              		@ frame_needed = 0, uses_anonymous_args = 0
 805              		@ link register save eliminated.
 450:Drivers/STM32F3xx_HAL_Driver/Src/stm32f3xx_hal_exti.c ****   /* Check the parameters */
ARM GAS  /tmp/ccczLV2y.s 			page 24


 451:Drivers/STM32F3xx_HAL_Driver/Src/stm32f3xx_hal_exti.c ****   assert_param(IS_EXTI_LINE(ExtiLine));
 806              		.loc 1 451 3 view .LVU283
 452:Drivers/STM32F3xx_HAL_Driver/Src/stm32f3xx_hal_exti.c **** 
 453:Drivers/STM32F3xx_HAL_Driver/Src/stm32f3xx_hal_exti.c ****   /* Check null pointer */
 454:Drivers/STM32F3xx_HAL_Driver/Src/stm32f3xx_hal_exti.c ****   if (hexti == NULL)
 807              		.loc 1 454 3 view .LVU284
 808              		.loc 1 454 6 is_stmt 0 view .LVU285
 809 0000 10B1     		cbz	r0, .L56
 455:Drivers/STM32F3xx_HAL_Driver/Src/stm32f3xx_hal_exti.c ****   {
 456:Drivers/STM32F3xx_HAL_Driver/Src/stm32f3xx_hal_exti.c ****     return HAL_ERROR;
 457:Drivers/STM32F3xx_HAL_Driver/Src/stm32f3xx_hal_exti.c ****   }
 458:Drivers/STM32F3xx_HAL_Driver/Src/stm32f3xx_hal_exti.c ****   else
 459:Drivers/STM32F3xx_HAL_Driver/Src/stm32f3xx_hal_exti.c ****   {
 460:Drivers/STM32F3xx_HAL_Driver/Src/stm32f3xx_hal_exti.c ****     /* Store line number as handle private field */
 461:Drivers/STM32F3xx_HAL_Driver/Src/stm32f3xx_hal_exti.c ****     hexti->Line = ExtiLine;
 810              		.loc 1 461 5 is_stmt 1 view .LVU286
 811              		.loc 1 461 17 is_stmt 0 view .LVU287
 812 0002 0160     		str	r1, [r0]
 462:Drivers/STM32F3xx_HAL_Driver/Src/stm32f3xx_hal_exti.c **** 
 463:Drivers/STM32F3xx_HAL_Driver/Src/stm32f3xx_hal_exti.c ****     return HAL_OK;
 813              		.loc 1 463 5 is_stmt 1 view .LVU288
 814              		.loc 1 463 12 is_stmt 0 view .LVU289
 815 0004 0020     		movs	r0, #0
 816              	.LVL104:
 817              		.loc 1 463 12 view .LVU290
 818 0006 7047     		bx	lr
 819              	.LVL105:
 820              	.L56:
 456:Drivers/STM32F3xx_HAL_Driver/Src/stm32f3xx_hal_exti.c ****   }
 821              		.loc 1 456 12 view .LVU291
 822 0008 0120     		movs	r0, #1
 823              	.LVL106:
 464:Drivers/STM32F3xx_HAL_Driver/Src/stm32f3xx_hal_exti.c ****   }
 465:Drivers/STM32F3xx_HAL_Driver/Src/stm32f3xx_hal_exti.c **** }
 824              		.loc 1 465 1 view .LVU292
 825 000a 7047     		bx	lr
 826              		.cfi_endproc
 827              	.LFE127:
 829              		.section	.text.HAL_EXTI_IRQHandler,"ax",%progbits
 830              		.align	1
 831              		.global	HAL_EXTI_IRQHandler
 832              		.syntax unified
 833              		.thumb
 834              		.thumb_func
 835              		.fpu fpv4-sp-d16
 837              	HAL_EXTI_IRQHandler:
 838              	.LVL107:
 839              	.LFB128:
 466:Drivers/STM32F3xx_HAL_Driver/Src/stm32f3xx_hal_exti.c **** 
 467:Drivers/STM32F3xx_HAL_Driver/Src/stm32f3xx_hal_exti.c **** /**
 468:Drivers/STM32F3xx_HAL_Driver/Src/stm32f3xx_hal_exti.c ****   * @}
 469:Drivers/STM32F3xx_HAL_Driver/Src/stm32f3xx_hal_exti.c ****   */
 470:Drivers/STM32F3xx_HAL_Driver/Src/stm32f3xx_hal_exti.c **** 
 471:Drivers/STM32F3xx_HAL_Driver/Src/stm32f3xx_hal_exti.c **** /** @addtogroup EXTI_Exported_Functions_Group2
 472:Drivers/STM32F3xx_HAL_Driver/Src/stm32f3xx_hal_exti.c ****   *  @brief EXTI IO functions.
 473:Drivers/STM32F3xx_HAL_Driver/Src/stm32f3xx_hal_exti.c ****   *
 474:Drivers/STM32F3xx_HAL_Driver/Src/stm32f3xx_hal_exti.c **** @verbatim
ARM GAS  /tmp/ccczLV2y.s 			page 25


 475:Drivers/STM32F3xx_HAL_Driver/Src/stm32f3xx_hal_exti.c ****  ===============================================================================
 476:Drivers/STM32F3xx_HAL_Driver/Src/stm32f3xx_hal_exti.c ****                        ##### IO operation functions #####
 477:Drivers/STM32F3xx_HAL_Driver/Src/stm32f3xx_hal_exti.c ****  ===============================================================================
 478:Drivers/STM32F3xx_HAL_Driver/Src/stm32f3xx_hal_exti.c **** 
 479:Drivers/STM32F3xx_HAL_Driver/Src/stm32f3xx_hal_exti.c **** @endverbatim
 480:Drivers/STM32F3xx_HAL_Driver/Src/stm32f3xx_hal_exti.c ****   * @{
 481:Drivers/STM32F3xx_HAL_Driver/Src/stm32f3xx_hal_exti.c ****   */
 482:Drivers/STM32F3xx_HAL_Driver/Src/stm32f3xx_hal_exti.c **** 
 483:Drivers/STM32F3xx_HAL_Driver/Src/stm32f3xx_hal_exti.c **** /**
 484:Drivers/STM32F3xx_HAL_Driver/Src/stm32f3xx_hal_exti.c ****   * @brief  Handle EXTI interrupt request.
 485:Drivers/STM32F3xx_HAL_Driver/Src/stm32f3xx_hal_exti.c ****   * @param  hexti Exti handle.
 486:Drivers/STM32F3xx_HAL_Driver/Src/stm32f3xx_hal_exti.c ****   * @retval none.
 487:Drivers/STM32F3xx_HAL_Driver/Src/stm32f3xx_hal_exti.c ****   */
 488:Drivers/STM32F3xx_HAL_Driver/Src/stm32f3xx_hal_exti.c **** void HAL_EXTI_IRQHandler(EXTI_HandleTypeDef *hexti)
 489:Drivers/STM32F3xx_HAL_Driver/Src/stm32f3xx_hal_exti.c **** {
 840              		.loc 1 489 1 is_stmt 1 view -0
 841              		.cfi_startproc
 842              		@ args = 0, pretend = 0, frame = 0
 843              		@ frame_needed = 0, uses_anonymous_args = 0
 844              		.loc 1 489 1 is_stmt 0 view .LVU294
 845 0000 08B5     		push	{r3, lr}
 846              	.LCFI12:
 847              		.cfi_def_cfa_offset 8
 848              		.cfi_offset 3, -8
 849              		.cfi_offset 14, -4
 490:Drivers/STM32F3xx_HAL_Driver/Src/stm32f3xx_hal_exti.c ****   __IO uint32_t *regaddr;
 850              		.loc 1 490 3 is_stmt 1 view .LVU295
 491:Drivers/STM32F3xx_HAL_Driver/Src/stm32f3xx_hal_exti.c ****   uint32_t regval;
 851              		.loc 1 491 3 view .LVU296
 492:Drivers/STM32F3xx_HAL_Driver/Src/stm32f3xx_hal_exti.c ****   uint32_t maskline;
 852              		.loc 1 492 3 view .LVU297
 493:Drivers/STM32F3xx_HAL_Driver/Src/stm32f3xx_hal_exti.c ****   uint32_t offset;
 853              		.loc 1 493 3 view .LVU298
 494:Drivers/STM32F3xx_HAL_Driver/Src/stm32f3xx_hal_exti.c **** 
 495:Drivers/STM32F3xx_HAL_Driver/Src/stm32f3xx_hal_exti.c ****   /* Compute line register offset and line mask */
 496:Drivers/STM32F3xx_HAL_Driver/Src/stm32f3xx_hal_exti.c ****   offset = ((hexti->Line & EXTI_REG_MASK) >> EXTI_REG_SHIFT);
 854              		.loc 1 496 3 view .LVU299
 855              		.loc 1 496 19 is_stmt 0 view .LVU300
 856 0002 0368     		ldr	r3, [r0]
 857              		.loc 1 496 10 view .LVU301
 858 0004 C3F30041 		ubfx	r1, r3, #16, #1
 859              	.LVL108:
 497:Drivers/STM32F3xx_HAL_Driver/Src/stm32f3xx_hal_exti.c ****   maskline = (1uL << (hexti->Line & EXTI_PIN_MASK));
 860              		.loc 1 497 3 is_stmt 1 view .LVU302
 861              		.loc 1 497 35 is_stmt 0 view .LVU303
 862 0008 03F01F03 		and	r3, r3, #31
 863              		.loc 1 497 12 view .LVU304
 864 000c 0122     		movs	r2, #1
 865 000e 02FA03F3 		lsl	r3, r2, r3
 866              	.LVL109:
 498:Drivers/STM32F3xx_HAL_Driver/Src/stm32f3xx_hal_exti.c **** 
 499:Drivers/STM32F3xx_HAL_Driver/Src/stm32f3xx_hal_exti.c ****   /* Get pending bit  */
 500:Drivers/STM32F3xx_HAL_Driver/Src/stm32f3xx_hal_exti.c ****   regaddr = (&EXTI->PR + (EXTI_CONFIG_OFFSET * offset));
 867              		.loc 1 500 3 is_stmt 1 view .LVU305
 868              		.loc 1 500 24 is_stmt 0 view .LVU306
 869 0012 4A01     		lsls	r2, r1, #5
 870              		.loc 1 500 11 view .LVU307
ARM GAS  /tmp/ccczLV2y.s 			page 26


 871 0014 0449     		ldr	r1, .L60
 872              	.LVL110:
 501:Drivers/STM32F3xx_HAL_Driver/Src/stm32f3xx_hal_exti.c ****   regval = (*regaddr & maskline);
 873              		.loc 1 501 3 is_stmt 1 view .LVU308
 874              		.loc 1 501 13 is_stmt 0 view .LVU309
 875 0016 5258     		ldr	r2, [r2, r1]
 876              	.LVL111:
 502:Drivers/STM32F3xx_HAL_Driver/Src/stm32f3xx_hal_exti.c **** 
 503:Drivers/STM32F3xx_HAL_Driver/Src/stm32f3xx_hal_exti.c ****   if (regval != 0x00u)
 877              		.loc 1 503 3 is_stmt 1 view .LVU310
 878              		.loc 1 503 6 is_stmt 0 view .LVU311
 879 0018 1A42     		tst	r2, r3
 880 001a 04D0     		beq	.L57
 504:Drivers/STM32F3xx_HAL_Driver/Src/stm32f3xx_hal_exti.c ****   {
 505:Drivers/STM32F3xx_HAL_Driver/Src/stm32f3xx_hal_exti.c ****     /* Clear pending bit */
 506:Drivers/STM32F3xx_HAL_Driver/Src/stm32f3xx_hal_exti.c ****     EXTI->PR = maskline;
 881              		.loc 1 506 5 is_stmt 1 view .LVU312
 882              		.loc 1 506 14 is_stmt 0 view .LVU313
 883 001c 034A     		ldr	r2, .L60+4
 884              	.LVL112:
 885              		.loc 1 506 14 view .LVU314
 886 001e 5361     		str	r3, [r2, #20]
 887              	.LVL113:
 507:Drivers/STM32F3xx_HAL_Driver/Src/stm32f3xx_hal_exti.c **** 
 508:Drivers/STM32F3xx_HAL_Driver/Src/stm32f3xx_hal_exti.c ****     /* Call callback */
 509:Drivers/STM32F3xx_HAL_Driver/Src/stm32f3xx_hal_exti.c ****     if (hexti->PendingCallback != NULL)
 888              		.loc 1 509 5 is_stmt 1 view .LVU315
 889              		.loc 1 509 14 is_stmt 0 view .LVU316
 890 0020 4368     		ldr	r3, [r0, #4]
 891              	.LVL114:
 892              		.loc 1 509 8 view .LVU317
 893 0022 03B1     		cbz	r3, .L57
 510:Drivers/STM32F3xx_HAL_Driver/Src/stm32f3xx_hal_exti.c ****     {
 511:Drivers/STM32F3xx_HAL_Driver/Src/stm32f3xx_hal_exti.c ****       hexti->PendingCallback();
 894              		.loc 1 511 7 is_stmt 1 view .LVU318
 895 0024 9847     		blx	r3
 896              	.LVL115:
 897              	.L57:
 512:Drivers/STM32F3xx_HAL_Driver/Src/stm32f3xx_hal_exti.c ****     }
 513:Drivers/STM32F3xx_HAL_Driver/Src/stm32f3xx_hal_exti.c ****   }
 514:Drivers/STM32F3xx_HAL_Driver/Src/stm32f3xx_hal_exti.c **** }
 898              		.loc 1 514 1 is_stmt 0 view .LVU319
 899 0026 08BD     		pop	{r3, pc}
 900              	.L61:
 901              		.align	2
 902              	.L60:
 903 0028 14040140 		.word	1073808404
 904 002c 00040140 		.word	1073808384
 905              		.cfi_endproc
 906              	.LFE128:
 908              		.section	.text.HAL_EXTI_GetPending,"ax",%progbits
 909              		.align	1
 910              		.global	HAL_EXTI_GetPending
 911              		.syntax unified
 912              		.thumb
 913              		.thumb_func
 914              		.fpu fpv4-sp-d16
ARM GAS  /tmp/ccczLV2y.s 			page 27


 916              	HAL_EXTI_GetPending:
 917              	.LVL116:
 918              	.LFB129:
 515:Drivers/STM32F3xx_HAL_Driver/Src/stm32f3xx_hal_exti.c **** 
 516:Drivers/STM32F3xx_HAL_Driver/Src/stm32f3xx_hal_exti.c **** /**
 517:Drivers/STM32F3xx_HAL_Driver/Src/stm32f3xx_hal_exti.c ****   * @brief  Get interrupt pending bit of a dedicated line.
 518:Drivers/STM32F3xx_HAL_Driver/Src/stm32f3xx_hal_exti.c ****   * @param  hexti Exti handle.
 519:Drivers/STM32F3xx_HAL_Driver/Src/stm32f3xx_hal_exti.c ****   * @param  Edge Specify which pending edge as to be checked.
 520:Drivers/STM32F3xx_HAL_Driver/Src/stm32f3xx_hal_exti.c ****   *         This parameter can be one of the following values:
 521:Drivers/STM32F3xx_HAL_Driver/Src/stm32f3xx_hal_exti.c ****   *           @arg @ref EXTI_TRIGGER_RISING_FALLING
 522:Drivers/STM32F3xx_HAL_Driver/Src/stm32f3xx_hal_exti.c ****   *         This parameter is kept for compatibility with other series.
 523:Drivers/STM32F3xx_HAL_Driver/Src/stm32f3xx_hal_exti.c ****   * @retval 1 if interrupt is pending else 0.
 524:Drivers/STM32F3xx_HAL_Driver/Src/stm32f3xx_hal_exti.c ****   */
 525:Drivers/STM32F3xx_HAL_Driver/Src/stm32f3xx_hal_exti.c **** uint32_t HAL_EXTI_GetPending(EXTI_HandleTypeDef *hexti, uint32_t Edge)
 526:Drivers/STM32F3xx_HAL_Driver/Src/stm32f3xx_hal_exti.c **** {
 919              		.loc 1 526 1 is_stmt 1 view -0
 920              		.cfi_startproc
 921              		@ args = 0, pretend = 0, frame = 0
 922              		@ frame_needed = 0, uses_anonymous_args = 0
 923              		@ link register save eliminated.
 527:Drivers/STM32F3xx_HAL_Driver/Src/stm32f3xx_hal_exti.c ****   __IO uint32_t *regaddr;
 924              		.loc 1 527 3 view .LVU321
 528:Drivers/STM32F3xx_HAL_Driver/Src/stm32f3xx_hal_exti.c ****   uint32_t regval;
 925              		.loc 1 528 3 view .LVU322
 529:Drivers/STM32F3xx_HAL_Driver/Src/stm32f3xx_hal_exti.c ****   uint32_t linepos;
 926              		.loc 1 529 3 view .LVU323
 530:Drivers/STM32F3xx_HAL_Driver/Src/stm32f3xx_hal_exti.c ****   uint32_t maskline;
 927              		.loc 1 530 3 view .LVU324
 531:Drivers/STM32F3xx_HAL_Driver/Src/stm32f3xx_hal_exti.c ****   uint32_t offset;
 928              		.loc 1 531 3 view .LVU325
 532:Drivers/STM32F3xx_HAL_Driver/Src/stm32f3xx_hal_exti.c **** 
 533:Drivers/STM32F3xx_HAL_Driver/Src/stm32f3xx_hal_exti.c ****   /* Check parameters */
 534:Drivers/STM32F3xx_HAL_Driver/Src/stm32f3xx_hal_exti.c ****   assert_param(IS_EXTI_LINE(hexti->Line));
 929              		.loc 1 534 3 view .LVU326
 535:Drivers/STM32F3xx_HAL_Driver/Src/stm32f3xx_hal_exti.c ****   assert_param(IS_EXTI_CONFIG_LINE(hexti->Line));
 930              		.loc 1 535 3 view .LVU327
 536:Drivers/STM32F3xx_HAL_Driver/Src/stm32f3xx_hal_exti.c ****   assert_param(IS_EXTI_PENDING_EDGE(Edge));
 931              		.loc 1 536 3 view .LVU328
 537:Drivers/STM32F3xx_HAL_Driver/Src/stm32f3xx_hal_exti.c **** 
 538:Drivers/STM32F3xx_HAL_Driver/Src/stm32f3xx_hal_exti.c ****   /* compute line register offset and line mask */
 539:Drivers/STM32F3xx_HAL_Driver/Src/stm32f3xx_hal_exti.c ****   offset = ((hexti->Line & EXTI_REG_MASK) >> EXTI_REG_SHIFT);
 932              		.loc 1 539 3 view .LVU329
 933              		.loc 1 539 19 is_stmt 0 view .LVU330
 934 0000 0368     		ldr	r3, [r0]
 935              		.loc 1 539 10 view .LVU331
 936 0002 C3F30041 		ubfx	r1, r3, #16, #1
 937              	.LVL117:
 540:Drivers/STM32F3xx_HAL_Driver/Src/stm32f3xx_hal_exti.c ****   linepos = (hexti->Line & EXTI_PIN_MASK);
 938              		.loc 1 540 3 is_stmt 1 view .LVU332
 939              		.loc 1 540 11 is_stmt 0 view .LVU333
 940 0006 03F01F03 		and	r3, r3, #31
 941              	.LVL118:
 541:Drivers/STM32F3xx_HAL_Driver/Src/stm32f3xx_hal_exti.c ****   maskline = (1uL << linepos);
 942              		.loc 1 541 3 is_stmt 1 view .LVU334
 943              		.loc 1 541 12 is_stmt 0 view .LVU335
 944 000a 0120     		movs	r0, #1
 945              	.LVL119:
ARM GAS  /tmp/ccczLV2y.s 			page 28


 946              		.loc 1 541 12 view .LVU336
 947 000c 00FA03F2 		lsl	r2, r0, r3
 948              	.LVL120:
 542:Drivers/STM32F3xx_HAL_Driver/Src/stm32f3xx_hal_exti.c **** 
 543:Drivers/STM32F3xx_HAL_Driver/Src/stm32f3xx_hal_exti.c ****   /* Get pending bit  */
 544:Drivers/STM32F3xx_HAL_Driver/Src/stm32f3xx_hal_exti.c ****   regaddr = (&EXTI->PR + (EXTI_CONFIG_OFFSET * offset));
 949              		.loc 1 544 3 is_stmt 1 view .LVU337
 950              		.loc 1 544 24 is_stmt 0 view .LVU338
 951 0010 4901     		lsls	r1, r1, #5
 952              	.LVL121:
 953              		.loc 1 544 11 view .LVU339
 954 0012 0248     		ldr	r0, .L63
 955              	.LVL122:
 545:Drivers/STM32F3xx_HAL_Driver/Src/stm32f3xx_hal_exti.c ****   /* return 1 if bit is set else 0 */
 546:Drivers/STM32F3xx_HAL_Driver/Src/stm32f3xx_hal_exti.c ****   regval = ((*regaddr & maskline) >> linepos);
 956              		.loc 1 546 3 is_stmt 1 view .LVU340
 957              		.loc 1 546 14 is_stmt 0 view .LVU341
 958 0014 0858     		ldr	r0, [r1, r0]
 959              	.LVL123:
 960              		.loc 1 546 23 view .LVU342
 961 0016 1040     		ands	r0, r0, r2
 962              	.LVL124:
 547:Drivers/STM32F3xx_HAL_Driver/Src/stm32f3xx_hal_exti.c ****   return regval;
 963              		.loc 1 547 3 is_stmt 1 view .LVU343
 548:Drivers/STM32F3xx_HAL_Driver/Src/stm32f3xx_hal_exti.c **** }
 964              		.loc 1 548 1 is_stmt 0 view .LVU344
 965 0018 D840     		lsrs	r0, r0, r3
 966              	.LVL125:
 967              		.loc 1 548 1 view .LVU345
 968 001a 7047     		bx	lr
 969              	.L64:
 970              		.align	2
 971              	.L63:
 972 001c 14040140 		.word	1073808404
 973              		.cfi_endproc
 974              	.LFE129:
 976              		.section	.text.HAL_EXTI_ClearPending,"ax",%progbits
 977              		.align	1
 978              		.global	HAL_EXTI_ClearPending
 979              		.syntax unified
 980              		.thumb
 981              		.thumb_func
 982              		.fpu fpv4-sp-d16
 984              	HAL_EXTI_ClearPending:
 985              	.LVL126:
 986              	.LFB130:
 549:Drivers/STM32F3xx_HAL_Driver/Src/stm32f3xx_hal_exti.c **** 
 550:Drivers/STM32F3xx_HAL_Driver/Src/stm32f3xx_hal_exti.c **** /**
 551:Drivers/STM32F3xx_HAL_Driver/Src/stm32f3xx_hal_exti.c ****   * @brief  Clear interrupt pending bit of a dedicated line.
 552:Drivers/STM32F3xx_HAL_Driver/Src/stm32f3xx_hal_exti.c ****   * @param  hexti Exti handle.
 553:Drivers/STM32F3xx_HAL_Driver/Src/stm32f3xx_hal_exti.c ****   * @param  Edge Specify which pending edge as to be clear.
 554:Drivers/STM32F3xx_HAL_Driver/Src/stm32f3xx_hal_exti.c ****   *         This parameter can be one of the following values:
 555:Drivers/STM32F3xx_HAL_Driver/Src/stm32f3xx_hal_exti.c ****   *           @arg @ref EXTI_TRIGGER_RISING_FALLING
 556:Drivers/STM32F3xx_HAL_Driver/Src/stm32f3xx_hal_exti.c ****   *         This parameter is kept for compatibility with other series.
 557:Drivers/STM32F3xx_HAL_Driver/Src/stm32f3xx_hal_exti.c ****   * @retval None.
 558:Drivers/STM32F3xx_HAL_Driver/Src/stm32f3xx_hal_exti.c ****   */
 559:Drivers/STM32F3xx_HAL_Driver/Src/stm32f3xx_hal_exti.c **** void HAL_EXTI_ClearPending(EXTI_HandleTypeDef *hexti, uint32_t Edge)
ARM GAS  /tmp/ccczLV2y.s 			page 29


 560:Drivers/STM32F3xx_HAL_Driver/Src/stm32f3xx_hal_exti.c **** {
 987              		.loc 1 560 1 is_stmt 1 view -0
 988              		.cfi_startproc
 989              		@ args = 0, pretend = 0, frame = 0
 990              		@ frame_needed = 0, uses_anonymous_args = 0
 991              		@ link register save eliminated.
 561:Drivers/STM32F3xx_HAL_Driver/Src/stm32f3xx_hal_exti.c ****   __IO uint32_t *regaddr;
 992              		.loc 1 561 3 view .LVU347
 562:Drivers/STM32F3xx_HAL_Driver/Src/stm32f3xx_hal_exti.c ****   uint32_t maskline;
 993              		.loc 1 562 3 view .LVU348
 563:Drivers/STM32F3xx_HAL_Driver/Src/stm32f3xx_hal_exti.c ****   uint32_t offset;
 994              		.loc 1 563 3 view .LVU349
 564:Drivers/STM32F3xx_HAL_Driver/Src/stm32f3xx_hal_exti.c **** 
 565:Drivers/STM32F3xx_HAL_Driver/Src/stm32f3xx_hal_exti.c ****   /* Check parameters */
 566:Drivers/STM32F3xx_HAL_Driver/Src/stm32f3xx_hal_exti.c ****   assert_param(IS_EXTI_LINE(hexti->Line));
 995              		.loc 1 566 3 view .LVU350
 567:Drivers/STM32F3xx_HAL_Driver/Src/stm32f3xx_hal_exti.c ****   assert_param(IS_EXTI_CONFIG_LINE(hexti->Line));
 996              		.loc 1 567 3 view .LVU351
 568:Drivers/STM32F3xx_HAL_Driver/Src/stm32f3xx_hal_exti.c ****   assert_param(IS_EXTI_PENDING_EDGE(Edge));
 997              		.loc 1 568 3 view .LVU352
 569:Drivers/STM32F3xx_HAL_Driver/Src/stm32f3xx_hal_exti.c **** 
 570:Drivers/STM32F3xx_HAL_Driver/Src/stm32f3xx_hal_exti.c ****   /* compute line register offset and line mask */
 571:Drivers/STM32F3xx_HAL_Driver/Src/stm32f3xx_hal_exti.c ****   offset = ((hexti->Line & EXTI_REG_MASK) >> EXTI_REG_SHIFT);
 998              		.loc 1 571 3 view .LVU353
 999              		.loc 1 571 19 is_stmt 0 view .LVU354
 1000 0000 0368     		ldr	r3, [r0]
 1001              		.loc 1 571 10 view .LVU355
 1002 0002 C3F30042 		ubfx	r2, r3, #16, #1
 1003              	.LVL127:
 572:Drivers/STM32F3xx_HAL_Driver/Src/stm32f3xx_hal_exti.c ****   maskline = (1uL << (hexti->Line & EXTI_PIN_MASK));
 1004              		.loc 1 572 3 is_stmt 1 view .LVU356
 1005              		.loc 1 572 35 is_stmt 0 view .LVU357
 1006 0006 03F01F03 		and	r3, r3, #31
 1007              		.loc 1 572 12 view .LVU358
 1008 000a 0121     		movs	r1, #1
 1009              	.LVL128:
 1010              		.loc 1 572 12 view .LVU359
 1011 000c 01FA03F3 		lsl	r3, r1, r3
 1012              	.LVL129:
 573:Drivers/STM32F3xx_HAL_Driver/Src/stm32f3xx_hal_exti.c **** 
 574:Drivers/STM32F3xx_HAL_Driver/Src/stm32f3xx_hal_exti.c ****   /* Get pending bit  */
 575:Drivers/STM32F3xx_HAL_Driver/Src/stm32f3xx_hal_exti.c ****   regaddr = (&EXTI->PR + (EXTI_CONFIG_OFFSET * offset));
 1013              		.loc 1 575 3 is_stmt 1 view .LVU360
 1014              		.loc 1 575 24 is_stmt 0 view .LVU361
 1015 0010 5201     		lsls	r2, r2, #5
 1016              	.LVL130:
 1017              		.loc 1 575 11 view .LVU362
 1018 0012 0149     		ldr	r1, .L66
 1019              	.LVL131:
 576:Drivers/STM32F3xx_HAL_Driver/Src/stm32f3xx_hal_exti.c **** 
 577:Drivers/STM32F3xx_HAL_Driver/Src/stm32f3xx_hal_exti.c ****   /* Clear Pending bit */
 578:Drivers/STM32F3xx_HAL_Driver/Src/stm32f3xx_hal_exti.c ****   *regaddr =  maskline;
 1020              		.loc 1 578 3 is_stmt 1 view .LVU363
 1021              		.loc 1 578 12 is_stmt 0 view .LVU364
 1022 0014 5350     		str	r3, [r2, r1]
 1023              	.LVL132:
 579:Drivers/STM32F3xx_HAL_Driver/Src/stm32f3xx_hal_exti.c **** }
ARM GAS  /tmp/ccczLV2y.s 			page 30


 1024              		.loc 1 579 1 view .LVU365
 1025 0016 7047     		bx	lr
 1026              	.L67:
 1027              		.align	2
 1028              	.L66:
 1029 0018 14040140 		.word	1073808404
 1030              		.cfi_endproc
 1031              	.LFE130:
 1033              		.section	.text.HAL_EXTI_GenerateSWI,"ax",%progbits
 1034              		.align	1
 1035              		.global	HAL_EXTI_GenerateSWI
 1036              		.syntax unified
 1037              		.thumb
 1038              		.thumb_func
 1039              		.fpu fpv4-sp-d16
 1041              	HAL_EXTI_GenerateSWI:
 1042              	.LVL133:
 1043              	.LFB131:
 580:Drivers/STM32F3xx_HAL_Driver/Src/stm32f3xx_hal_exti.c **** 
 581:Drivers/STM32F3xx_HAL_Driver/Src/stm32f3xx_hal_exti.c **** /**
 582:Drivers/STM32F3xx_HAL_Driver/Src/stm32f3xx_hal_exti.c ****   * @brief  Generate a software interrupt for a dedicated line.
 583:Drivers/STM32F3xx_HAL_Driver/Src/stm32f3xx_hal_exti.c ****   * @param  hexti Exti handle.
 584:Drivers/STM32F3xx_HAL_Driver/Src/stm32f3xx_hal_exti.c ****   * @retval None.
 585:Drivers/STM32F3xx_HAL_Driver/Src/stm32f3xx_hal_exti.c ****   */
 586:Drivers/STM32F3xx_HAL_Driver/Src/stm32f3xx_hal_exti.c **** void HAL_EXTI_GenerateSWI(EXTI_HandleTypeDef *hexti)
 587:Drivers/STM32F3xx_HAL_Driver/Src/stm32f3xx_hal_exti.c **** {
 1044              		.loc 1 587 1 is_stmt 1 view -0
 1045              		.cfi_startproc
 1046              		@ args = 0, pretend = 0, frame = 0
 1047              		@ frame_needed = 0, uses_anonymous_args = 0
 1048              		@ link register save eliminated.
 588:Drivers/STM32F3xx_HAL_Driver/Src/stm32f3xx_hal_exti.c ****   __IO uint32_t *regaddr;
 1049              		.loc 1 588 3 view .LVU367
 589:Drivers/STM32F3xx_HAL_Driver/Src/stm32f3xx_hal_exti.c ****   uint32_t maskline;
 1050              		.loc 1 589 3 view .LVU368
 590:Drivers/STM32F3xx_HAL_Driver/Src/stm32f3xx_hal_exti.c ****   uint32_t offset;
 1051              		.loc 1 590 3 view .LVU369
 591:Drivers/STM32F3xx_HAL_Driver/Src/stm32f3xx_hal_exti.c **** 
 592:Drivers/STM32F3xx_HAL_Driver/Src/stm32f3xx_hal_exti.c ****   /* Check parameters */
 593:Drivers/STM32F3xx_HAL_Driver/Src/stm32f3xx_hal_exti.c ****   assert_param(IS_EXTI_LINE(hexti->Line));
 1052              		.loc 1 593 3 view .LVU370
 594:Drivers/STM32F3xx_HAL_Driver/Src/stm32f3xx_hal_exti.c ****   assert_param(IS_EXTI_CONFIG_LINE(hexti->Line));
 1053              		.loc 1 594 3 view .LVU371
 595:Drivers/STM32F3xx_HAL_Driver/Src/stm32f3xx_hal_exti.c **** 
 596:Drivers/STM32F3xx_HAL_Driver/Src/stm32f3xx_hal_exti.c ****   /* compute line register offset and line mask */
 597:Drivers/STM32F3xx_HAL_Driver/Src/stm32f3xx_hal_exti.c ****   offset = ((hexti->Line & EXTI_REG_MASK) >> EXTI_REG_SHIFT);
 1054              		.loc 1 597 3 view .LVU372
 1055              		.loc 1 597 19 is_stmt 0 view .LVU373
 1056 0000 0368     		ldr	r3, [r0]
 1057              		.loc 1 597 10 view .LVU374
 1058 0002 C3F30042 		ubfx	r2, r3, #16, #1
 1059              	.LVL134:
 598:Drivers/STM32F3xx_HAL_Driver/Src/stm32f3xx_hal_exti.c ****   maskline = (1uL << (hexti->Line & EXTI_PIN_MASK));
 1060              		.loc 1 598 3 is_stmt 1 view .LVU375
 1061              		.loc 1 598 35 is_stmt 0 view .LVU376
 1062 0006 03F01F03 		and	r3, r3, #31
 1063              		.loc 1 598 12 view .LVU377
ARM GAS  /tmp/ccczLV2y.s 			page 31


 1064 000a 0121     		movs	r1, #1
 1065 000c 01FA03F3 		lsl	r3, r1, r3
 1066              	.LVL135:
 599:Drivers/STM32F3xx_HAL_Driver/Src/stm32f3xx_hal_exti.c **** 
 600:Drivers/STM32F3xx_HAL_Driver/Src/stm32f3xx_hal_exti.c ****   regaddr = (&EXTI->SWIER + (EXTI_CONFIG_OFFSET * offset));
 1067              		.loc 1 600 3 is_stmt 1 view .LVU378
 1068              		.loc 1 600 27 is_stmt 0 view .LVU379
 1069 0010 5201     		lsls	r2, r2, #5
 1070              	.LVL136:
 1071              		.loc 1 600 11 view .LVU380
 1072 0012 0149     		ldr	r1, .L69
 1073              	.LVL137:
 601:Drivers/STM32F3xx_HAL_Driver/Src/stm32f3xx_hal_exti.c ****   *regaddr = maskline;
 1074              		.loc 1 601 3 is_stmt 1 view .LVU381
 1075              		.loc 1 601 12 is_stmt 0 view .LVU382
 1076 0014 5350     		str	r3, [r2, r1]
 1077              	.LVL138:
 602:Drivers/STM32F3xx_HAL_Driver/Src/stm32f3xx_hal_exti.c **** }
 1078              		.loc 1 602 1 view .LVU383
 1079 0016 7047     		bx	lr
 1080              	.L70:
 1081              		.align	2
 1082              	.L69:
 1083 0018 10040140 		.word	1073808400
 1084              		.cfi_endproc
 1085              	.LFE131:
 1087              		.text
 1088              	.Letext0:
 1089              		.file 2 "/usr/lib/gcc/arm-none-eabi/9.2.1/include/stdint.h"
 1090              		.file 3 "Drivers/CMSIS/Include/core_cm4.h"
 1091              		.file 4 "Drivers/CMSIS/Device/ST/STM32F3xx/Include/system_stm32f3xx.h"
 1092              		.file 5 "Drivers/CMSIS/Device/ST/STM32F3xx/Include/stm32f303x8.h"
 1093              		.file 6 "Drivers/STM32F3xx_HAL_Driver/Inc/stm32f3xx_hal_def.h"
 1094              		.file 7 "Drivers/STM32F3xx_HAL_Driver/Inc/stm32f3xx_hal_exti.h"
 1095              		.file 8 "Drivers/STM32F3xx_HAL_Driver/Inc/stm32f3xx_hal.h"
ARM GAS  /tmp/ccczLV2y.s 			page 32

